
wcm_firmware.elf:     file format elf32-littlearm

Sections:
Idx Name          Size      VMA       LMA       File off  Algn
  0 .text         0000d834  00000000  00000000  00010000  2**3
                  CONTENTS, ALLOC, LOAD, READONLY, CODE
  1 .ARM.exidx    00000008  0000d834  0000d834  0001d834  2**2
                  CONTENTS, ALLOC, LOAD, READONLY, DATA
  2 .relocate     000009c0  20000000  0000d83c  00020000  2**3
                  CONTENTS, ALLOC, LOAD, DATA
  3 .lpram        00000000  30000000  30000000  000209c0  2**0
                  CONTENTS
  4 .bss          00000358  200009c0  0000e200  000209c0  2**3
                  ALLOC
  5 .stack        00001000  20000d18  0000e558  000209c0  2**0
                  ALLOC
  6 .ARM.attributes 00000028  00000000  00000000  000209c0  2**0
                  CONTENTS, READONLY
  7 .comment      00000059  00000000  00000000  000209e8  2**0
                  CONTENTS, READONLY
  8 .debug_frame  00001040  00000000  00000000  00020a44  2**2
                  CONTENTS, READONLY, DEBUGGING

Disassembly of section .text:

00000000 <exception_table>:
       0:	18 1d 00 20 11 51 00 00 0d 51 00 00 0d 51 00 00     ... .Q...Q...Q..
	...
      2c:	0d 51 00 00 00 00 00 00 00 00 00 00 0d 51 00 00     .Q...........Q..
      3c:	0d 51 00 00 0d 51 00 00 0d 51 00 00 0d 51 00 00     .Q...Q...Q...Q..
      4c:	d1 3f 00 00 0d 51 00 00 0d 51 00 00 0d 51 00 00     .?...Q...Q...Q..
      5c:	0d 51 00 00 71 3f 00 00 81 3f 00 00 91 3f 00 00     .Q..q?...?...?..
      6c:	a1 3f 00 00 b1 3f 00 00 c1 3f 00 00 0d 51 00 00     .?...?...?...Q..
      7c:	0d 51 00 00 0d 51 00 00 f5 33 00 00 05 34 00 00     .Q...Q...3...4..
	...
      94:	15 34 00 00 0d 51 00 00 0d 51 00 00 0d 51 00 00     .4...Q...Q...Q..
      a4:	0d 51 00 00 0d 51 00 00 0d 51 00 00 00 00 00 00     .Q...Q...Q......

000000b4 <__do_global_dtors_aux>:
      b4:	b510      	push	{r4, lr}
      b6:	4c06      	ldr	r4, [pc, #24]	; (d0 <__do_global_dtors_aux+0x1c>)
      b8:	7823      	ldrb	r3, [r4, #0]
      ba:	2b00      	cmp	r3, #0
      bc:	d107      	bne.n	ce <__do_global_dtors_aux+0x1a>
      be:	4b05      	ldr	r3, [pc, #20]	; (d4 <__do_global_dtors_aux+0x20>)
      c0:	2b00      	cmp	r3, #0
      c2:	d002      	beq.n	ca <__do_global_dtors_aux+0x16>
      c4:	4804      	ldr	r0, [pc, #16]	; (d8 <__do_global_dtors_aux+0x24>)
      c6:	e000      	b.n	ca <__do_global_dtors_aux+0x16>
      c8:	bf00      	nop
      ca:	2301      	movs	r3, #1
      cc:	7023      	strb	r3, [r4, #0]
      ce:	bd10      	pop	{r4, pc}
      d0:	200009c0 	.word	0x200009c0
      d4:	00000000 	.word	0x00000000
      d8:	0000d83c 	.word	0x0000d83c

000000dc <frame_dummy>:
      dc:	4b08      	ldr	r3, [pc, #32]	; (100 <frame_dummy+0x24>)
      de:	b510      	push	{r4, lr}
      e0:	2b00      	cmp	r3, #0
      e2:	d003      	beq.n	ec <frame_dummy+0x10>
      e4:	4907      	ldr	r1, [pc, #28]	; (104 <frame_dummy+0x28>)
      e6:	4808      	ldr	r0, [pc, #32]	; (108 <frame_dummy+0x2c>)
      e8:	e000      	b.n	ec <frame_dummy+0x10>
      ea:	bf00      	nop
      ec:	4807      	ldr	r0, [pc, #28]	; (10c <frame_dummy+0x30>)
      ee:	6803      	ldr	r3, [r0, #0]
      f0:	2b00      	cmp	r3, #0
      f2:	d100      	bne.n	f6 <frame_dummy+0x1a>
      f4:	bd10      	pop	{r4, pc}
      f6:	4b06      	ldr	r3, [pc, #24]	; (110 <frame_dummy+0x34>)
      f8:	2b00      	cmp	r3, #0
      fa:	d0fb      	beq.n	f4 <frame_dummy+0x18>
      fc:	4798      	blx	r3
      fe:	e7f9      	b.n	f4 <frame_dummy+0x18>
     100:	00000000 	.word	0x00000000
     104:	200009c4 	.word	0x200009c4
     108:	0000d83c 	.word	0x0000d83c
     10c:	0000d83c 	.word	0x0000d83c
     110:	00000000 	.word	0x00000000

00000114 <tc_callback_to_read_mc3416>:
     114:	b510      	push	{r4, lr}
     116:	4b04      	ldr	r3, [pc, #16]	; (128 <tc_callback_to_read_mc3416+0x14>)
     118:	4904      	ldr	r1, [pc, #16]	; (12c <tc_callback_to_read_mc3416+0x18>)
     11a:	4805      	ldr	r0, [pc, #20]	; (130 <tc_callback_to_read_mc3416+0x1c>)
     11c:	4798      	blx	r3
     11e:	2201      	movs	r2, #1
     120:	4b04      	ldr	r3, [pc, #16]	; (134 <tc_callback_to_read_mc3416+0x20>)
     122:	701a      	strb	r2, [r3, #0]
     124:	bd10      	pop	{r4, pc}
     126:	46c0      	nop			; (mov r8, r8)
     128:	00003325 	.word	0x00003325
     12c:	fffaa22c 	.word	0xfffaa22c
     130:	20000c68 	.word	0x20000c68
     134:	20000a02 	.word	0x20000a02

00000138 <initInternalHW>:
     138:	b570      	push	{r4, r5, r6, lr}
     13a:	4b0b      	ldr	r3, [pc, #44]	; (168 <initInternalHW+0x30>)
     13c:	4798      	blx	r3
     13e:	4d0b      	ldr	r5, [pc, #44]	; (16c <initInternalHW+0x34>)
     140:	4c0b      	ldr	r4, [pc, #44]	; (170 <initInternalHW+0x38>)
     142:	4e0c      	ldr	r6, [pc, #48]	; (174 <initInternalHW+0x3c>)
     144:	2800      	cmp	r0, #0
     146:	d000      	beq.n	14a <initInternalHW+0x12>
     148:	4e0b      	ldr	r6, [pc, #44]	; (178 <initInternalHW+0x40>)
     14a:	0030      	movs	r0, r6
     14c:	47a8      	blx	r5
     14e:	0030      	movs	r0, r6
     150:	47a0      	blx	r4
     152:	4b0a      	ldr	r3, [pc, #40]	; (17c <initInternalHW+0x44>)
     154:	4798      	blx	r3
     156:	4e0a      	ldr	r6, [pc, #40]	; (180 <initInternalHW+0x48>)
     158:	2800      	cmp	r0, #0
     15a:	d000      	beq.n	15e <initInternalHW+0x26>
     15c:	4e09      	ldr	r6, [pc, #36]	; (184 <initInternalHW+0x4c>)
     15e:	0030      	movs	r0, r6
     160:	47a8      	blx	r5
     162:	0030      	movs	r0, r6
     164:	47a0      	blx	r4
     166:	bd70      	pop	{r4, r5, r6, pc}
     168:	00001c8d 	.word	0x00001c8d
     16c:	00002299 	.word	0x00002299
     170:	000024a9 	.word	0x000024a9
     174:	0000c3c4 	.word	0x0000c3c4
     178:	0000c3eb 	.word	0x0000c3eb
     17c:	00001959 	.word	0x00001959
     180:	0000c41a 	.word	0x0000c41a
     184:	0000c441 	.word	0x0000c441

00000188 <read_mc3416>:
     188:	b530      	push	{r4, r5, lr}
     18a:	b0a3      	sub	sp, #140	; 0x8c
     18c:	4668      	mov	r0, sp
     18e:	4b07      	ldr	r3, [pc, #28]	; (1ac <read_mc3416+0x24>)
     190:	4798      	blx	r3
     192:	9a00      	ldr	r2, [sp, #0]
     194:	9b01      	ldr	r3, [sp, #4]
     196:	0004      	movs	r4, r0
     198:	4905      	ldr	r1, [pc, #20]	; (1b0 <read_mc3416+0x28>)
     19a:	a802      	add	r0, sp, #8
     19c:	4d05      	ldr	r5, [pc, #20]	; (1b4 <read_mc3416+0x2c>)
     19e:	47a8      	blx	r5
     1a0:	a802      	add	r0, sp, #8
     1a2:	4b05      	ldr	r3, [pc, #20]	; (1b8 <read_mc3416+0x30>)
     1a4:	4798      	blx	r3
     1a6:	0020      	movs	r0, r4
     1a8:	b023      	add	sp, #140	; 0x8c
     1aa:	bd30      	pop	{r4, r5, pc}
     1ac:	000019ed 	.word	0x000019ed
     1b0:	0000c470 	.word	0x0000c470
     1b4:	00007a41 	.word	0x00007a41
     1b8:	00002299 	.word	0x00002299

000001bc <wcm_init>:
     1bc:	b510      	push	{r4, lr}
     1be:	4b0c      	ldr	r3, [pc, #48]	; (1f0 <wcm_init+0x34>)
     1c0:	4798      	blx	r3
     1c2:	4b0c      	ldr	r3, [pc, #48]	; (1f4 <wcm_init+0x38>)
     1c4:	4798      	blx	r3
     1c6:	4b0c      	ldr	r3, [pc, #48]	; (1f8 <wcm_init+0x3c>)
     1c8:	4798      	blx	r3
     1ca:	4b0c      	ldr	r3, [pc, #48]	; (1fc <wcm_init+0x40>)
     1cc:	4798      	blx	r3
     1ce:	4b0c      	ldr	r3, [pc, #48]	; (200 <wcm_init+0x44>)
     1d0:	4798      	blx	r3
     1d2:	4b0c      	ldr	r3, [pc, #48]	; (204 <wcm_init+0x48>)
     1d4:	4798      	blx	r3
     1d6:	4b0c      	ldr	r3, [pc, #48]	; (208 <wcm_init+0x4c>)
     1d8:	4798      	blx	r3
     1da:	4b0c      	ldr	r3, [pc, #48]	; (20c <wcm_init+0x50>)
     1dc:	4798      	blx	r3
     1de:	4b0c      	ldr	r3, [pc, #48]	; (210 <wcm_init+0x54>)
     1e0:	4798      	blx	r3
     1e2:	4b0c      	ldr	r3, [pc, #48]	; (214 <wcm_init+0x58>)
     1e4:	4798      	blx	r3
     1e6:	4b0c      	ldr	r3, [pc, #48]	; (218 <wcm_init+0x5c>)
     1e8:	4798      	blx	r3
     1ea:	4b0c      	ldr	r3, [pc, #48]	; (21c <wcm_init+0x60>)
     1ec:	4798      	blx	r3
     1ee:	bd10      	pop	{r4, pc}
     1f0:	00002049 	.word	0x00002049
     1f4:	00000ea1 	.word	0x00000ea1
     1f8:	00000efd 	.word	0x00000efd
     1fc:	00001409 	.word	0x00001409
     200:	000012e5 	.word	0x000012e5
     204:	0000131d 	.word	0x0000131d
     208:	00001389 	.word	0x00001389
     20c:	000013b9 	.word	0x000013b9
     210:	00001339 	.word	0x00001339
     214:	00001361 	.word	0x00001361
     218:	000013e9 	.word	0x000013e9
     21c:	00000139 	.word	0x00000139

00000220 <wcm_run>:
     220:	2300      	movs	r3, #0
     222:	b5f0      	push	{r4, r5, r6, r7, lr}
     224:	b0d1      	sub	sp, #324	; 0x144
     226:	aa12      	add	r2, sp, #72	; 0x48
     228:	a91f      	add	r1, sp, #124	; 0x7c
     22a:	700b      	strb	r3, [r1, #0]
     22c:	7013      	strb	r3, [r2, #0]
     22e:	7193      	strb	r3, [r2, #6]
     230:	71d3      	strb	r3, [r2, #7]
     232:	7053      	strb	r3, [r2, #1]
     234:	7093      	strb	r3, [r2, #2]
     236:	7213      	strb	r3, [r2, #8]
     238:	7253      	strb	r3, [r2, #9]
     23a:	7293      	strb	r3, [r2, #10]
     23c:	72d3      	strb	r3, [r2, #11]
     23e:	7313      	strb	r3, [r2, #12]
     240:	7393      	strb	r3, [r2, #14]
     242:	7353      	strb	r3, [r2, #13]
     244:	7413      	strb	r3, [r2, #16]
     246:	6153      	str	r3, [r2, #20]
     248:	6193      	str	r3, [r2, #24]
     24a:	7713      	strb	r3, [r2, #28]
     24c:	6213      	str	r3, [r2, #32]
     24e:	6253      	str	r3, [r2, #36]	; 0x24
     250:	8593      	strh	r3, [r2, #44]	; 0x2c
     252:	3308      	adds	r3, #8
     254:	70d3      	strb	r3, [r2, #3]
     256:	23e0      	movs	r3, #224	; 0xe0
     258:	00db      	lsls	r3, r3, #3
     25a:	8093      	strh	r3, [r2, #4]
     25c:	4bd3      	ldr	r3, [pc, #844]	; (5ac <wcm_run+0x38c>)
     25e:	49d4      	ldr	r1, [pc, #848]	; (5b0 <wcm_run+0x390>)
     260:	6293      	str	r3, [r2, #40]	; 0x28
     262:	48d4      	ldr	r0, [pc, #848]	; (5b4 <wcm_run+0x394>)
     264:	4bd4      	ldr	r3, [pc, #848]	; (5b8 <wcm_run+0x398>)
     266:	4798      	blx	r3
     268:	4bd2      	ldr	r3, [pc, #840]	; (5b4 <wcm_run+0x394>)
     26a:	681b      	ldr	r3, [r3, #0]
     26c:	691c      	ldr	r4, [r3, #16]
     26e:	2c00      	cmp	r4, #0
     270:	d1fc      	bne.n	26c <wcm_run+0x4c>
     272:	2202      	movs	r2, #2
     274:	6819      	ldr	r1, [r3, #0]
     276:	48cf      	ldr	r0, [pc, #828]	; (5b4 <wcm_run+0x394>)
     278:	430a      	orrs	r2, r1
     27a:	601a      	str	r2, [r3, #0]
     27c:	49cf      	ldr	r1, [pc, #828]	; (5bc <wcm_run+0x39c>)
     27e:	0022      	movs	r2, r4
     280:	4bcf      	ldr	r3, [pc, #828]	; (5c0 <wcm_run+0x3a0>)
     282:	4798      	blx	r3
     284:	4bcb      	ldr	r3, [pc, #812]	; (5b4 <wcm_run+0x394>)
     286:	6818      	ldr	r0, [r3, #0]
     288:	4bce      	ldr	r3, [pc, #824]	; (5c4 <wcm_run+0x3a4>)
     28a:	4798      	blx	r3
     28c:	4bce      	ldr	r3, [pc, #824]	; (5c8 <wcm_run+0x3a8>)
     28e:	4dcf      	ldr	r5, [pc, #828]	; (5cc <wcm_run+0x3ac>)
     290:	5c1a      	ldrb	r2, [r3, r0]
     292:	231f      	movs	r3, #31
     294:	401a      	ands	r2, r3
     296:	3b1e      	subs	r3, #30
     298:	0019      	movs	r1, r3
     29a:	4091      	lsls	r1, r2
     29c:	4acc      	ldr	r2, [pc, #816]	; (5d0 <wcm_run+0x3b0>)
     29e:	a80a      	add	r0, sp, #40	; 0x28
     2a0:	6011      	str	r1, [r2, #0]
     2a2:	4ac4      	ldr	r2, [pc, #784]	; (5b4 <wcm_run+0x394>)
     2a4:	49c3      	ldr	r1, [pc, #780]	; (5b4 <wcm_run+0x394>)
     2a6:	7e52      	ldrb	r2, [r2, #25]
     2a8:	431a      	orrs	r2, r3
     2aa:	764a      	strb	r2, [r1, #25]
     2ac:	680a      	ldr	r2, [r1, #0]
     2ae:	0021      	movs	r1, r4
     2b0:	7253      	strb	r3, [r2, #9]
     2b2:	9202      	str	r2, [sp, #8]
     2b4:	2210      	movs	r2, #16
     2b6:	47a8      	blx	r5
     2b8:	2210      	movs	r2, #16
     2ba:	0021      	movs	r1, r4
     2bc:	a80e      	add	r0, sp, #56	; 0x38
     2be:	47a8      	blx	r5
     2c0:	4dc4      	ldr	r5, [pc, #784]	; (5d4 <wcm_run+0x3b4>)
     2c2:	4bc5      	ldr	r3, [pc, #788]	; (5d8 <wcm_run+0x3b8>)
     2c4:	0028      	movs	r0, r5
     2c6:	4798      	blx	r3
     2c8:	4bc4      	ldr	r3, [pc, #784]	; (5dc <wcm_run+0x3bc>)
     2ca:	0028      	movs	r0, r5
     2cc:	4798      	blx	r3
     2ce:	4bc4      	ldr	r3, [pc, #784]	; (5e0 <wcm_run+0x3c0>)
     2d0:	9403      	str	r4, [sp, #12]
     2d2:	701c      	strb	r4, [r3, #0]
     2d4:	2200      	movs	r2, #0
     2d6:	4bc3      	ldr	r3, [pc, #780]	; (5e4 <wcm_run+0x3c4>)
     2d8:	701a      	strb	r2, [r3, #0]
     2da:	4bc2      	ldr	r3, [pc, #776]	; (5e4 <wcm_run+0x3c4>)
     2dc:	781b      	ldrb	r3, [r3, #0]
     2de:	2b00      	cmp	r3, #0
     2e0:	d1f8      	bne.n	2d4 <wcm_run+0xb4>
     2e2:	4bbf      	ldr	r3, [pc, #764]	; (5e0 <wcm_run+0x3c0>)
     2e4:	781c      	ldrb	r4, [r3, #0]
     2e6:	2c00      	cmp	r4, #0
     2e8:	d11d      	bne.n	326 <wcm_run+0x106>
     2ea:	4bbf      	ldr	r3, [pc, #764]	; (5e8 <wcm_run+0x3c8>)
     2ec:	4798      	blx	r3
     2ee:	2800      	cmp	r0, #0
     2f0:	d015      	beq.n	31e <wcm_run+0xfe>
     2f2:	232d      	movs	r3, #45	; 0x2d
     2f4:	ad0e      	add	r5, sp, #56	; 0x38
     2f6:	5563      	strb	r3, [r4, r5]
     2f8:	3401      	adds	r4, #1
     2fa:	2c08      	cmp	r4, #8
     2fc:	d1fb      	bne.n	2f6 <wcm_run+0xd6>
     2fe:	2000      	movs	r0, #0
     300:	4bba      	ldr	r3, [pc, #744]	; (5ec <wcm_run+0x3cc>)
     302:	4798      	blx	r3
     304:	4bba      	ldr	r3, [pc, #744]	; (5f0 <wcm_run+0x3d0>)
     306:	0022      	movs	r2, r4
     308:	a90a      	add	r1, sp, #40	; 0x28
     30a:	0028      	movs	r0, r5
     30c:	4798      	blx	r3
     30e:	4bb2      	ldr	r3, [pc, #712]	; (5d8 <wcm_run+0x3b8>)
     310:	2800      	cmp	r0, #0
     312:	d15f      	bne.n	3d4 <wcm_run+0x1b4>
     314:	2201      	movs	r2, #1
     316:	49b2      	ldr	r1, [pc, #712]	; (5e0 <wcm_run+0x3c0>)
     318:	48b6      	ldr	r0, [pc, #728]	; (5f4 <wcm_run+0x3d4>)
     31a:	700a      	strb	r2, [r1, #0]
     31c:	4798      	blx	r3
     31e:	4bb0      	ldr	r3, [pc, #704]	; (5e0 <wcm_run+0x3c0>)
     320:	781b      	ldrb	r3, [r3, #0]
     322:	2b00      	cmp	r3, #0
     324:	d032      	beq.n	38c <wcm_run+0x16c>
     326:	4bb4      	ldr	r3, [pc, #720]	; (5f8 <wcm_run+0x3d8>)
     328:	4798      	blx	r3
     32a:	2800      	cmp	r0, #0
     32c:	d02e      	beq.n	38c <wcm_run+0x16c>
     32e:	200a      	movs	r0, #10
     330:	4bb2      	ldr	r3, [pc, #712]	; (5fc <wcm_run+0x3dc>)
     332:	4798      	blx	r3
     334:	466b      	mov	r3, sp
     336:	4db2      	ldr	r5, [pc, #712]	; (600 <wcm_run+0x3e0>)
     338:	ac0a      	add	r4, sp, #40	; 0x28
     33a:	7b1b      	ldrb	r3, [r3, #12]
     33c:	0029      	movs	r1, r5
     33e:	0020      	movs	r0, r4
     340:	4eb0      	ldr	r6, [pc, #704]	; (604 <wcm_run+0x3e4>)
     342:	7223      	strb	r3, [r4, #8]
     344:	47b0      	blx	r6
     346:	2800      	cmp	r0, #0
     348:	d04a      	beq.n	3e0 <wcm_run+0x1c0>
     34a:	4baf      	ldr	r3, [pc, #700]	; (608 <wcm_run+0x3e8>)
     34c:	0021      	movs	r1, r4
     34e:	48af      	ldr	r0, [pc, #700]	; (60c <wcm_run+0x3ec>)
     350:	4798      	blx	r3
     352:	a830      	add	r0, sp, #192	; 0xc0
     354:	4bae      	ldr	r3, [pc, #696]	; (610 <wcm_run+0x3f0>)
     356:	4798      	blx	r3
     358:	2800      	cmp	r0, #0
     35a:	d13d      	bne.n	3d8 <wcm_run+0x1b8>
     35c:	4bad      	ldr	r3, [pc, #692]	; (614 <wcm_run+0x3f4>)
     35e:	9830      	ldr	r0, [sp, #192]	; 0xc0
     360:	4798      	blx	r3
     362:	2208      	movs	r2, #8
     364:	9000      	str	r0, [sp, #0]
     366:	9101      	str	r1, [sp, #4]
     368:	4bab      	ldr	r3, [pc, #684]	; (618 <wcm_run+0x3f8>)
     36a:	49ac      	ldr	r1, [pc, #688]	; (61c <wcm_run+0x3fc>)
     36c:	a80e      	add	r0, sp, #56	; 0x38
     36e:	4798      	blx	r3
     370:	2208      	movs	r2, #8
     372:	0021      	movs	r1, r4
     374:	a80e      	add	r0, sp, #56	; 0x38
     376:	4b9e      	ldr	r3, [pc, #632]	; (5f0 <wcm_run+0x3d0>)
     378:	4798      	blx	r3
     37a:	2800      	cmp	r0, #0
     37c:	d006      	beq.n	38c <wcm_run+0x16c>
     37e:	466a      	mov	r2, sp
     380:	4b97      	ldr	r3, [pc, #604]	; (5e0 <wcm_run+0x3c0>)
     382:	7b12      	ldrb	r2, [r2, #12]
     384:	48a6      	ldr	r0, [pc, #664]	; (620 <wcm_run+0x400>)
     386:	701a      	strb	r2, [r3, #0]
     388:	4b93      	ldr	r3, [pc, #588]	; (5d8 <wcm_run+0x3b8>)
     38a:	4798      	blx	r3
     38c:	4ba5      	ldr	r3, [pc, #660]	; (624 <wcm_run+0x404>)
     38e:	4798      	blx	r3
     390:	2800      	cmp	r0, #0
     392:	d1a2      	bne.n	2da <wcm_run+0xba>
     394:	2140      	movs	r1, #64	; 0x40
     396:	a820      	add	r0, sp, #128	; 0x80
     398:	4ba3      	ldr	r3, [pc, #652]	; (628 <wcm_run+0x408>)
     39a:	4798      	blx	r3
     39c:	9002      	str	r0, [sp, #8]
     39e:	2800      	cmp	r0, #0
     3a0:	d09b      	beq.n	2da <wcm_run+0xba>
     3a2:	49a2      	ldr	r1, [pc, #648]	; (62c <wcm_run+0x40c>)
     3a4:	a820      	add	r0, sp, #128	; 0x80
     3a6:	4d97      	ldr	r5, [pc, #604]	; (604 <wcm_run+0x3e4>)
     3a8:	47a8      	blx	r5
     3aa:	4c8b      	ldr	r4, [pc, #556]	; (5d8 <wcm_run+0x3b8>)
     3ac:	2800      	cmp	r0, #0
     3ae:	d100      	bne.n	3b2 <wcm_run+0x192>
     3b0:	e28f      	b.n	8d2 <wcm_run+0x6b2>
     3b2:	a808      	add	r0, sp, #32
     3b4:	4b96      	ldr	r3, [pc, #600]	; (610 <wcm_run+0x3f0>)
     3b6:	4798      	blx	r3
     3b8:	2800      	cmp	r0, #0
     3ba:	d000      	beq.n	3be <wcm_run+0x19e>
     3bc:	e27b      	b.n	8b6 <wcm_run+0x696>
     3be:	4b95      	ldr	r3, [pc, #596]	; (614 <wcm_run+0x3f4>)
     3c0:	9808      	ldr	r0, [sp, #32]
     3c2:	4798      	blx	r3
     3c4:	0002      	movs	r2, r0
     3c6:	000b      	movs	r3, r1
     3c8:	4999      	ldr	r1, [pc, #612]	; (630 <wcm_run+0x410>)
     3ca:	4d93      	ldr	r5, [pc, #588]	; (618 <wcm_run+0x3f8>)
     3cc:	a830      	add	r0, sp, #192	; 0xc0
     3ce:	47a8      	blx	r5
     3d0:	a830      	add	r0, sp, #192	; 0xc0
     3d2:	e271      	b.n	8b8 <wcm_run+0x698>
     3d4:	4897      	ldr	r0, [pc, #604]	; (634 <wcm_run+0x414>)
     3d6:	e7a1      	b.n	31c <wcm_run+0xfc>
     3d8:	4897      	ldr	r0, [pc, #604]	; (638 <wcm_run+0x418>)
     3da:	4b7f      	ldr	r3, [pc, #508]	; (5d8 <wcm_run+0x3b8>)
     3dc:	4798      	blx	r3
     3de:	e7c7      	b.n	370 <wcm_run+0x150>
     3e0:	4996      	ldr	r1, [pc, #600]	; (63c <wcm_run+0x41c>)
     3e2:	0020      	movs	r0, r4
     3e4:	47b0      	blx	r6
     3e6:	2800      	cmp	r0, #0
     3e8:	d017      	beq.n	41a <wcm_run+0x1fa>
     3ea:	0021      	movs	r1, r4
     3ec:	4887      	ldr	r0, [pc, #540]	; (60c <wcm_run+0x3ec>)
     3ee:	4b86      	ldr	r3, [pc, #536]	; (608 <wcm_run+0x3e8>)
     3f0:	4798      	blx	r3
     3f2:	4b93      	ldr	r3, [pc, #588]	; (640 <wcm_run+0x420>)
     3f4:	4798      	blx	r3
     3f6:	2805      	cmp	r0, #5
     3f8:	d0fb      	beq.n	3f2 <wcm_run+0x1d2>
     3fa:	2800      	cmp	r0, #0
     3fc:	d1b8      	bne.n	370 <wcm_run+0x150>
     3fe:	2140      	movs	r1, #64	; 0x40
     400:	0020      	movs	r0, r4
     402:	4b90      	ldr	r3, [pc, #576]	; (644 <wcm_run+0x424>)
     404:	4798      	blx	r3
     406:	2800      	cmp	r0, #0
     408:	d0b2      	beq.n	370 <wcm_run+0x150>
     40a:	0022      	movs	r2, r4
     40c:	2140      	movs	r1, #64	; 0x40
     40e:	a80e      	add	r0, sp, #56	; 0x38
     410:	4b81      	ldr	r3, [pc, #516]	; (618 <wcm_run+0x3f8>)
     412:	4798      	blx	r3
     414:	2201      	movs	r2, #1
     416:	4b8c      	ldr	r3, [pc, #560]	; (648 <wcm_run+0x428>)
     418:	e011      	b.n	43e <wcm_run+0x21e>
     41a:	498c      	ldr	r1, [pc, #560]	; (64c <wcm_run+0x42c>)
     41c:	0020      	movs	r0, r4
     41e:	47b0      	blx	r6
     420:	2800      	cmp	r0, #0
     422:	d00e      	beq.n	442 <wcm_run+0x222>
     424:	0021      	movs	r1, r4
     426:	4b78      	ldr	r3, [pc, #480]	; (608 <wcm_run+0x3e8>)
     428:	4878      	ldr	r0, [pc, #480]	; (60c <wcm_run+0x3ec>)
     42a:	4798      	blx	r3
     42c:	4888      	ldr	r0, [pc, #544]	; (650 <wcm_run+0x430>)
     42e:	4b6a      	ldr	r3, [pc, #424]	; (5d8 <wcm_run+0x3b8>)
     430:	4798      	blx	r3
     432:	4b88      	ldr	r3, [pc, #544]	; (654 <wcm_run+0x434>)
     434:	495d      	ldr	r1, [pc, #372]	; (5ac <wcm_run+0x38c>)
     436:	485f      	ldr	r0, [pc, #380]	; (5b4 <wcm_run+0x394>)
     438:	4798      	blx	r3
     43a:	2201      	movs	r2, #1
     43c:	4b69      	ldr	r3, [pc, #420]	; (5e4 <wcm_run+0x3c4>)
     43e:	701a      	strb	r2, [r3, #0]
     440:	e796      	b.n	370 <wcm_run+0x150>
     442:	4985      	ldr	r1, [pc, #532]	; (658 <wcm_run+0x438>)
     444:	0020      	movs	r0, r4
     446:	47b0      	blx	r6
     448:	2800      	cmp	r0, #0
     44a:	d017      	beq.n	47c <wcm_run+0x25c>
     44c:	0021      	movs	r1, r4
     44e:	4b6e      	ldr	r3, [pc, #440]	; (608 <wcm_run+0x3e8>)
     450:	486e      	ldr	r0, [pc, #440]	; (60c <wcm_run+0x3ec>)
     452:	4798      	blx	r3
     454:	4b81      	ldr	r3, [pc, #516]	; (65c <wcm_run+0x43c>)
     456:	aa08      	add	r2, sp, #32
     458:	a930      	add	r1, sp, #192	; 0xc0
     45a:	a806      	add	r0, sp, #24
     45c:	4d80      	ldr	r5, [pc, #512]	; (660 <wcm_run+0x440>)
     45e:	47a8      	blx	r5
     460:	2800      	cmp	r0, #0
     462:	d109      	bne.n	478 <wcm_run+0x258>
     464:	9a30      	ldr	r2, [sp, #192]	; 0xc0
     466:	9b31      	ldr	r3, [sp, #196]	; 0xc4
     468:	496c      	ldr	r1, [pc, #432]	; (61c <wcm_run+0x3fc>)
     46a:	9200      	str	r2, [sp, #0]
     46c:	9301      	str	r3, [sp, #4]
     46e:	a80e      	add	r0, sp, #56	; 0x38
     470:	2208      	movs	r2, #8
     472:	4b69      	ldr	r3, [pc, #420]	; (618 <wcm_run+0x3f8>)
     474:	4798      	blx	r3
     476:	e7cd      	b.n	414 <wcm_run+0x1f4>
     478:	487a      	ldr	r0, [pc, #488]	; (664 <wcm_run+0x444>)
     47a:	e7ae      	b.n	3da <wcm_run+0x1ba>
     47c:	497a      	ldr	r1, [pc, #488]	; (668 <wcm_run+0x448>)
     47e:	0020      	movs	r0, r4
     480:	47b0      	blx	r6
     482:	2800      	cmp	r0, #0
     484:	d00a      	beq.n	49c <wcm_run+0x27c>
     486:	4b60      	ldr	r3, [pc, #384]	; (608 <wcm_run+0x3e8>)
     488:	0021      	movs	r1, r4
     48a:	4860      	ldr	r0, [pc, #384]	; (60c <wcm_run+0x3ec>)
     48c:	4798      	blx	r3
     48e:	a830      	add	r0, sp, #192	; 0xc0
     490:	4b76      	ldr	r3, [pc, #472]	; (66c <wcm_run+0x44c>)
     492:	4798      	blx	r3
     494:	2800      	cmp	r0, #0
     496:	d0e5      	beq.n	464 <wcm_run+0x244>
     498:	4875      	ldr	r0, [pc, #468]	; (670 <wcm_run+0x450>)
     49a:	e79e      	b.n	3da <wcm_run+0x1ba>
     49c:	4975      	ldr	r1, [pc, #468]	; (674 <wcm_run+0x454>)
     49e:	0020      	movs	r0, r4
     4a0:	47b0      	blx	r6
     4a2:	2800      	cmp	r0, #0
     4a4:	d00a      	beq.n	4bc <wcm_run+0x29c>
     4a6:	4b58      	ldr	r3, [pc, #352]	; (608 <wcm_run+0x3e8>)
     4a8:	0021      	movs	r1, r4
     4aa:	4858      	ldr	r0, [pc, #352]	; (60c <wcm_run+0x3ec>)
     4ac:	4798      	blx	r3
     4ae:	4b72      	ldr	r3, [pc, #456]	; (678 <wcm_run+0x458>)
     4b0:	4798      	blx	r3
     4b2:	2800      	cmp	r0, #0
     4b4:	d100      	bne.n	4b8 <wcm_run+0x298>
     4b6:	e75b      	b.n	370 <wcm_run+0x150>
     4b8:	4870      	ldr	r0, [pc, #448]	; (67c <wcm_run+0x45c>)
     4ba:	e78e      	b.n	3da <wcm_run+0x1ba>
     4bc:	4970      	ldr	r1, [pc, #448]	; (680 <wcm_run+0x460>)
     4be:	0020      	movs	r0, r4
     4c0:	47b0      	blx	r6
     4c2:	2800      	cmp	r0, #0
     4c4:	d00a      	beq.n	4dc <wcm_run+0x2bc>
     4c6:	4b50      	ldr	r3, [pc, #320]	; (608 <wcm_run+0x3e8>)
     4c8:	0021      	movs	r1, r4
     4ca:	4850      	ldr	r0, [pc, #320]	; (60c <wcm_run+0x3ec>)
     4cc:	4798      	blx	r3
     4ce:	4b6d      	ldr	r3, [pc, #436]	; (684 <wcm_run+0x464>)
     4d0:	4798      	blx	r3
     4d2:	2800      	cmp	r0, #0
     4d4:	d100      	bne.n	4d8 <wcm_run+0x2b8>
     4d6:	e74b      	b.n	370 <wcm_run+0x150>
     4d8:	486b      	ldr	r0, [pc, #428]	; (688 <wcm_run+0x468>)
     4da:	e77e      	b.n	3da <wcm_run+0x1ba>
     4dc:	4f6b      	ldr	r7, [pc, #428]	; (68c <wcm_run+0x46c>)
     4de:	0020      	movs	r0, r4
     4e0:	0039      	movs	r1, r7
     4e2:	47b0      	blx	r6
     4e4:	2800      	cmp	r0, #0
     4e6:	d025      	beq.n	534 <wcm_run+0x314>
     4e8:	0021      	movs	r1, r4
     4ea:	4b47      	ldr	r3, [pc, #284]	; (608 <wcm_run+0x3e8>)
     4ec:	4847      	ldr	r0, [pc, #284]	; (60c <wcm_run+0x3ec>)
     4ee:	4798      	blx	r3
     4f0:	4b67      	ldr	r3, [pc, #412]	; (690 <wcm_run+0x470>)
     4f2:	4798      	blx	r3
     4f4:	4b67      	ldr	r3, [pc, #412]	; (694 <wcm_run+0x474>)
     4f6:	0005      	movs	r5, r0
     4f8:	4798      	blx	r3
     4fa:	4b67      	ldr	r3, [pc, #412]	; (698 <wcm_run+0x478>)
     4fc:	7018      	strb	r0, [r3, #0]
     4fe:	4b67      	ldr	r3, [pc, #412]	; (69c <wcm_run+0x47c>)
     500:	4798      	blx	r3
     502:	4b67      	ldr	r3, [pc, #412]	; (6a0 <wcm_run+0x480>)
     504:	7018      	strb	r0, [r3, #0]
     506:	4b67      	ldr	r3, [pc, #412]	; (6a4 <wcm_run+0x484>)
     508:	4798      	blx	r3
     50a:	4b67      	ldr	r3, [pc, #412]	; (6a8 <wcm_run+0x488>)
     50c:	7018      	strb	r0, [r3, #0]
     50e:	4b67      	ldr	r3, [pc, #412]	; (6ac <wcm_run+0x48c>)
     510:	4798      	blx	r3
     512:	4b67      	ldr	r3, [pc, #412]	; (6b0 <wcm_run+0x490>)
     514:	7018      	strb	r0, [r3, #0]
     516:	4b67      	ldr	r3, [pc, #412]	; (6b4 <wcm_run+0x494>)
     518:	4798      	blx	r3
     51a:	4b67      	ldr	r3, [pc, #412]	; (6b8 <wcm_run+0x498>)
     51c:	7018      	strb	r0, [r3, #0]
     51e:	4b67      	ldr	r3, [pc, #412]	; (6bc <wcm_run+0x49c>)
     520:	4798      	blx	r3
     522:	4b67      	ldr	r3, [pc, #412]	; (6c0 <wcm_run+0x4a0>)
     524:	2208      	movs	r2, #8
     526:	7018      	strb	r0, [r3, #0]
     528:	4966      	ldr	r1, [pc, #408]	; (6c4 <wcm_run+0x4a4>)
     52a:	002b      	movs	r3, r5
     52c:	a80e      	add	r0, sp, #56	; 0x38
     52e:	4d3a      	ldr	r5, [pc, #232]	; (618 <wcm_run+0x3f8>)
     530:	47a8      	blx	r5
     532:	e76f      	b.n	414 <wcm_run+0x1f4>
     534:	4964      	ldr	r1, [pc, #400]	; (6c8 <wcm_run+0x4a8>)
     536:	0020      	movs	r0, r4
     538:	47b0      	blx	r6
     53a:	2800      	cmp	r0, #0
     53c:	d100      	bne.n	540 <wcm_run+0x320>
     53e:	e717      	b.n	370 <wcm_run+0x150>
     540:	4e32      	ldr	r6, [pc, #200]	; (60c <wcm_run+0x3ec>)
     542:	0029      	movs	r1, r5
     544:	0030      	movs	r0, r6
     546:	4d2f      	ldr	r5, [pc, #188]	; (604 <wcm_run+0x3e4>)
     548:	47a8      	blx	r5
     54a:	2800      	cmp	r0, #0
     54c:	d004      	beq.n	558 <wcm_run+0x338>
     54e:	495f      	ldr	r1, [pc, #380]	; (6cc <wcm_run+0x4ac>)
     550:	a80e      	add	r0, sp, #56	; 0x38
     552:	4b2d      	ldr	r3, [pc, #180]	; (608 <wcm_run+0x3e8>)
     554:	4798      	blx	r3
     556:	e70b      	b.n	370 <wcm_run+0x150>
     558:	493f      	ldr	r1, [pc, #252]	; (658 <wcm_run+0x438>)
     55a:	0030      	movs	r0, r6
     55c:	47a8      	blx	r5
     55e:	2800      	cmp	r0, #0
     560:	d010      	beq.n	584 <wcm_run+0x364>
     562:	4d39      	ldr	r5, [pc, #228]	; (648 <wcm_run+0x428>)
     564:	782b      	ldrb	r3, [r5, #0]
     566:	2b01      	cmp	r3, #1
     568:	d1f1      	bne.n	54e <wcm_run+0x32e>
     56a:	4b3c      	ldr	r3, [pc, #240]	; (65c <wcm_run+0x43c>)
     56c:	492b      	ldr	r1, [pc, #172]	; (61c <wcm_run+0x3fc>)
     56e:	681a      	ldr	r2, [r3, #0]
     570:	685b      	ldr	r3, [r3, #4]
     572:	a80e      	add	r0, sp, #56	; 0x38
     574:	9200      	str	r2, [sp, #0]
     576:	9301      	str	r3, [sp, #4]
     578:	2208      	movs	r2, #8
     57a:	4b27      	ldr	r3, [pc, #156]	; (618 <wcm_run+0x3f8>)
     57c:	4798      	blx	r3
     57e:	2302      	movs	r3, #2
     580:	702b      	strb	r3, [r5, #0]
     582:	e6f5      	b.n	370 <wcm_run+0x150>
     584:	0039      	movs	r1, r7
     586:	0030      	movs	r0, r6
     588:	47a8      	blx	r5
     58a:	1e07      	subs	r7, r0, #0
     58c:	d100      	bne.n	590 <wcm_run+0x370>
     58e:	e0d7      	b.n	740 <wcm_run+0x520>
     590:	4d2d      	ldr	r5, [pc, #180]	; (648 <wcm_run+0x428>)
     592:	782b      	ldrb	r3, [r5, #0]
     594:	2b01      	cmp	r3, #1
     596:	d000      	beq.n	59a <wcm_run+0x37a>
     598:	e09a      	b.n	6d0 <wcm_run+0x4b0>
     59a:	4b3f      	ldr	r3, [pc, #252]	; (698 <wcm_run+0x478>)
     59c:	2208      	movs	r2, #8
     59e:	781b      	ldrb	r3, [r3, #0]
     5a0:	4948      	ldr	r1, [pc, #288]	; (6c4 <wcm_run+0x4a4>)
     5a2:	a80e      	add	r0, sp, #56	; 0x38
     5a4:	4e1c      	ldr	r6, [pc, #112]	; (618 <wcm_run+0x3f8>)
     5a6:	47b0      	blx	r6
     5a8:	e7e9      	b.n	57e <wcm_run+0x35e>
     5aa:	46c0      	nop			; (mov r8, r8)
     5ac:	fffaa22c 	.word	0xfffaa22c
     5b0:	42002000 	.word	0x42002000
     5b4:	20000c68 	.word	0x20000c68
     5b8:	000030bd 	.word	0x000030bd
     5bc:	00000115 	.word	0x00000115
     5c0:	00003371 	.word	0x00003371
     5c4:	00003085 	.word	0x00003085
     5c8:	0000c482 	.word	0x0000c482
     5cc:	000079ad 	.word	0x000079ad
     5d0:	e000e100 	.word	0xe000e100
     5d4:	0000c485 	.word	0x0000c485
     5d8:	00002299 	.word	0x00002299
     5dc:	000024a9 	.word	0x000024a9
     5e0:	200009dc 	.word	0x200009dc
     5e4:	20000a02 	.word	0x20000a02
     5e8:	000012a1 	.word	0x000012a1
     5ec:	000020c1 	.word	0x000020c1
     5f0:	000021b1 	.word	0x000021b1
     5f4:	0000c498 	.word	0x0000c498
     5f8:	000021d5 	.word	0x000021d5
     5fc:	0000407d 	.word	0x0000407d
     600:	0000c4dd 	.word	0x0000c4dd
     604:	00007dbd 	.word	0x00007dbd
     608:	00007a85 	.word	0x00007a85
     60c:	200009e0 	.word	0x200009e0
     610:	00000f61 	.word	0x00000f61
     614:	000076d5 	.word	0x000076d5
     618:	00007a41 	.word	0x00007a41
     61c:	0000c4e2 	.word	0x0000c4e2
     620:	0000c705 	.word	0x0000c705
     624:	0000225d 	.word	0x0000225d
     628:	000024c9 	.word	0x000024c9
     62c:	0000c72f 	.word	0x0000c72f
     630:	0000c739 	.word	0x0000c739
     634:	0000c4b3 	.word	0x0000c4b3
     638:	0000c4e8 	.word	0x0000c4e8
     63c:	0000c51c 	.word	0x0000c51c
     640:	00002271 	.word	0x00002271
     644:	00002579 	.word	0x00002579
     648:	20000a00 	.word	0x20000a00
     64c:	0000c525 	.word	0x0000c525
     650:	0000c52e 	.word	0x0000c52e
     654:	00003325 	.word	0x00003325
     658:	0000c546 	.word	0x0000c546
     65c:	200009f8 	.word	0x200009f8
     660:	00001d3d 	.word	0x00001d3d
     664:	0000c54d 	.word	0x0000c54d
     668:	0000c57a 	.word	0x0000c57a
     66c:	000019ed 	.word	0x000019ed
     670:	0000c586 	.word	0x0000c586
     674:	0000c5af 	.word	0x0000c5af
     678:	00001b8d 	.word	0x00001b8d
     67c:	0000c5c0 	.word	0x0000c5c0
     680:	0000c5ee 	.word	0x0000c5ee
     684:	00001c21 	.word	0x00001c21
     688:	0000c5fa 	.word	0x0000c5fa
     68c:	0000c623 	.word	0x0000c623
     690:	000012c5 	.word	0x000012c5
     694:	00001301 	.word	0x00001301
     698:	200009df 	.word	0x200009df
     69c:	00001379 	.word	0x00001379
     6a0:	200009dd 	.word	0x200009dd
     6a4:	000013d9 	.word	0x000013d9
     6a8:	200009f0 	.word	0x200009f0
     6ac:	00001351 	.word	0x00001351
     6b0:	20000a01 	.word	0x20000a01
     6b4:	000013a9 	.word	0x000013a9
     6b8:	20000a03 	.word	0x20000a03
     6bc:	00001329 	.word	0x00001329
     6c0:	200009de 	.word	0x200009de
     6c4:	0000c629 	.word	0x0000c629
     6c8:	0000c62d 	.word	0x0000c62d
     6cc:	0000c632 	.word	0x0000c632
     6d0:	2b02      	cmp	r3, #2
     6d2:	d108      	bne.n	6e6 <wcm_run+0x4c6>
     6d4:	4bcb      	ldr	r3, [pc, #812]	; (a04 <wcm_run+0x7e4>)
     6d6:	2208      	movs	r2, #8
     6d8:	781b      	ldrb	r3, [r3, #0]
     6da:	49cb      	ldr	r1, [pc, #812]	; (a08 <wcm_run+0x7e8>)
     6dc:	a80e      	add	r0, sp, #56	; 0x38
     6de:	4ecb      	ldr	r6, [pc, #812]	; (a0c <wcm_run+0x7ec>)
     6e0:	47b0      	blx	r6
     6e2:	2303      	movs	r3, #3
     6e4:	e74c      	b.n	580 <wcm_run+0x360>
     6e6:	2b03      	cmp	r3, #3
     6e8:	d108      	bne.n	6fc <wcm_run+0x4dc>
     6ea:	4bc9      	ldr	r3, [pc, #804]	; (a10 <wcm_run+0x7f0>)
     6ec:	2208      	movs	r2, #8
     6ee:	781b      	ldrb	r3, [r3, #0]
     6f0:	49c5      	ldr	r1, [pc, #788]	; (a08 <wcm_run+0x7e8>)
     6f2:	a80e      	add	r0, sp, #56	; 0x38
     6f4:	4ec5      	ldr	r6, [pc, #788]	; (a0c <wcm_run+0x7ec>)
     6f6:	47b0      	blx	r6
     6f8:	2304      	movs	r3, #4
     6fa:	e741      	b.n	580 <wcm_run+0x360>
     6fc:	2b04      	cmp	r3, #4
     6fe:	d108      	bne.n	712 <wcm_run+0x4f2>
     700:	4bc4      	ldr	r3, [pc, #784]	; (a14 <wcm_run+0x7f4>)
     702:	2208      	movs	r2, #8
     704:	781b      	ldrb	r3, [r3, #0]
     706:	49c0      	ldr	r1, [pc, #768]	; (a08 <wcm_run+0x7e8>)
     708:	a80e      	add	r0, sp, #56	; 0x38
     70a:	4ec0      	ldr	r6, [pc, #768]	; (a0c <wcm_run+0x7ec>)
     70c:	47b0      	blx	r6
     70e:	2305      	movs	r3, #5
     710:	e736      	b.n	580 <wcm_run+0x360>
     712:	2b05      	cmp	r3, #5
     714:	d108      	bne.n	728 <wcm_run+0x508>
     716:	4bc0      	ldr	r3, [pc, #768]	; (a18 <wcm_run+0x7f8>)
     718:	2208      	movs	r2, #8
     71a:	781b      	ldrb	r3, [r3, #0]
     71c:	49ba      	ldr	r1, [pc, #744]	; (a08 <wcm_run+0x7e8>)
     71e:	a80e      	add	r0, sp, #56	; 0x38
     720:	4eba      	ldr	r6, [pc, #744]	; (a0c <wcm_run+0x7ec>)
     722:	47b0      	blx	r6
     724:	2306      	movs	r3, #6
     726:	e72b      	b.n	580 <wcm_run+0x360>
     728:	2b06      	cmp	r3, #6
     72a:	d000      	beq.n	72e <wcm_run+0x50e>
     72c:	e70f      	b.n	54e <wcm_run+0x32e>
     72e:	4bbb      	ldr	r3, [pc, #748]	; (a1c <wcm_run+0x7fc>)
     730:	2208      	movs	r2, #8
     732:	781b      	ldrb	r3, [r3, #0]
     734:	49b4      	ldr	r1, [pc, #720]	; (a08 <wcm_run+0x7e8>)
     736:	a80e      	add	r0, sp, #56	; 0x38
     738:	4eb4      	ldr	r6, [pc, #720]	; (a0c <wcm_run+0x7ec>)
     73a:	47b0      	blx	r6
     73c:	2307      	movs	r3, #7
     73e:	e71f      	b.n	580 <wcm_run+0x360>
     740:	49b7      	ldr	r1, [pc, #732]	; (a20 <wcm_run+0x800>)
     742:	0020      	movs	r0, r4
     744:	47a8      	blx	r5
     746:	1e06      	subs	r6, r0, #0
     748:	d015      	beq.n	776 <wcm_run+0x556>
     74a:	4eb6      	ldr	r6, [pc, #728]	; (a24 <wcm_run+0x804>)
     74c:	4db6      	ldr	r5, [pc, #728]	; (a28 <wcm_run+0x808>)
     74e:	0031      	movs	r1, r6
     750:	0020      	movs	r0, r4
     752:	47a8      	blx	r5
     754:	0031      	movs	r1, r6
     756:	0038      	movs	r0, r7
     758:	47a8      	blx	r5
     75a:	4bb4      	ldr	r3, [pc, #720]	; (a2c <wcm_run+0x80c>)
     75c:	4798      	blx	r3
     75e:	4bab      	ldr	r3, [pc, #684]	; (a0c <wcm_run+0x7ec>)
     760:	0002      	movs	r2, r0
     762:	0005      	movs	r5, r0
     764:	49b2      	ldr	r1, [pc, #712]	; (a30 <wcm_run+0x810>)
     766:	0020      	movs	r0, r4
     768:	4798      	blx	r3
     76a:	4bb2      	ldr	r3, [pc, #712]	; (a34 <wcm_run+0x814>)
     76c:	2d00      	cmp	r5, #0
     76e:	d000      	beq.n	772 <wcm_run+0x552>
     770:	4bb1      	ldr	r3, [pc, #708]	; (a38 <wcm_run+0x818>)
     772:	4798      	blx	r3
     774:	e5fc      	b.n	370 <wcm_run+0x150>
     776:	49b1      	ldr	r1, [pc, #708]	; (a3c <wcm_run+0x81c>)
     778:	0020      	movs	r0, r4
     77a:	47a8      	blx	r5
     77c:	1e07      	subs	r7, r0, #0
     77e:	d014      	beq.n	7aa <wcm_run+0x58a>
     780:	4fa8      	ldr	r7, [pc, #672]	; (a24 <wcm_run+0x804>)
     782:	4da9      	ldr	r5, [pc, #676]	; (a28 <wcm_run+0x808>)
     784:	0039      	movs	r1, r7
     786:	0020      	movs	r0, r4
     788:	47a8      	blx	r5
     78a:	0039      	movs	r1, r7
     78c:	0030      	movs	r0, r6
     78e:	47a8      	blx	r5
     790:	4ba6      	ldr	r3, [pc, #664]	; (a2c <wcm_run+0x80c>)
     792:	4798      	blx	r3
     794:	4b9d      	ldr	r3, [pc, #628]	; (a0c <wcm_run+0x7ec>)
     796:	0002      	movs	r2, r0
     798:	0005      	movs	r5, r0
     79a:	49a9      	ldr	r1, [pc, #676]	; (a40 <wcm_run+0x820>)
     79c:	0020      	movs	r0, r4
     79e:	4798      	blx	r3
     7a0:	4ba8      	ldr	r3, [pc, #672]	; (a44 <wcm_run+0x824>)
     7a2:	2d00      	cmp	r5, #0
     7a4:	d0e5      	beq.n	772 <wcm_run+0x552>
     7a6:	4ba8      	ldr	r3, [pc, #672]	; (a48 <wcm_run+0x828>)
     7a8:	e7e3      	b.n	772 <wcm_run+0x552>
     7aa:	49a8      	ldr	r1, [pc, #672]	; (a4c <wcm_run+0x82c>)
     7ac:	0020      	movs	r0, r4
     7ae:	47a8      	blx	r5
     7b0:	1e06      	subs	r6, r0, #0
     7b2:	d014      	beq.n	7de <wcm_run+0x5be>
     7b4:	4e9b      	ldr	r6, [pc, #620]	; (a24 <wcm_run+0x804>)
     7b6:	4d9c      	ldr	r5, [pc, #624]	; (a28 <wcm_run+0x808>)
     7b8:	0031      	movs	r1, r6
     7ba:	0020      	movs	r0, r4
     7bc:	47a8      	blx	r5
     7be:	0031      	movs	r1, r6
     7c0:	0038      	movs	r0, r7
     7c2:	47a8      	blx	r5
     7c4:	4b99      	ldr	r3, [pc, #612]	; (a2c <wcm_run+0x80c>)
     7c6:	4798      	blx	r3
     7c8:	4b90      	ldr	r3, [pc, #576]	; (a0c <wcm_run+0x7ec>)
     7ca:	0002      	movs	r2, r0
     7cc:	0005      	movs	r5, r0
     7ce:	49a0      	ldr	r1, [pc, #640]	; (a50 <wcm_run+0x830>)
     7d0:	0020      	movs	r0, r4
     7d2:	4798      	blx	r3
     7d4:	4b9f      	ldr	r3, [pc, #636]	; (a54 <wcm_run+0x834>)
     7d6:	2d00      	cmp	r5, #0
     7d8:	d0cb      	beq.n	772 <wcm_run+0x552>
     7da:	4b9f      	ldr	r3, [pc, #636]	; (a58 <wcm_run+0x838>)
     7dc:	e7c9      	b.n	772 <wcm_run+0x552>
     7de:	499f      	ldr	r1, [pc, #636]	; (a5c <wcm_run+0x83c>)
     7e0:	0020      	movs	r0, r4
     7e2:	47a8      	blx	r5
     7e4:	1e07      	subs	r7, r0, #0
     7e6:	d014      	beq.n	812 <wcm_run+0x5f2>
     7e8:	4f8e      	ldr	r7, [pc, #568]	; (a24 <wcm_run+0x804>)
     7ea:	4d8f      	ldr	r5, [pc, #572]	; (a28 <wcm_run+0x808>)
     7ec:	0039      	movs	r1, r7
     7ee:	0020      	movs	r0, r4
     7f0:	47a8      	blx	r5
     7f2:	0039      	movs	r1, r7
     7f4:	0030      	movs	r0, r6
     7f6:	47a8      	blx	r5
     7f8:	4b8c      	ldr	r3, [pc, #560]	; (a2c <wcm_run+0x80c>)
     7fa:	4798      	blx	r3
     7fc:	4b83      	ldr	r3, [pc, #524]	; (a0c <wcm_run+0x7ec>)
     7fe:	0002      	movs	r2, r0
     800:	0005      	movs	r5, r0
     802:	4997      	ldr	r1, [pc, #604]	; (a60 <wcm_run+0x840>)
     804:	0020      	movs	r0, r4
     806:	4798      	blx	r3
     808:	4b96      	ldr	r3, [pc, #600]	; (a64 <wcm_run+0x844>)
     80a:	2d00      	cmp	r5, #0
     80c:	d0b1      	beq.n	772 <wcm_run+0x552>
     80e:	4b96      	ldr	r3, [pc, #600]	; (a68 <wcm_run+0x848>)
     810:	e7af      	b.n	772 <wcm_run+0x552>
     812:	4996      	ldr	r1, [pc, #600]	; (a6c <wcm_run+0x84c>)
     814:	0020      	movs	r0, r4
     816:	47a8      	blx	r5
     818:	1e06      	subs	r6, r0, #0
     81a:	d014      	beq.n	846 <wcm_run+0x626>
     81c:	4e81      	ldr	r6, [pc, #516]	; (a24 <wcm_run+0x804>)
     81e:	4d82      	ldr	r5, [pc, #520]	; (a28 <wcm_run+0x808>)
     820:	0031      	movs	r1, r6
     822:	0020      	movs	r0, r4
     824:	47a8      	blx	r5
     826:	0031      	movs	r1, r6
     828:	0038      	movs	r0, r7
     82a:	47a8      	blx	r5
     82c:	4b7f      	ldr	r3, [pc, #508]	; (a2c <wcm_run+0x80c>)
     82e:	4798      	blx	r3
     830:	4b76      	ldr	r3, [pc, #472]	; (a0c <wcm_run+0x7ec>)
     832:	0002      	movs	r2, r0
     834:	0005      	movs	r5, r0
     836:	498e      	ldr	r1, [pc, #568]	; (a70 <wcm_run+0x850>)
     838:	0020      	movs	r0, r4
     83a:	4798      	blx	r3
     83c:	4b8d      	ldr	r3, [pc, #564]	; (a74 <wcm_run+0x854>)
     83e:	2d00      	cmp	r5, #0
     840:	d097      	beq.n	772 <wcm_run+0x552>
     842:	4b8d      	ldr	r3, [pc, #564]	; (a78 <wcm_run+0x858>)
     844:	e795      	b.n	772 <wcm_run+0x552>
     846:	498d      	ldr	r1, [pc, #564]	; (a7c <wcm_run+0x85c>)
     848:	0020      	movs	r0, r4
     84a:	47a8      	blx	r5
     84c:	2800      	cmp	r0, #0
     84e:	d015      	beq.n	87c <wcm_run+0x65c>
     850:	4f74      	ldr	r7, [pc, #464]	; (a24 <wcm_run+0x804>)
     852:	4d75      	ldr	r5, [pc, #468]	; (a28 <wcm_run+0x808>)
     854:	0039      	movs	r1, r7
     856:	0020      	movs	r0, r4
     858:	47a8      	blx	r5
     85a:	0039      	movs	r1, r7
     85c:	0030      	movs	r0, r6
     85e:	47a8      	blx	r5
     860:	4b72      	ldr	r3, [pc, #456]	; (a2c <wcm_run+0x80c>)
     862:	4798      	blx	r3
     864:	4b69      	ldr	r3, [pc, #420]	; (a0c <wcm_run+0x7ec>)
     866:	0002      	movs	r2, r0
     868:	0005      	movs	r5, r0
     86a:	4985      	ldr	r1, [pc, #532]	; (a80 <wcm_run+0x860>)
     86c:	0020      	movs	r0, r4
     86e:	4798      	blx	r3
     870:	4b84      	ldr	r3, [pc, #528]	; (a84 <wcm_run+0x864>)
     872:	2d00      	cmp	r5, #0
     874:	d000      	beq.n	878 <wcm_run+0x658>
     876:	e77c      	b.n	772 <wcm_run+0x552>
     878:	4b83      	ldr	r3, [pc, #524]	; (a88 <wcm_run+0x868>)
     87a:	e77a      	b.n	772 <wcm_run+0x552>
     87c:	4983      	ldr	r1, [pc, #524]	; (a8c <wcm_run+0x86c>)
     87e:	0020      	movs	r0, r4
     880:	47a8      	blx	r5
     882:	2800      	cmp	r0, #0
     884:	d015      	beq.n	8b2 <wcm_run+0x692>
     886:	4e67      	ldr	r6, [pc, #412]	; (a24 <wcm_run+0x804>)
     888:	4d67      	ldr	r5, [pc, #412]	; (a28 <wcm_run+0x808>)
     88a:	0031      	movs	r1, r6
     88c:	0020      	movs	r0, r4
     88e:	47a8      	blx	r5
     890:	0031      	movs	r1, r6
     892:	2000      	movs	r0, #0
     894:	47a8      	blx	r5
     896:	4b65      	ldr	r3, [pc, #404]	; (a2c <wcm_run+0x80c>)
     898:	4798      	blx	r3
     89a:	4b5c      	ldr	r3, [pc, #368]	; (a0c <wcm_run+0x7ec>)
     89c:	0002      	movs	r2, r0
     89e:	0005      	movs	r5, r0
     8a0:	497b      	ldr	r1, [pc, #492]	; (a90 <wcm_run+0x870>)
     8a2:	0020      	movs	r0, r4
     8a4:	4798      	blx	r3
     8a6:	4b7b      	ldr	r3, [pc, #492]	; (a94 <wcm_run+0x874>)
     8a8:	2d00      	cmp	r5, #0
     8aa:	d100      	bne.n	8ae <wcm_run+0x68e>
     8ac:	e761      	b.n	772 <wcm_run+0x552>
     8ae:	4b7a      	ldr	r3, [pc, #488]	; (a98 <wcm_run+0x878>)
     8b0:	e75f      	b.n	772 <wcm_run+0x552>
     8b2:	487a      	ldr	r0, [pc, #488]	; (a9c <wcm_run+0x87c>)
     8b4:	e591      	b.n	3da <wcm_run+0x1ba>
     8b6:	487a      	ldr	r0, [pc, #488]	; (aa0 <wcm_run+0x880>)
     8b8:	47a0      	blx	r4
     8ba:	a820      	add	r0, sp, #128	; 0x80
     8bc:	4c79      	ldr	r4, [pc, #484]	; (aa4 <wcm_run+0x884>)
     8be:	47a0      	blx	r4
     8c0:	4858      	ldr	r0, [pc, #352]	; (a24 <wcm_run+0x804>)
     8c2:	47a0      	blx	r4
     8c4:	9b02      	ldr	r3, [sp, #8]
     8c6:	4878      	ldr	r0, [pc, #480]	; (aa8 <wcm_run+0x888>)
     8c8:	2b00      	cmp	r3, #0
     8ca:	d100      	bne.n	8ce <wcm_run+0x6ae>
     8cc:	4877      	ldr	r0, [pc, #476]	; (aac <wcm_run+0x88c>)
     8ce:	47a0      	blx	r4
     8d0:	e503      	b.n	2da <wcm_run+0xba>
     8d2:	4977      	ldr	r1, [pc, #476]	; (ab0 <wcm_run+0x890>)
     8d4:	a820      	add	r0, sp, #128	; 0x80
     8d6:	47a8      	blx	r5
     8d8:	2800      	cmp	r0, #0
     8da:	d00d      	beq.n	8f8 <wcm_run+0x6d8>
     8dc:	a808      	add	r0, sp, #32
     8de:	4b75      	ldr	r3, [pc, #468]	; (ab4 <wcm_run+0x894>)
     8e0:	4798      	blx	r3
     8e2:	2800      	cmp	r0, #0
     8e4:	d106      	bne.n	8f4 <wcm_run+0x6d4>
     8e6:	4b74      	ldr	r3, [pc, #464]	; (ab8 <wcm_run+0x898>)
     8e8:	9808      	ldr	r0, [sp, #32]
     8ea:	4798      	blx	r3
     8ec:	000b      	movs	r3, r1
     8ee:	0002      	movs	r2, r0
     8f0:	4972      	ldr	r1, [pc, #456]	; (abc <wcm_run+0x89c>)
     8f2:	e56a      	b.n	3ca <wcm_run+0x1aa>
     8f4:	4872      	ldr	r0, [pc, #456]	; (ac0 <wcm_run+0x8a0>)
     8f6:	e7df      	b.n	8b8 <wcm_run+0x698>
     8f8:	4972      	ldr	r1, [pc, #456]	; (ac4 <wcm_run+0x8a4>)
     8fa:	a820      	add	r0, sp, #128	; 0x80
     8fc:	47a8      	blx	r5
     8fe:	4e49      	ldr	r6, [pc, #292]	; (a24 <wcm_run+0x804>)
     900:	2800      	cmp	r0, #0
     902:	d016      	beq.n	932 <wcm_run+0x712>
     904:	4b58      	ldr	r3, [pc, #352]	; (a68 <wcm_run+0x848>)
     906:	4798      	blx	r3
     908:	4b6f      	ldr	r3, [pc, #444]	; (ac8 <wcm_run+0x8a8>)
     90a:	4798      	blx	r3
     90c:	2800      	cmp	r0, #0
     90e:	d10b      	bne.n	928 <wcm_run+0x708>
     910:	2140      	movs	r1, #64	; 0x40
     912:	a830      	add	r0, sp, #192	; 0xc0
     914:	4b6d      	ldr	r3, [pc, #436]	; (acc <wcm_run+0x8ac>)
     916:	4798      	blx	r3
     918:	2800      	cmp	r0, #0
     91a:	d008      	beq.n	92e <wcm_run+0x70e>
     91c:	a830      	add	r0, sp, #192	; 0xc0
     91e:	47a0      	blx	r4
     920:	0030      	movs	r0, r6
     922:	47a0      	blx	r4
     924:	4860      	ldr	r0, [pc, #384]	; (aa8 <wcm_run+0x888>)
     926:	47a0      	blx	r4
     928:	4b4e      	ldr	r3, [pc, #312]	; (a64 <wcm_run+0x844>)
     92a:	4798      	blx	r3
     92c:	e7c5      	b.n	8ba <wcm_run+0x69a>
     92e:	485f      	ldr	r0, [pc, #380]	; (aac <wcm_run+0x88c>)
     930:	e7f9      	b.n	926 <wcm_run+0x706>
     932:	4967      	ldr	r1, [pc, #412]	; (ad0 <wcm_run+0x8b0>)
     934:	a820      	add	r0, sp, #128	; 0x80
     936:	47a8      	blx	r5
     938:	2800      	cmp	r0, #0
     93a:	d013      	beq.n	964 <wcm_run+0x744>
     93c:	4b65      	ldr	r3, [pc, #404]	; (ad4 <wcm_run+0x8b4>)
     93e:	4798      	blx	r3
     940:	2800      	cmp	r0, #0
     942:	d0ba      	beq.n	8ba <wcm_run+0x69a>
     944:	4b64      	ldr	r3, [pc, #400]	; (ad8 <wcm_run+0x8b8>)
     946:	4798      	blx	r3
     948:	2800      	cmp	r0, #0
     94a:	d1b6      	bne.n	8ba <wcm_run+0x69a>
     94c:	2140      	movs	r1, #64	; 0x40
     94e:	a820      	add	r0, sp, #128	; 0x80
     950:	4b62      	ldr	r3, [pc, #392]	; (adc <wcm_run+0x8bc>)
     952:	4798      	blx	r3
     954:	1e05      	subs	r5, r0, #0
     956:	d0b0      	beq.n	8ba <wcm_run+0x69a>
     958:	a820      	add	r0, sp, #128	; 0x80
     95a:	47a0      	blx	r4
     95c:	0030      	movs	r0, r6
     95e:	47a0      	blx	r4
     960:	9502      	str	r5, [sp, #8]
     962:	e7aa      	b.n	8ba <wcm_run+0x69a>
     964:	495e      	ldr	r1, [pc, #376]	; (ae0 <wcm_run+0x8c0>)
     966:	a820      	add	r0, sp, #128	; 0x80
     968:	47a8      	blx	r5
     96a:	2800      	cmp	r0, #0
     96c:	d009      	beq.n	982 <wcm_run+0x762>
     96e:	485d      	ldr	r0, [pc, #372]	; (ae4 <wcm_run+0x8c4>)
     970:	47a0      	blx	r4
     972:	4b5d      	ldr	r3, [pc, #372]	; (ae8 <wcm_run+0x8c8>)
     974:	495d      	ldr	r1, [pc, #372]	; (aec <wcm_run+0x8cc>)
     976:	485e      	ldr	r0, [pc, #376]	; (af0 <wcm_run+0x8d0>)
     978:	4798      	blx	r3
     97a:	2201      	movs	r2, #1
     97c:	4b5d      	ldr	r3, [pc, #372]	; (af4 <wcm_run+0x8d4>)
     97e:	701a      	strb	r2, [r3, #0]
     980:	e79b      	b.n	8ba <wcm_run+0x69a>
     982:	495d      	ldr	r1, [pc, #372]	; (af8 <wcm_run+0x8d8>)
     984:	a820      	add	r0, sp, #128	; 0x80
     986:	47a8      	blx	r5
     988:	2800      	cmp	r0, #0
     98a:	d022      	beq.n	9d2 <wcm_run+0x7b2>
     98c:	ab06      	add	r3, sp, #24
     98e:	aa05      	add	r2, sp, #20
     990:	a908      	add	r1, sp, #32
     992:	a804      	add	r0, sp, #16
     994:	4d59      	ldr	r5, [pc, #356]	; (afc <wcm_run+0x8dc>)
     996:	47a8      	blx	r5
     998:	2800      	cmp	r0, #0
     99a:	d118      	bne.n	9ce <wcm_run+0x7ae>
     99c:	9a04      	ldr	r2, [sp, #16]
     99e:	4958      	ldr	r1, [pc, #352]	; (b00 <wcm_run+0x8e0>)
     9a0:	4d1a      	ldr	r5, [pc, #104]	; (a0c <wcm_run+0x7ec>)
     9a2:	a830      	add	r0, sp, #192	; 0xc0
     9a4:	47a8      	blx	r5
     9a6:	a830      	add	r0, sp, #192	; 0xc0
     9a8:	47a0      	blx	r4
     9aa:	9a05      	ldr	r2, [sp, #20]
     9ac:	4955      	ldr	r1, [pc, #340]	; (b04 <wcm_run+0x8e4>)
     9ae:	a830      	add	r0, sp, #192	; 0xc0
     9b0:	47a8      	blx	r5
     9b2:	a830      	add	r0, sp, #192	; 0xc0
     9b4:	47a0      	blx	r4
     9b6:	9a08      	ldr	r2, [sp, #32]
     9b8:	9b09      	ldr	r3, [sp, #36]	; 0x24
     9ba:	4953      	ldr	r1, [pc, #332]	; (b08 <wcm_run+0x8e8>)
     9bc:	a830      	add	r0, sp, #192	; 0xc0
     9be:	47a8      	blx	r5
     9c0:	a830      	add	r0, sp, #192	; 0xc0
     9c2:	47a0      	blx	r4
     9c4:	9a06      	ldr	r2, [sp, #24]
     9c6:	9b07      	ldr	r3, [sp, #28]
     9c8:	4950      	ldr	r1, [pc, #320]	; (b0c <wcm_run+0x8ec>)
     9ca:	a830      	add	r0, sp, #192	; 0xc0
     9cc:	e4ff      	b.n	3ce <wcm_run+0x1ae>
     9ce:	4850      	ldr	r0, [pc, #320]	; (b10 <wcm_run+0x8f0>)
     9d0:	e772      	b.n	8b8 <wcm_run+0x698>
     9d2:	4950      	ldr	r1, [pc, #320]	; (b14 <wcm_run+0x8f4>)
     9d4:	a820      	add	r0, sp, #128	; 0x80
     9d6:	47a8      	blx	r5
     9d8:	2800      	cmp	r0, #0
     9da:	d006      	beq.n	9ea <wcm_run+0x7ca>
     9dc:	4b4e      	ldr	r3, [pc, #312]	; (b18 <wcm_run+0x8f8>)
     9de:	4798      	blx	r3
     9e0:	2800      	cmp	r0, #0
     9e2:	d100      	bne.n	9e6 <wcm_run+0x7c6>
     9e4:	e769      	b.n	8ba <wcm_run+0x69a>
     9e6:	484d      	ldr	r0, [pc, #308]	; (b1c <wcm_run+0x8fc>)
     9e8:	e766      	b.n	8b8 <wcm_run+0x698>
     9ea:	494d      	ldr	r1, [pc, #308]	; (b20 <wcm_run+0x900>)
     9ec:	a820      	add	r0, sp, #128	; 0x80
     9ee:	47a8      	blx	r5
     9f0:	2800      	cmp	r0, #0
     9f2:	d100      	bne.n	9f6 <wcm_run+0x7d6>
     9f4:	e09a      	b.n	b2c <wcm_run+0x90c>
     9f6:	4b4b      	ldr	r3, [pc, #300]	; (b24 <wcm_run+0x904>)
     9f8:	4798      	blx	r3
     9fa:	2800      	cmp	r0, #0
     9fc:	d100      	bne.n	a00 <wcm_run+0x7e0>
     9fe:	e75c      	b.n	8ba <wcm_run+0x69a>
     a00:	4849      	ldr	r0, [pc, #292]	; (b28 <wcm_run+0x908>)
     a02:	e759      	b.n	8b8 <wcm_run+0x698>
     a04:	200009dd 	.word	0x200009dd
     a08:	0000c629 	.word	0x0000c629
     a0c:	00007a41 	.word	0x00007a41
     a10:	200009f0 	.word	0x200009f0
     a14:	20000a01 	.word	0x20000a01
     a18:	20000a03 	.word	0x20000a03
     a1c:	200009de 	.word	0x200009de
     a20:	0000c63b 	.word	0x0000c63b
     a24:	0000c645 	.word	0x0000c645
     a28:	00007fc5 	.word	0x00007fc5
     a2c:	000078c9 	.word	0x000078c9
     a30:	0000c647 	.word	0x0000c647
     a34:	000012d5 	.word	0x000012d5
     a38:	000012e5 	.word	0x000012e5
     a3c:	0000c654 	.word	0x0000c654
     a40:	0000c65f 	.word	0x0000c65f
     a44:	00001311 	.word	0x00001311
     a48:	0000131d 	.word	0x0000131d
     a4c:	0000c66d 	.word	0x0000c66d
     a50:	0000c676 	.word	0x0000c676
     a54:	00001339 	.word	0x00001339
     a58:	00001345 	.word	0x00001345
     a5c:	0000c682 	.word	0x0000c682
     a60:	0000c68d 	.word	0x0000c68d
     a64:	00001361 	.word	0x00001361
     a68:	0000136d 	.word	0x0000136d
     a6c:	0000c69b 	.word	0x0000c69b
     a70:	0000c6a7 	.word	0x0000c6a7
     a74:	00001389 	.word	0x00001389
     a78:	00001399 	.word	0x00001399
     a7c:	0000c6b6 	.word	0x0000c6b6
     a80:	0000c6c0 	.word	0x0000c6c0
     a84:	000013c9 	.word	0x000013c9
     a88:	000013b9 	.word	0x000013b9
     a8c:	0000c6cd 	.word	0x0000c6cd
     a90:	0000c6d4 	.word	0x0000c6d4
     a94:	000013e9 	.word	0x000013e9
     a98:	000013f9 	.word	0x000013f9
     a9c:	0000c6de 	.word	0x0000c6de
     aa0:	0000c746 	.word	0x0000c746
     aa4:	00002299 	.word	0x00002299
     aa8:	0000c7d6 	.word	0x0000c7d6
     aac:	0000c7d4 	.word	0x0000c7d4
     ab0:	0000c776 	.word	0x0000c776
     ab4:	00000fe5 	.word	0x00000fe5
     ab8:	000076d5 	.word	0x000076d5
     abc:	0000c780 	.word	0x0000c780
     ac0:	0000c797 	.word	0x0000c797
     ac4:	0000c7ca 	.word	0x0000c7ca
     ac8:	00002285 	.word	0x00002285
     acc:	00002629 	.word	0x00002629
     ad0:	0000c51c 	.word	0x0000c51c
     ad4:	00001301 	.word	0x00001301
     ad8:	00002271 	.word	0x00002271
     adc:	00002579 	.word	0x00002579
     ae0:	0000c525 	.word	0x0000c525
     ae4:	0000c7de 	.word	0x0000c7de
     ae8:	00003325 	.word	0x00003325
     aec:	fffaa22c 	.word	0xfffaa22c
     af0:	20000c68 	.word	0x20000c68
     af4:	20000a02 	.word	0x20000a02
     af8:	0000c7ff 	.word	0x0000c7ff
     afc:	00001d3d 	.word	0x00001d3d
     b00:	0000c80b 	.word	0x0000c80b
     b04:	0000c814 	.word	0x0000c814
     b08:	0000c81d 	.word	0x0000c81d
     b0c:	0000c834 	.word	0x0000c834
     b10:	0000c84e 	.word	0x0000c84e
     b14:	0000c57a 	.word	0x0000c57a
     b18:	00000189 	.word	0x00000189
     b1c:	0000c586 	.word	0x0000c586
     b20:	0000c5af 	.word	0x0000c5af
     b24:	00001b8d 	.word	0x00001b8d
     b28:	0000c5c0 	.word	0x0000c5c0
     b2c:	4989      	ldr	r1, [pc, #548]	; (d54 <wcm_run+0xb34>)
     b2e:	a820      	add	r0, sp, #128	; 0x80
     b30:	4d89      	ldr	r5, [pc, #548]	; (d58 <wcm_run+0xb38>)
     b32:	47a8      	blx	r5
     b34:	2800      	cmp	r0, #0
     b36:	d006      	beq.n	b46 <wcm_run+0x926>
     b38:	4b88      	ldr	r3, [pc, #544]	; (d5c <wcm_run+0xb3c>)
     b3a:	4798      	blx	r3
     b3c:	2800      	cmp	r0, #0
     b3e:	d100      	bne.n	b42 <wcm_run+0x922>
     b40:	e6bb      	b.n	8ba <wcm_run+0x69a>
     b42:	4887      	ldr	r0, [pc, #540]	; (d60 <wcm_run+0xb40>)
     b44:	e6b8      	b.n	8b8 <wcm_run+0x698>
     b46:	4987      	ldr	r1, [pc, #540]	; (d64 <wcm_run+0xb44>)
     b48:	a820      	add	r0, sp, #128	; 0x80
     b4a:	47a8      	blx	r5
     b4c:	2800      	cmp	r0, #0
     b4e:	d040      	beq.n	bd2 <wcm_run+0x9b2>
     b50:	4b85      	ldr	r3, [pc, #532]	; (d68 <wcm_run+0xb48>)
     b52:	4798      	blx	r3
     b54:	4c85      	ldr	r4, [pc, #532]	; (d6c <wcm_run+0xb4c>)
     b56:	0002      	movs	r2, r0
     b58:	4985      	ldr	r1, [pc, #532]	; (d70 <wcm_run+0xb50>)
     b5a:	a830      	add	r0, sp, #192	; 0xc0
     b5c:	47a0      	blx	r4
     b5e:	a830      	add	r0, sp, #192	; 0xc0
     b60:	4b84      	ldr	r3, [pc, #528]	; (d74 <wcm_run+0xb54>)
     b62:	4798      	blx	r3
     b64:	4b84      	ldr	r3, [pc, #528]	; (d78 <wcm_run+0xb58>)
     b66:	4798      	blx	r3
     b68:	4984      	ldr	r1, [pc, #528]	; (d7c <wcm_run+0xb5c>)
     b6a:	0002      	movs	r2, r0
     b6c:	a830      	add	r0, sp, #192	; 0xc0
     b6e:	47a0      	blx	r4
     b70:	a830      	add	r0, sp, #192	; 0xc0
     b72:	4b80      	ldr	r3, [pc, #512]	; (d74 <wcm_run+0xb54>)
     b74:	4798      	blx	r3
     b76:	4b82      	ldr	r3, [pc, #520]	; (d80 <wcm_run+0xb60>)
     b78:	4798      	blx	r3
     b7a:	4982      	ldr	r1, [pc, #520]	; (d84 <wcm_run+0xb64>)
     b7c:	0002      	movs	r2, r0
     b7e:	a830      	add	r0, sp, #192	; 0xc0
     b80:	47a0      	blx	r4
     b82:	a830      	add	r0, sp, #192	; 0xc0
     b84:	4b7b      	ldr	r3, [pc, #492]	; (d74 <wcm_run+0xb54>)
     b86:	4798      	blx	r3
     b88:	4b7f      	ldr	r3, [pc, #508]	; (d88 <wcm_run+0xb68>)
     b8a:	4798      	blx	r3
     b8c:	497f      	ldr	r1, [pc, #508]	; (d8c <wcm_run+0xb6c>)
     b8e:	0002      	movs	r2, r0
     b90:	a830      	add	r0, sp, #192	; 0xc0
     b92:	47a0      	blx	r4
     b94:	a830      	add	r0, sp, #192	; 0xc0
     b96:	4b77      	ldr	r3, [pc, #476]	; (d74 <wcm_run+0xb54>)
     b98:	4798      	blx	r3
     b9a:	4b7d      	ldr	r3, [pc, #500]	; (d90 <wcm_run+0xb70>)
     b9c:	4798      	blx	r3
     b9e:	497d      	ldr	r1, [pc, #500]	; (d94 <wcm_run+0xb74>)
     ba0:	0002      	movs	r2, r0
     ba2:	a830      	add	r0, sp, #192	; 0xc0
     ba4:	47a0      	blx	r4
     ba6:	a830      	add	r0, sp, #192	; 0xc0
     ba8:	4b72      	ldr	r3, [pc, #456]	; (d74 <wcm_run+0xb54>)
     baa:	4798      	blx	r3
     bac:	4b7a      	ldr	r3, [pc, #488]	; (d98 <wcm_run+0xb78>)
     bae:	4798      	blx	r3
     bb0:	497a      	ldr	r1, [pc, #488]	; (d9c <wcm_run+0xb7c>)
     bb2:	0002      	movs	r2, r0
     bb4:	a830      	add	r0, sp, #192	; 0xc0
     bb6:	47a0      	blx	r4
     bb8:	a830      	add	r0, sp, #192	; 0xc0
     bba:	4b6e      	ldr	r3, [pc, #440]	; (d74 <wcm_run+0xb54>)
     bbc:	4798      	blx	r3
     bbe:	4b78      	ldr	r3, [pc, #480]	; (da0 <wcm_run+0xb80>)
     bc0:	4798      	blx	r3
     bc2:	4978      	ldr	r1, [pc, #480]	; (da4 <wcm_run+0xb84>)
     bc4:	0002      	movs	r2, r0
     bc6:	a830      	add	r0, sp, #192	; 0xc0
     bc8:	47a0      	blx	r4
     bca:	a830      	add	r0, sp, #192	; 0xc0
     bcc:	4b69      	ldr	r3, [pc, #420]	; (d74 <wcm_run+0xb54>)
     bce:	4798      	blx	r3
     bd0:	e673      	b.n	8ba <wcm_run+0x69a>
     bd2:	4975      	ldr	r1, [pc, #468]	; (da8 <wcm_run+0xb88>)
     bd4:	a820      	add	r0, sp, #128	; 0x80
     bd6:	47a8      	blx	r5
     bd8:	1e07      	subs	r7, r0, #0
     bda:	d002      	beq.n	be2 <wcm_run+0x9c2>
     bdc:	4b73      	ldr	r3, [pc, #460]	; (dac <wcm_run+0xb8c>)
     bde:	4798      	blx	r3
     be0:	e66b      	b.n	8ba <wcm_run+0x69a>
     be2:	4973      	ldr	r1, [pc, #460]	; (db0 <wcm_run+0xb90>)
     be4:	a820      	add	r0, sp, #128	; 0x80
     be6:	47a8      	blx	r5
     be8:	4c72      	ldr	r4, [pc, #456]	; (db4 <wcm_run+0xb94>)
     bea:	1e06      	subs	r6, r0, #0
     bec:	d014      	beq.n	c18 <wcm_run+0x9f8>
     bee:	0021      	movs	r1, r4
     bf0:	4d71      	ldr	r5, [pc, #452]	; (db8 <wcm_run+0xb98>)
     bf2:	a820      	add	r0, sp, #128	; 0x80
     bf4:	47a8      	blx	r5
     bf6:	0021      	movs	r1, r4
     bf8:	0038      	movs	r0, r7
     bfa:	47a8      	blx	r5
     bfc:	4b6f      	ldr	r3, [pc, #444]	; (dbc <wcm_run+0xb9c>)
     bfe:	4798      	blx	r3
     c00:	4b5a      	ldr	r3, [pc, #360]	; (d6c <wcm_run+0xb4c>)
     c02:	0002      	movs	r2, r0
     c04:	0004      	movs	r4, r0
     c06:	496e      	ldr	r1, [pc, #440]	; (dc0 <wcm_run+0xba0>)
     c08:	a820      	add	r0, sp, #128	; 0x80
     c0a:	4798      	blx	r3
     c0c:	4b6d      	ldr	r3, [pc, #436]	; (dc4 <wcm_run+0xba4>)
     c0e:	2c00      	cmp	r4, #0
     c10:	d100      	bne.n	c14 <wcm_run+0x9f4>
     c12:	e68a      	b.n	92a <wcm_run+0x70a>
     c14:	4b6c      	ldr	r3, [pc, #432]	; (dc8 <wcm_run+0xba8>)
     c16:	e688      	b.n	92a <wcm_run+0x70a>
     c18:	496c      	ldr	r1, [pc, #432]	; (dcc <wcm_run+0xbac>)
     c1a:	a820      	add	r0, sp, #128	; 0x80
     c1c:	47a8      	blx	r5
     c1e:	1e07      	subs	r7, r0, #0
     c20:	d014      	beq.n	c4c <wcm_run+0xa2c>
     c22:	0021      	movs	r1, r4
     c24:	4d64      	ldr	r5, [pc, #400]	; (db8 <wcm_run+0xb98>)
     c26:	a820      	add	r0, sp, #128	; 0x80
     c28:	47a8      	blx	r5
     c2a:	0021      	movs	r1, r4
     c2c:	0030      	movs	r0, r6
     c2e:	47a8      	blx	r5
     c30:	4b62      	ldr	r3, [pc, #392]	; (dbc <wcm_run+0xb9c>)
     c32:	4798      	blx	r3
     c34:	4b4d      	ldr	r3, [pc, #308]	; (d6c <wcm_run+0xb4c>)
     c36:	0002      	movs	r2, r0
     c38:	0004      	movs	r4, r0
     c3a:	4965      	ldr	r1, [pc, #404]	; (dd0 <wcm_run+0xbb0>)
     c3c:	a820      	add	r0, sp, #128	; 0x80
     c3e:	4798      	blx	r3
     c40:	4b64      	ldr	r3, [pc, #400]	; (dd4 <wcm_run+0xbb4>)
     c42:	2c00      	cmp	r4, #0
     c44:	d100      	bne.n	c48 <wcm_run+0xa28>
     c46:	e670      	b.n	92a <wcm_run+0x70a>
     c48:	4b63      	ldr	r3, [pc, #396]	; (dd8 <wcm_run+0xbb8>)
     c4a:	e66e      	b.n	92a <wcm_run+0x70a>
     c4c:	4963      	ldr	r1, [pc, #396]	; (ddc <wcm_run+0xbbc>)
     c4e:	a820      	add	r0, sp, #128	; 0x80
     c50:	47a8      	blx	r5
     c52:	1e06      	subs	r6, r0, #0
     c54:	d014      	beq.n	c80 <wcm_run+0xa60>
     c56:	0021      	movs	r1, r4
     c58:	4d57      	ldr	r5, [pc, #348]	; (db8 <wcm_run+0xb98>)
     c5a:	a820      	add	r0, sp, #128	; 0x80
     c5c:	47a8      	blx	r5
     c5e:	0021      	movs	r1, r4
     c60:	0038      	movs	r0, r7
     c62:	47a8      	blx	r5
     c64:	4b55      	ldr	r3, [pc, #340]	; (dbc <wcm_run+0xb9c>)
     c66:	4798      	blx	r3
     c68:	4b40      	ldr	r3, [pc, #256]	; (d6c <wcm_run+0xb4c>)
     c6a:	0002      	movs	r2, r0
     c6c:	0004      	movs	r4, r0
     c6e:	495c      	ldr	r1, [pc, #368]	; (de0 <wcm_run+0xbc0>)
     c70:	a820      	add	r0, sp, #128	; 0x80
     c72:	4798      	blx	r3
     c74:	4b5b      	ldr	r3, [pc, #364]	; (de4 <wcm_run+0xbc4>)
     c76:	2c00      	cmp	r4, #0
     c78:	d100      	bne.n	c7c <wcm_run+0xa5c>
     c7a:	e656      	b.n	92a <wcm_run+0x70a>
     c7c:	4b5a      	ldr	r3, [pc, #360]	; (de8 <wcm_run+0xbc8>)
     c7e:	e654      	b.n	92a <wcm_run+0x70a>
     c80:	495a      	ldr	r1, [pc, #360]	; (dec <wcm_run+0xbcc>)
     c82:	a820      	add	r0, sp, #128	; 0x80
     c84:	47a8      	blx	r5
     c86:	1e07      	subs	r7, r0, #0
     c88:	d013      	beq.n	cb2 <wcm_run+0xa92>
     c8a:	0021      	movs	r1, r4
     c8c:	4d4a      	ldr	r5, [pc, #296]	; (db8 <wcm_run+0xb98>)
     c8e:	a820      	add	r0, sp, #128	; 0x80
     c90:	47a8      	blx	r5
     c92:	0021      	movs	r1, r4
     c94:	0030      	movs	r0, r6
     c96:	47a8      	blx	r5
     c98:	4b48      	ldr	r3, [pc, #288]	; (dbc <wcm_run+0xb9c>)
     c9a:	4798      	blx	r3
     c9c:	4b33      	ldr	r3, [pc, #204]	; (d6c <wcm_run+0xb4c>)
     c9e:	0002      	movs	r2, r0
     ca0:	0004      	movs	r4, r0
     ca2:	4953      	ldr	r1, [pc, #332]	; (df0 <wcm_run+0xbd0>)
     ca4:	a820      	add	r0, sp, #128	; 0x80
     ca6:	4798      	blx	r3
     ca8:	4b52      	ldr	r3, [pc, #328]	; (df4 <wcm_run+0xbd4>)
     caa:	2c00      	cmp	r4, #0
     cac:	d000      	beq.n	cb0 <wcm_run+0xa90>
     cae:	e63c      	b.n	92a <wcm_run+0x70a>
     cb0:	e63a      	b.n	928 <wcm_run+0x708>
     cb2:	4951      	ldr	r1, [pc, #324]	; (df8 <wcm_run+0xbd8>)
     cb4:	a820      	add	r0, sp, #128	; 0x80
     cb6:	47a8      	blx	r5
     cb8:	1e06      	subs	r6, r0, #0
     cba:	d014      	beq.n	ce6 <wcm_run+0xac6>
     cbc:	0021      	movs	r1, r4
     cbe:	4d3e      	ldr	r5, [pc, #248]	; (db8 <wcm_run+0xb98>)
     cc0:	a820      	add	r0, sp, #128	; 0x80
     cc2:	47a8      	blx	r5
     cc4:	0021      	movs	r1, r4
     cc6:	0038      	movs	r0, r7
     cc8:	47a8      	blx	r5
     cca:	4b3c      	ldr	r3, [pc, #240]	; (dbc <wcm_run+0xb9c>)
     ccc:	4798      	blx	r3
     cce:	4b27      	ldr	r3, [pc, #156]	; (d6c <wcm_run+0xb4c>)
     cd0:	0002      	movs	r2, r0
     cd2:	0004      	movs	r4, r0
     cd4:	4949      	ldr	r1, [pc, #292]	; (dfc <wcm_run+0xbdc>)
     cd6:	a820      	add	r0, sp, #128	; 0x80
     cd8:	4798      	blx	r3
     cda:	4b49      	ldr	r3, [pc, #292]	; (e00 <wcm_run+0xbe0>)
     cdc:	2c01      	cmp	r4, #1
     cde:	d100      	bne.n	ce2 <wcm_run+0xac2>
     ce0:	e623      	b.n	92a <wcm_run+0x70a>
     ce2:	4b48      	ldr	r3, [pc, #288]	; (e04 <wcm_run+0xbe4>)
     ce4:	e621      	b.n	92a <wcm_run+0x70a>
     ce6:	4948      	ldr	r1, [pc, #288]	; (e08 <wcm_run+0xbe8>)
     ce8:	a820      	add	r0, sp, #128	; 0x80
     cea:	47a8      	blx	r5
     cec:	2800      	cmp	r0, #0
     cee:	d014      	beq.n	d1a <wcm_run+0xafa>
     cf0:	0021      	movs	r1, r4
     cf2:	4d31      	ldr	r5, [pc, #196]	; (db8 <wcm_run+0xb98>)
     cf4:	a820      	add	r0, sp, #128	; 0x80
     cf6:	47a8      	blx	r5
     cf8:	0021      	movs	r1, r4
     cfa:	0030      	movs	r0, r6
     cfc:	47a8      	blx	r5
     cfe:	4b2f      	ldr	r3, [pc, #188]	; (dbc <wcm_run+0xb9c>)
     d00:	4798      	blx	r3
     d02:	4b1a      	ldr	r3, [pc, #104]	; (d6c <wcm_run+0xb4c>)
     d04:	0002      	movs	r2, r0
     d06:	0004      	movs	r4, r0
     d08:	4940      	ldr	r1, [pc, #256]	; (e0c <wcm_run+0xbec>)
     d0a:	a820      	add	r0, sp, #128	; 0x80
     d0c:	4798      	blx	r3
     d0e:	4b40      	ldr	r3, [pc, #256]	; (e10 <wcm_run+0xbf0>)
     d10:	2c00      	cmp	r4, #0
     d12:	d100      	bne.n	d16 <wcm_run+0xaf6>
     d14:	e609      	b.n	92a <wcm_run+0x70a>
     d16:	4b3f      	ldr	r3, [pc, #252]	; (e14 <wcm_run+0xbf4>)
     d18:	e607      	b.n	92a <wcm_run+0x70a>
     d1a:	493f      	ldr	r1, [pc, #252]	; (e18 <wcm_run+0xbf8>)
     d1c:	a820      	add	r0, sp, #128	; 0x80
     d1e:	47a8      	blx	r5
     d20:	2800      	cmp	r0, #0
     d22:	d014      	beq.n	d4e <wcm_run+0xb2e>
     d24:	0021      	movs	r1, r4
     d26:	4d24      	ldr	r5, [pc, #144]	; (db8 <wcm_run+0xb98>)
     d28:	a820      	add	r0, sp, #128	; 0x80
     d2a:	47a8      	blx	r5
     d2c:	0021      	movs	r1, r4
     d2e:	2000      	movs	r0, #0
     d30:	47a8      	blx	r5
     d32:	4b22      	ldr	r3, [pc, #136]	; (dbc <wcm_run+0xb9c>)
     d34:	4798      	blx	r3
     d36:	4b0d      	ldr	r3, [pc, #52]	; (d6c <wcm_run+0xb4c>)
     d38:	0002      	movs	r2, r0
     d3a:	0004      	movs	r4, r0
     d3c:	4937      	ldr	r1, [pc, #220]	; (e1c <wcm_run+0xbfc>)
     d3e:	a820      	add	r0, sp, #128	; 0x80
     d40:	4798      	blx	r3
     d42:	4b37      	ldr	r3, [pc, #220]	; (e20 <wcm_run+0xc00>)
     d44:	2c00      	cmp	r4, #0
     d46:	d100      	bne.n	d4a <wcm_run+0xb2a>
     d48:	e5ef      	b.n	92a <wcm_run+0x70a>
     d4a:	4b36      	ldr	r3, [pc, #216]	; (e24 <wcm_run+0xc04>)
     d4c:	e5ed      	b.n	92a <wcm_run+0x70a>
     d4e:	2300      	movs	r3, #0
     d50:	9302      	str	r3, [sp, #8]
     d52:	e5b2      	b.n	8ba <wcm_run+0x69a>
     d54:	0000c5ee 	.word	0x0000c5ee
     d58:	00007dbd 	.word	0x00007dbd
     d5c:	00001c21 	.word	0x00001c21
     d60:	0000c5fa 	.word	0x0000c5fa
     d64:	0000c877 	.word	0x0000c877
     d68:	000012c5 	.word	0x000012c5
     d6c:	00007a41 	.word	0x00007a41
     d70:	0000c887 	.word	0x0000c887
     d74:	00002299 	.word	0x00002299
     d78:	00001301 	.word	0x00001301
     d7c:	0000c896 	.word	0x0000c896
     d80:	00001329 	.word	0x00001329
     d84:	0000c8a6 	.word	0x0000c8a6
     d88:	00001351 	.word	0x00001351
     d8c:	0000c8b4 	.word	0x0000c8b4
     d90:	00001379 	.word	0x00001379
     d94:	0000c8c4 	.word	0x0000c8c4
     d98:	000013a9 	.word	0x000013a9
     d9c:	0000c8d5 	.word	0x0000c8d5
     da0:	000013d9 	.word	0x000013d9
     da4:	0000c8e4 	.word	0x0000c8e4
     da8:	0000c8f0 	.word	0x0000c8f0
     dac:	00000139 	.word	0x00000139
     db0:	0000c63b 	.word	0x0000c63b
     db4:	0000c645 	.word	0x0000c645
     db8:	00007fc5 	.word	0x00007fc5
     dbc:	000078c9 	.word	0x000078c9
     dc0:	0000c647 	.word	0x0000c647
     dc4:	000012d5 	.word	0x000012d5
     dc8:	000012e5 	.word	0x000012e5
     dcc:	0000c654 	.word	0x0000c654
     dd0:	0000c65f 	.word	0x0000c65f
     dd4:	00001311 	.word	0x00001311
     dd8:	0000131d 	.word	0x0000131d
     ddc:	0000c66d 	.word	0x0000c66d
     de0:	0000c676 	.word	0x0000c676
     de4:	00001339 	.word	0x00001339
     de8:	00001345 	.word	0x00001345
     dec:	0000c682 	.word	0x0000c682
     df0:	0000c68d 	.word	0x0000c68d
     df4:	0000136d 	.word	0x0000136d
     df8:	0000c69b 	.word	0x0000c69b
     dfc:	0000c6a7 	.word	0x0000c6a7
     e00:	00001399 	.word	0x00001399
     e04:	00001389 	.word	0x00001389
     e08:	0000c6cd 	.word	0x0000c6cd
     e0c:	0000c6d4 	.word	0x0000c6d4
     e10:	000013e9 	.word	0x000013e9
     e14:	000013f9 	.word	0x000013f9
     e18:	0000c6b6 	.word	0x0000c6b6
     e1c:	0000c6c0 	.word	0x0000c6c0
     e20:	000013b9 	.word	0x000013b9
     e24:	000013c9 	.word	0x000013c9

00000e28 <adc_enable>:
     e28:	6803      	ldr	r3, [r0, #0]
     e2a:	8c1a      	ldrh	r2, [r3, #32]
     e2c:	2a00      	cmp	r2, #0
     e2e:	d1fc      	bne.n	e2a <adc_enable+0x2>
     e30:	2207      	movs	r2, #7
     e32:	711a      	strb	r2, [r3, #4]
     e34:	719a      	strb	r2, [r3, #6]
     e36:	7819      	ldrb	r1, [r3, #0]
     e38:	3a05      	subs	r2, #5
     e3a:	430a      	orrs	r2, r1
     e3c:	701a      	strb	r2, [r3, #0]
     e3e:	6803      	ldr	r3, [r0, #0]
     e40:	8c18      	ldrh	r0, [r3, #32]
     e42:	b280      	uxth	r0, r0
     e44:	2800      	cmp	r0, #0
     e46:	d1fb      	bne.n	e40 <adc_enable+0x18>
     e48:	4770      	bx	lr

00000e4a <adc_disable>:
     e4a:	6803      	ldr	r3, [r0, #0]
     e4c:	8c1a      	ldrh	r2, [r3, #32]
     e4e:	2a00      	cmp	r2, #0
     e50:	d1fc      	bne.n	e4c <adc_disable+0x2>
     e52:	2207      	movs	r2, #7
     e54:	2102      	movs	r1, #2
     e56:	711a      	strb	r2, [r3, #4]
     e58:	719a      	strb	r2, [r3, #6]
     e5a:	781a      	ldrb	r2, [r3, #0]
     e5c:	438a      	bics	r2, r1
     e5e:	701a      	strb	r2, [r3, #0]
     e60:	6803      	ldr	r3, [r0, #0]
     e62:	8c18      	ldrh	r0, [r3, #32]
     e64:	b280      	uxth	r0, r0
     e66:	2800      	cmp	r0, #0
     e68:	d1fb      	bne.n	e62 <adc_disable+0x18>
     e6a:	4770      	bx	lr

00000e6c <adc_start_conversion>:
     e6c:	6803      	ldr	r3, [r0, #0]
     e6e:	8c1a      	ldrh	r2, [r3, #32]
     e70:	2a00      	cmp	r2, #0
     e72:	d1fc      	bne.n	e6e <adc_start_conversion+0x2>
     e74:	2202      	movs	r2, #2
     e76:	7e19      	ldrb	r1, [r3, #24]
     e78:	430a      	orrs	r2, r1
     e7a:	761a      	strb	r2, [r3, #24]
     e7c:	6803      	ldr	r3, [r0, #0]
     e7e:	8c1a      	ldrh	r2, [r3, #32]
     e80:	2a00      	cmp	r2, #0
     e82:	d1fc      	bne.n	e7e <adc_start_conversion+0x12>
     e84:	4770      	bx	lr

00000e86 <adc_get_status.isra.1>:
     e86:	7983      	ldrb	r3, [r0, #6]
     e88:	2001      	movs	r0, #1
     e8a:	b2db      	uxtb	r3, r3
     e8c:	4018      	ands	r0, r3
     e8e:	2202      	movs	r2, #2
     e90:	0759      	lsls	r1, r3, #29
     e92:	d500      	bpl.n	e96 <adc_get_status.isra.1+0x10>
     e94:	4310      	orrs	r0, r2
     e96:	4213      	tst	r3, r2
     e98:	d001      	beq.n	e9e <adc_get_status.isra.1+0x18>
     e9a:	2304      	movs	r3, #4
     e9c:	4318      	orrs	r0, r3
     e9e:	4770      	bx	lr

00000ea0 <wcm_adc_configure>:
     ea0:	b530      	push	{r4, r5, lr}
     ea2:	b08d      	sub	sp, #52	; 0x34
     ea4:	ac01      	add	r4, sp, #4
     ea6:	4b0e      	ldr	r3, [pc, #56]	; (ee0 <wcm_adc_configure+0x40>)
     ea8:	0020      	movs	r0, r4
     eaa:	4798      	blx	r3
     eac:	2307      	movs	r3, #7
     eae:	7123      	strb	r3, [r4, #4]
     eb0:	3b02      	subs	r3, #2
     eb2:	7063      	strb	r3, [r4, #1]
     eb4:	4b0b      	ldr	r3, [pc, #44]	; (ee4 <wcm_adc_configure+0x44>)
     eb6:	4d0c      	ldr	r5, [pc, #48]	; (ee8 <wcm_adc_configure+0x48>)
     eb8:	781a      	ldrb	r2, [r3, #0]
     eba:	2a00      	cmp	r2, #0
     ebc:	d00b      	beq.n	ed6 <wcm_adc_configure+0x36>
     ebe:	2200      	movs	r2, #0
     ec0:	701a      	strb	r2, [r3, #0]
     ec2:	0022      	movs	r2, r4
     ec4:	4909      	ldr	r1, [pc, #36]	; (eec <wcm_adc_configure+0x4c>)
     ec6:	0028      	movs	r0, r5
     ec8:	4b09      	ldr	r3, [pc, #36]	; (ef0 <wcm_adc_configure+0x50>)
     eca:	4798      	blx	r3
     ecc:	0028      	movs	r0, r5
     ece:	4b09      	ldr	r3, [pc, #36]	; (ef4 <wcm_adc_configure+0x54>)
     ed0:	4798      	blx	r3
     ed2:	b00d      	add	sp, #52	; 0x34
     ed4:	bd30      	pop	{r4, r5, pc}
     ed6:	0028      	movs	r0, r5
     ed8:	4b07      	ldr	r3, [pc, #28]	; (ef8 <wcm_adc_configure+0x58>)
     eda:	4798      	blx	r3
     edc:	e7f1      	b.n	ec2 <wcm_adc_configure+0x22>
     ede:	46c0      	nop			; (mov r8, r8)
     ee0:	00002719 	.word	0x00002719
     ee4:	20000000 	.word	0x20000000
     ee8:	20000a04 	.word	0x20000a04
     eec:	43000c00 	.word	0x43000c00
     ef0:	00002759 	.word	0x00002759
     ef4:	00000e29 	.word	0x00000e29
     ef8:	00000e4b 	.word	0x00000e4b

00000efc <wcm_bat_adc_configure>:
     efc:	b530      	push	{r4, r5, lr}
     efe:	b08d      	sub	sp, #52	; 0x34
     f00:	ac01      	add	r4, sp, #4
     f02:	4b10      	ldr	r3, [pc, #64]	; (f44 <wcm_bat_adc_configure+0x48>)
     f04:	0020      	movs	r0, r4
     f06:	4798      	blx	r3
     f08:	2340      	movs	r3, #64	; 0x40
     f0a:	7563      	strb	r3, [r4, #21]
     f0c:	3b3c      	subs	r3, #60	; 0x3c
     f0e:	70a3      	strb	r3, [r4, #2]
     f10:	330f      	adds	r3, #15
     f12:	7123      	strb	r3, [r4, #4]
     f14:	3b0e      	subs	r3, #14
     f16:	7063      	strb	r3, [r4, #1]
     f18:	4b0b      	ldr	r3, [pc, #44]	; (f48 <wcm_bat_adc_configure+0x4c>)
     f1a:	4d0c      	ldr	r5, [pc, #48]	; (f4c <wcm_bat_adc_configure+0x50>)
     f1c:	781a      	ldrb	r2, [r3, #0]
     f1e:	2a00      	cmp	r2, #0
     f20:	d00b      	beq.n	f3a <wcm_bat_adc_configure+0x3e>
     f22:	2200      	movs	r2, #0
     f24:	701a      	strb	r2, [r3, #0]
     f26:	0022      	movs	r2, r4
     f28:	4909      	ldr	r1, [pc, #36]	; (f50 <wcm_bat_adc_configure+0x54>)
     f2a:	0028      	movs	r0, r5
     f2c:	4b09      	ldr	r3, [pc, #36]	; (f54 <wcm_bat_adc_configure+0x58>)
     f2e:	4798      	blx	r3
     f30:	0028      	movs	r0, r5
     f32:	4b09      	ldr	r3, [pc, #36]	; (f58 <wcm_bat_adc_configure+0x5c>)
     f34:	4798      	blx	r3
     f36:	b00d      	add	sp, #52	; 0x34
     f38:	bd30      	pop	{r4, r5, pc}
     f3a:	0028      	movs	r0, r5
     f3c:	4b07      	ldr	r3, [pc, #28]	; (f5c <wcm_bat_adc_configure+0x60>)
     f3e:	4798      	blx	r3
     f40:	e7f1      	b.n	f26 <wcm_bat_adc_configure+0x2a>
     f42:	46c0      	nop			; (mov r8, r8)
     f44:	00002719 	.word	0x00002719
     f48:	20000001 	.word	0x20000001
     f4c:	20000a0c 	.word	0x20000a0c
     f50:	43000c00 	.word	0x43000c00
     f54:	00002759 	.word	0x00002759
     f58:	00000e29 	.word	0x00000e29
     f5c:	00000e4b 	.word	0x00000e4b

00000f60 <wcm_adc_read>:
     f60:	b5f7      	push	{r0, r1, r2, r4, r5, r6, r7, lr}
     f62:	4c15      	ldr	r4, [pc, #84]	; (fb8 <wcm_adc_read+0x58>)
     f64:	0007      	movs	r7, r0
     f66:	4b15      	ldr	r3, [pc, #84]	; (fbc <wcm_adc_read+0x5c>)
     f68:	0020      	movs	r0, r4
     f6a:	4798      	blx	r3
     f6c:	2601      	movs	r6, #1
     f6e:	6820      	ldr	r0, [r4, #0]
     f70:	4d13      	ldr	r5, [pc, #76]	; (fc0 <wcm_adc_read+0x60>)
     f72:	47a8      	blx	r5
     f74:	4230      	tst	r0, r6
     f76:	d0fa      	beq.n	f6e <wcm_adc_read+0xe>
     f78:	6820      	ldr	r0, [r4, #0]
     f7a:	8c83      	ldrh	r3, [r0, #36]	; 0x24
     f7c:	7186      	strb	r6, [r0, #6]
     f7e:	b29b      	uxth	r3, r3
     f80:	9301      	str	r3, [sp, #4]
     f82:	47a8      	blx	r5
     f84:	2504      	movs	r5, #4
     f86:	4005      	ands	r5, r0
     f88:	d004      	beq.n	f94 <wcm_adc_read+0x34>
     f8a:	2202      	movs	r2, #2
     f8c:	201e      	movs	r0, #30
     f8e:	6823      	ldr	r3, [r4, #0]
     f90:	719a      	strb	r2, [r3, #6]
     f92:	bdfe      	pop	{r1, r2, r3, r4, r5, r6, r7, pc}
     f94:	4b0b      	ldr	r3, [pc, #44]	; (fc4 <wcm_adc_read+0x64>)
     f96:	9801      	ldr	r0, [sp, #4]
     f98:	4798      	blx	r3
     f9a:	4b0b      	ldr	r3, [pc, #44]	; (fc8 <wcm_adc_read+0x68>)
     f9c:	4798      	blx	r3
     f9e:	4a0b      	ldr	r2, [pc, #44]	; (fcc <wcm_adc_read+0x6c>)
     fa0:	4b0b      	ldr	r3, [pc, #44]	; (fd0 <wcm_adc_read+0x70>)
     fa2:	4c0c      	ldr	r4, [pc, #48]	; (fd4 <wcm_adc_read+0x74>)
     fa4:	47a0      	blx	r4
     fa6:	2200      	movs	r2, #0
     fa8:	4b0b      	ldr	r3, [pc, #44]	; (fd8 <wcm_adc_read+0x78>)
     faa:	4c0c      	ldr	r4, [pc, #48]	; (fdc <wcm_adc_read+0x7c>)
     fac:	47a0      	blx	r4
     fae:	4b0c      	ldr	r3, [pc, #48]	; (fe0 <wcm_adc_read+0x80>)
     fb0:	4798      	blx	r3
     fb2:	6038      	str	r0, [r7, #0]
     fb4:	0028      	movs	r0, r5
     fb6:	e7ec      	b.n	f92 <wcm_adc_read+0x32>
     fb8:	20000a04 	.word	0x20000a04
     fbc:	00000e6d 	.word	0x00000e6d
     fc0:	00000e87 	.word	0x00000e87
     fc4:	00005af9 	.word	0x00005af9
     fc8:	000076d5 	.word	0x000076d5
     fcc:	66666666 	.word	0x66666666
     fd0:	400a6666 	.word	0x400a6666
     fd4:	00006a0d 	.word	0x00006a0d
     fd8:	40affe00 	.word	0x40affe00
     fdc:	000061a5 	.word	0x000061a5
     fe0:	00007779 	.word	0x00007779

00000fe4 <wcm_bat_adc_read>:
     fe4:	b5f7      	push	{r0, r1, r2, r4, r5, r6, r7, lr}
     fe6:	4c15      	ldr	r4, [pc, #84]	; (103c <STACK_SIZE+0x3c>)
     fe8:	0007      	movs	r7, r0
     fea:	4b15      	ldr	r3, [pc, #84]	; (1040 <STACK_SIZE+0x40>)
     fec:	0020      	movs	r0, r4
     fee:	4798      	blx	r3
     ff0:	2601      	movs	r6, #1
     ff2:	6820      	ldr	r0, [r4, #0]
     ff4:	4d13      	ldr	r5, [pc, #76]	; (1044 <STACK_SIZE+0x44>)
     ff6:	47a8      	blx	r5
     ff8:	4230      	tst	r0, r6
     ffa:	d0fa      	beq.n	ff2 <wcm_bat_adc_read+0xe>
     ffc:	6820      	ldr	r0, [r4, #0]
     ffe:	8c83      	ldrh	r3, [r0, #36]	; 0x24
    1000:	7186      	strb	r6, [r0, #6]
    1002:	b29b      	uxth	r3, r3
    1004:	9301      	str	r3, [sp, #4]
    1006:	47a8      	blx	r5
    1008:	2504      	movs	r5, #4
    100a:	4005      	ands	r5, r0
    100c:	d004      	beq.n	1018 <STACK_SIZE+0x18>
    100e:	2202      	movs	r2, #2
    1010:	201e      	movs	r0, #30
    1012:	6823      	ldr	r3, [r4, #0]
    1014:	719a      	strb	r2, [r3, #6]
    1016:	bdfe      	pop	{r1, r2, r3, r4, r5, r6, r7, pc}
    1018:	4b0b      	ldr	r3, [pc, #44]	; (1048 <STACK_SIZE+0x48>)
    101a:	9801      	ldr	r0, [sp, #4]
    101c:	4798      	blx	r3
    101e:	4b0b      	ldr	r3, [pc, #44]	; (104c <STACK_SIZE+0x4c>)
    1020:	4798      	blx	r3
    1022:	4a0b      	ldr	r2, [pc, #44]	; (1050 <STACK_SIZE+0x50>)
    1024:	4b0b      	ldr	r3, [pc, #44]	; (1054 <STACK_SIZE+0x54>)
    1026:	4c0c      	ldr	r4, [pc, #48]	; (1058 <STACK_SIZE+0x58>)
    1028:	47a0      	blx	r4
    102a:	2200      	movs	r2, #0
    102c:	4b0b      	ldr	r3, [pc, #44]	; (105c <STACK_SIZE+0x5c>)
    102e:	4c0c      	ldr	r4, [pc, #48]	; (1060 <STACK_SIZE+0x60>)
    1030:	47a0      	blx	r4
    1032:	4b0c      	ldr	r3, [pc, #48]	; (1064 <STACK_SIZE+0x64>)
    1034:	4798      	blx	r3
    1036:	6038      	str	r0, [r7, #0]
    1038:	0028      	movs	r0, r5
    103a:	e7ec      	b.n	1016 <STACK_SIZE+0x16>
    103c:	20000a0c 	.word	0x20000a0c
    1040:	00000e6d 	.word	0x00000e6d
    1044:	00000e87 	.word	0x00000e87
    1048:	00005af9 	.word	0x00005af9
    104c:	000076d5 	.word	0x000076d5
    1050:	66666666 	.word	0x66666666
    1054:	400a6666 	.word	0x400a6666
    1058:	00006a0d 	.word	0x00006a0d
    105c:	40affe00 	.word	0x40affe00
    1060:	000061a5 	.word	0x000061a5
    1064:	00007779 	.word	0x00007779

00001068 <wcm_clocks_configure>:
    1068:	221e      	movs	r2, #30
    106a:	b570      	push	{r4, r5, r6, lr}
    106c:	4916      	ldr	r1, [pc, #88]	; (10c8 <wcm_clocks_configure+0x60>)
    106e:	b086      	sub	sp, #24
    1070:	684b      	ldr	r3, [r1, #4]
    1072:	2400      	movs	r4, #0
    1074:	4393      	bics	r3, r2
    1076:	001a      	movs	r2, r3
    1078:	2304      	movs	r3, #4
    107a:	4313      	orrs	r3, r2
    107c:	604b      	str	r3, [r1, #4]
    107e:	466b      	mov	r3, sp
    1080:	466a      	mov	r2, sp
    1082:	701c      	strb	r4, [r3, #0]
    1084:	230e      	movs	r3, #14
    1086:	2601      	movs	r6, #1
    1088:	7053      	strb	r3, [r2, #1]
    108a:	4b10      	ldr	r3, [pc, #64]	; (10cc <wcm_clocks_configure+0x64>)
    108c:	0005      	movs	r5, r0
    108e:	9301      	str	r3, [sp, #4]
    1090:	4668      	mov	r0, sp
    1092:	4b0f      	ldr	r3, [pc, #60]	; (10d0 <wcm_clocks_configure+0x68>)
    1094:	7094      	strb	r4, [r2, #2]
    1096:	7214      	strb	r4, [r2, #8]
    1098:	7256      	strb	r6, [r2, #9]
    109a:	4798      	blx	r3
    109c:	0020      	movs	r0, r4
    109e:	4b0d      	ldr	r3, [pc, #52]	; (10d4 <wcm_clocks_configure+0x6c>)
    10a0:	4798      	blx	r3
    10a2:	a903      	add	r1, sp, #12
    10a4:	604e      	str	r6, [r1, #4]
    10a6:	704c      	strb	r4, [r1, #1]
    10a8:	720c      	strb	r4, [r1, #8]
    10aa:	724c      	strb	r4, [r1, #9]
    10ac:	42b5      	cmp	r5, r6
    10ae:	d109      	bne.n	10c4 <wcm_clocks_configure+0x5c>
    10b0:	2303      	movs	r3, #3
    10b2:	700b      	strb	r3, [r1, #0]
    10b4:	2000      	movs	r0, #0
    10b6:	4b08      	ldr	r3, [pc, #32]	; (10d8 <wcm_clocks_configure+0x70>)
    10b8:	4798      	blx	r3
    10ba:	2000      	movs	r0, #0
    10bc:	4b07      	ldr	r3, [pc, #28]	; (10dc <wcm_clocks_configure+0x74>)
    10be:	4798      	blx	r3
    10c0:	b006      	add	sp, #24
    10c2:	bd70      	pop	{r4, r5, r6, pc}
    10c4:	700c      	strb	r4, [r1, #0]
    10c6:	e7f5      	b.n	10b4 <wcm_clocks_configure+0x4c>
    10c8:	41004000 	.word	0x41004000
    10cc:	00b71b00 	.word	0x00b71b00
    10d0:	00004bdd 	.word	0x00004bdd
    10d4:	00004ca9 	.word	0x00004ca9
    10d8:	00004e41 	.word	0x00004e41
    10dc:	00004ed9 	.word	0x00004ed9

000010e0 <eeprom_read_settings>:
    10e0:	b5f8      	push	{r3, r4, r5, r6, r7, lr}
    10e2:	4c11      	ldr	r4, [pc, #68]	; (1128 <eeprom_read_settings+0x48>)
    10e4:	0007      	movs	r7, r0
    10e6:	000e      	movs	r6, r1
    10e8:	0015      	movs	r5, r2
    10ea:	0021      	movs	r1, r4
    10ec:	2206      	movs	r2, #6
    10ee:	2000      	movs	r0, #0
    10f0:	4b0e      	ldr	r3, [pc, #56]	; (112c <eeprom_read_settings+0x4c>)
    10f2:	4798      	blx	r3
    10f4:	2800      	cmp	r0, #0
    10f6:	d112      	bne.n	111e <eeprom_read_settings+0x3e>
    10f8:	7823      	ldrb	r3, [r4, #0]
    10fa:	803b      	strh	r3, [r7, #0]
    10fc:	7862      	ldrb	r2, [r4, #1]
    10fe:	0212      	lsls	r2, r2, #8
    1100:	4313      	orrs	r3, r2
    1102:	803b      	strh	r3, [r7, #0]
    1104:	78a3      	ldrb	r3, [r4, #2]
    1106:	8033      	strh	r3, [r6, #0]
    1108:	78e2      	ldrb	r2, [r4, #3]
    110a:	0212      	lsls	r2, r2, #8
    110c:	4313      	orrs	r3, r2
    110e:	8033      	strh	r3, [r6, #0]
    1110:	7923      	ldrb	r3, [r4, #4]
    1112:	802b      	strh	r3, [r5, #0]
    1114:	7962      	ldrb	r2, [r4, #5]
    1116:	0212      	lsls	r2, r2, #8
    1118:	4313      	orrs	r3, r2
    111a:	802b      	strh	r3, [r5, #0]
    111c:	bdf8      	pop	{r3, r4, r5, r6, r7, pc}
    111e:	4804      	ldr	r0, [pc, #16]	; (1130 <eeprom_read_settings+0x50>)
    1120:	4b04      	ldr	r3, [pc, #16]	; (1134 <eeprom_read_settings+0x54>)
    1122:	4798      	blx	r3
    1124:	e7fa      	b.n	111c <eeprom_read_settings+0x3c>
    1126:	46c0      	nop			; (mov r8, r8)
    1128:	20000a14 	.word	0x20000a14
    112c:	000047fd 	.word	0x000047fd
    1130:	0000ca4d 	.word	0x0000ca4d
    1134:	00002299 	.word	0x00002299

00001138 <eeprom_write_settings>:
    1138:	4b0e      	ldr	r3, [pc, #56]	; (1174 <eeprom_write_settings+0x3c>)
    113a:	b510      	push	{r4, lr}
    113c:	7018      	strb	r0, [r3, #0]
    113e:	7099      	strb	r1, [r3, #2]
    1140:	0a00      	lsrs	r0, r0, #8
    1142:	0a09      	lsrs	r1, r1, #8
    1144:	711a      	strb	r2, [r3, #4]
    1146:	0a12      	lsrs	r2, r2, #8
    1148:	7058      	strb	r0, [r3, #1]
    114a:	70d9      	strb	r1, [r3, #3]
    114c:	715a      	strb	r2, [r3, #5]
    114e:	0019      	movs	r1, r3
    1150:	2206      	movs	r2, #6
    1152:	2000      	movs	r0, #0
    1154:	4b08      	ldr	r3, [pc, #32]	; (1178 <eeprom_write_settings+0x40>)
    1156:	4798      	blx	r3
    1158:	2800      	cmp	r0, #0
    115a:	d002      	beq.n	1162 <eeprom_write_settings+0x2a>
    115c:	4807      	ldr	r0, [pc, #28]	; (117c <eeprom_write_settings+0x44>)
    115e:	4b08      	ldr	r3, [pc, #32]	; (1180 <eeprom_write_settings+0x48>)
    1160:	4798      	blx	r3
    1162:	4b08      	ldr	r3, [pc, #32]	; (1184 <eeprom_write_settings+0x4c>)
    1164:	4798      	blx	r3
    1166:	2800      	cmp	r0, #0
    1168:	d002      	beq.n	1170 <eeprom_write_settings+0x38>
    116a:	4807      	ldr	r0, [pc, #28]	; (1188 <eeprom_write_settings+0x50>)
    116c:	4b04      	ldr	r3, [pc, #16]	; (1180 <eeprom_write_settings+0x48>)
    116e:	4798      	blx	r3
    1170:	bd10      	pop	{r4, pc}
    1172:	46c0      	nop			; (mov r8, r8)
    1174:	20000a14 	.word	0x20000a14
    1178:	000049fd 	.word	0x000049fd
    117c:	0000ca78 	.word	0x0000ca78
    1180:	00002299 	.word	0x00002299
    1184:	00004885 	.word	0x00004885
    1188:	0000caab 	.word	0x0000caab

0000118c <eeprom_configure>:
    118c:	b5f7      	push	{r0, r1, r2, r4, r5, r6, r7, lr}
    118e:	4f17      	ldr	r7, [pc, #92]	; (11ec <eeprom_configure+0x60>)
    1190:	0005      	movs	r5, r0
    1192:	9101      	str	r1, [sp, #4]
    1194:	0016      	movs	r6, r2
    1196:	47b8      	blx	r7
    1198:	4c15      	ldr	r4, [pc, #84]	; (11f0 <eeprom_configure+0x64>)
    119a:	2800      	cmp	r0, #0
    119c:	d109      	bne.n	11b2 <eeprom_configure+0x26>
    119e:	4815      	ldr	r0, [pc, #84]	; (11f4 <eeprom_configure+0x68>)
    11a0:	47a0      	blx	r4
    11a2:	4815      	ldr	r0, [pc, #84]	; (11f8 <eeprom_configure+0x6c>)
    11a4:	47a0      	blx	r4
    11a6:	0032      	movs	r2, r6
    11a8:	9901      	ldr	r1, [sp, #4]
    11aa:	0028      	movs	r0, r5
    11ac:	4b13      	ldr	r3, [pc, #76]	; (11fc <eeprom_configure+0x70>)
    11ae:	4798      	blx	r3
    11b0:	bdf7      	pop	{r0, r1, r2, r4, r5, r6, r7, pc}
    11b2:	2816      	cmp	r0, #22
    11b4:	d102      	bne.n	11bc <eeprom_configure+0x30>
    11b6:	4812      	ldr	r0, [pc, #72]	; (1200 <eeprom_configure+0x74>)
    11b8:	47a0      	blx	r4
    11ba:	e7f9      	b.n	11b0 <eeprom_configure+0x24>
    11bc:	4811      	ldr	r0, [pc, #68]	; (1204 <eeprom_configure+0x78>)
    11be:	47a0      	blx	r4
    11c0:	4811      	ldr	r0, [pc, #68]	; (1208 <eeprom_configure+0x7c>)
    11c2:	47a0      	blx	r4
    11c4:	4811      	ldr	r0, [pc, #68]	; (120c <eeprom_configure+0x80>)
    11c6:	47a0      	blx	r4
    11c8:	4811      	ldr	r0, [pc, #68]	; (1210 <eeprom_configure+0x84>)
    11ca:	47a0      	blx	r4
    11cc:	4b11      	ldr	r3, [pc, #68]	; (1214 <eeprom_configure+0x88>)
    11ce:	4798      	blx	r3
    11d0:	47b8      	blx	r7
    11d2:	2800      	cmp	r0, #0
    11d4:	d1ec      	bne.n	11b0 <eeprom_configure+0x24>
    11d6:	4810      	ldr	r0, [pc, #64]	; (1218 <eeprom_configure+0x8c>)
    11d8:	47a0      	blx	r4
    11da:	4810      	ldr	r0, [pc, #64]	; (121c <eeprom_configure+0x90>)
    11dc:	47a0      	blx	r4
    11de:	9b01      	ldr	r3, [sp, #4]
    11e0:	8832      	ldrh	r2, [r6, #0]
    11e2:	8819      	ldrh	r1, [r3, #0]
    11e4:	8828      	ldrh	r0, [r5, #0]
    11e6:	4b0e      	ldr	r3, [pc, #56]	; (1220 <eeprom_configure+0x94>)
    11e8:	4798      	blx	r3
    11ea:	e7e1      	b.n	11b0 <eeprom_configure+0x24>
    11ec:	00004605 	.word	0x00004605
    11f0:	00002299 	.word	0x00002299
    11f4:	0000c8fd 	.word	0x0000c8fd
    11f8:	0000c91b 	.word	0x0000c91b
    11fc:	000010e1 	.word	0x000010e1
    1200:	0000c945 	.word	0x0000c945
    1204:	0000c96e 	.word	0x0000c96e
    1208:	0000c998 	.word	0x0000c998
    120c:	0000c9af 	.word	0x0000c9af
    1210:	0000c9d1 	.word	0x0000c9d1
    1214:	000046cd 	.word	0x000046cd
    1218:	0000ca02 	.word	0x0000ca02
    121c:	0000ca22 	.word	0x0000ca22
    1220:	00001139 	.word	0x00001139

00001224 <wcm_gpio_configure>:
    1224:	b5f8      	push	{r3, r4, r5, r6, r7, lr}
    1226:	2301      	movs	r3, #1
    1228:	4c19      	ldr	r4, [pc, #100]	; (1290 <wcm_gpio_configure+0x6c>)
    122a:	4d1a      	ldr	r5, [pc, #104]	; (1294 <wcm_gpio_configure+0x70>)
    122c:	7063      	strb	r3, [r4, #1]
    122e:	2380      	movs	r3, #128	; 0x80
    1230:	702b      	strb	r3, [r5, #0]
    1232:	3b7f      	subs	r3, #127	; 0x7f
    1234:	2600      	movs	r6, #0
    1236:	70ab      	strb	r3, [r5, #2]
    1238:	2301      	movs	r3, #1
    123a:	4f17      	ldr	r7, [pc, #92]	; (1298 <wcm_gpio_configure+0x74>)
    123c:	0021      	movs	r1, r4
    123e:	2008      	movs	r0, #8
    1240:	7023      	strb	r3, [r4, #0]
    1242:	70a6      	strb	r6, [r4, #2]
    1244:	706e      	strb	r6, [r5, #1]
    1246:	70ee      	strb	r6, [r5, #3]
    1248:	47b8      	blx	r7
    124a:	0021      	movs	r1, r4
    124c:	2002      	movs	r0, #2
    124e:	47b8      	blx	r7
    1250:	0021      	movs	r1, r4
    1252:	2006      	movs	r0, #6
    1254:	47b8      	blx	r7
    1256:	0021      	movs	r1, r4
    1258:	2012      	movs	r0, #18
    125a:	47b8      	blx	r7
    125c:	0021      	movs	r1, r4
    125e:	201b      	movs	r0, #27
    1260:	47b8      	blx	r7
    1262:	0021      	movs	r1, r4
    1264:	2013      	movs	r0, #19
    1266:	47b8      	blx	r7
    1268:	0021      	movs	r1, r4
    126a:	2018      	movs	r0, #24
    126c:	7026      	strb	r6, [r4, #0]
    126e:	7066      	strb	r6, [r4, #1]
    1270:	47b8      	blx	r7
    1272:	2301      	movs	r3, #1
    1274:	0029      	movs	r1, r5
    1276:	4c09      	ldr	r4, [pc, #36]	; (129c <wcm_gpio_configure+0x78>)
    1278:	2007      	movs	r0, #7
    127a:	706e      	strb	r6, [r5, #1]
    127c:	70ae      	strb	r6, [r5, #2]
    127e:	702b      	strb	r3, [r5, #0]
    1280:	47a0      	blx	r4
    1282:	2301      	movs	r3, #1
    1284:	0029      	movs	r1, r5
    1286:	200b      	movs	r0, #11
    1288:	702b      	strb	r3, [r5, #0]
    128a:	47a0      	blx	r4
    128c:	bdf8      	pop	{r3, r4, r5, r6, r7, pc}
    128e:	46c0      	nop			; (mov r8, r8)
    1290:	20000a1a 	.word	0x20000a1a
    1294:	20000a1d 	.word	0x20000a1d
    1298:	00004471 	.word	0x00004471
    129c:	000050b1 	.word	0x000050b1

000012a0 <wcm_gpio_spi_slave_select_get>:
    12a0:	2380      	movs	r3, #128	; 0x80
    12a2:	4905      	ldr	r1, [pc, #20]	; (12b8 <wcm_gpio_spi_slave_select_get+0x18>)
    12a4:	b510      	push	{r4, lr}
    12a6:	2018      	movs	r0, #24
    12a8:	700b      	strb	r3, [r1, #0]
    12aa:	4b04      	ldr	r3, [pc, #16]	; (12bc <wcm_gpio_spi_slave_select_get+0x1c>)
    12ac:	4798      	blx	r3
    12ae:	4b04      	ldr	r3, [pc, #16]	; (12c0 <wcm_gpio_spi_slave_select_get+0x20>)
    12b0:	6a18      	ldr	r0, [r3, #32]
    12b2:	01c0      	lsls	r0, r0, #7
    12b4:	0fc0      	lsrs	r0, r0, #31
    12b6:	bd10      	pop	{r4, pc}
    12b8:	20000a1d 	.word	0x20000a1d
    12bc:	000050b1 	.word	0x000050b1
    12c0:	40002800 	.word	0x40002800

000012c4 <wcm_gpio_3v3va_get>:
    12c4:	4b02      	ldr	r3, [pc, #8]	; (12d0 <wcm_gpio_3v3va_get+0xc>)
    12c6:	6918      	ldr	r0, [r3, #16]
    12c8:	05c0      	lsls	r0, r0, #23
    12ca:	0fc0      	lsrs	r0, r0, #31
    12cc:	4770      	bx	lr
    12ce:	46c0      	nop			; (mov r8, r8)
    12d0:	40002800 	.word	0x40002800

000012d4 <wcm_gpio_3v3va_off>:
    12d4:	2280      	movs	r2, #128	; 0x80
    12d6:	4b02      	ldr	r3, [pc, #8]	; (12e0 <wcm_gpio_3v3va_off+0xc>)
    12d8:	0052      	lsls	r2, r2, #1
    12da:	615a      	str	r2, [r3, #20]
    12dc:	4770      	bx	lr
    12de:	46c0      	nop			; (mov r8, r8)
    12e0:	40002800 	.word	0x40002800

000012e4 <wcm_gpio_3v3va_on>:
    12e4:	2280      	movs	r2, #128	; 0x80
    12e6:	b510      	push	{r4, lr}
    12e8:	4b03      	ldr	r3, [pc, #12]	; (12f8 <wcm_gpio_3v3va_on+0x14>)
    12ea:	0052      	lsls	r2, r2, #1
    12ec:	619a      	str	r2, [r3, #24]
    12ee:	20c8      	movs	r0, #200	; 0xc8
    12f0:	4b02      	ldr	r3, [pc, #8]	; (12fc <wcm_gpio_3v3va_on+0x18>)
    12f2:	4798      	blx	r3
    12f4:	bd10      	pop	{r4, pc}
    12f6:	46c0      	nop			; (mov r8, r8)
    12f8:	40002800 	.word	0x40002800
    12fc:	00004051 	.word	0x00004051

00001300 <wcm_gpio_gps_pwr_en_get>:
    1300:	4b02      	ldr	r3, [pc, #8]	; (130c <wcm_gpio_gps_pwr_en_get+0xc>)
    1302:	6918      	ldr	r0, [r3, #16]
    1304:	0740      	lsls	r0, r0, #29
    1306:	0fc0      	lsrs	r0, r0, #31
    1308:	4770      	bx	lr
    130a:	46c0      	nop			; (mov r8, r8)
    130c:	40002800 	.word	0x40002800

00001310 <wcm_gpio_gps_pwr_en_off>:
    1310:	2204      	movs	r2, #4
    1312:	4b01      	ldr	r3, [pc, #4]	; (1318 <wcm_gpio_gps_pwr_en_off+0x8>)
    1314:	615a      	str	r2, [r3, #20]
    1316:	4770      	bx	lr
    1318:	40002800 	.word	0x40002800

0000131c <wcm_gpio_gps_pwr_en_on>:
    131c:	2204      	movs	r2, #4
    131e:	4b01      	ldr	r3, [pc, #4]	; (1324 <wcm_gpio_gps_pwr_en_on+0x8>)
    1320:	619a      	str	r2, [r3, #24]
    1322:	4770      	bx	lr
    1324:	40002800 	.word	0x40002800

00001328 <wcm_gpio_com_sw_a_get>:
    1328:	4b02      	ldr	r3, [pc, #8]	; (1334 <wcm_gpio_com_sw_a_get+0xc>)
    132a:	6918      	ldr	r0, [r3, #16]
    132c:	0700      	lsls	r0, r0, #28
    132e:	0fc0      	lsrs	r0, r0, #31
    1330:	4770      	bx	lr
    1332:	46c0      	nop			; (mov r8, r8)
    1334:	40002800 	.word	0x40002800

00001338 <wcm_gpio_com_sw_a_off>:
    1338:	2208      	movs	r2, #8
    133a:	4b01      	ldr	r3, [pc, #4]	; (1340 <wcm_gpio_com_sw_a_off+0x8>)
    133c:	615a      	str	r2, [r3, #20]
    133e:	4770      	bx	lr
    1340:	40002800 	.word	0x40002800

00001344 <wcm_gpio_com_sw_a_on>:
    1344:	2208      	movs	r2, #8
    1346:	4b01      	ldr	r3, [pc, #4]	; (134c <wcm_gpio_com_sw_a_on+0x8>)
    1348:	619a      	str	r2, [r3, #24]
    134a:	4770      	bx	lr
    134c:	40002800 	.word	0x40002800

00001350 <wcm_gpio_sat_pwr_en_get>:
    1350:	4b02      	ldr	r3, [pc, #8]	; (135c <wcm_gpio_sat_pwr_en_get+0xc>)
    1352:	6918      	ldr	r0, [r3, #16]
    1354:	0640      	lsls	r0, r0, #25
    1356:	0fc0      	lsrs	r0, r0, #31
    1358:	4770      	bx	lr
    135a:	46c0      	nop			; (mov r8, r8)
    135c:	40002800 	.word	0x40002800

00001360 <wcm_gpio_sat_pwr_en_off>:
    1360:	2240      	movs	r2, #64	; 0x40
    1362:	4b01      	ldr	r3, [pc, #4]	; (1368 <wcm_gpio_sat_pwr_en_off+0x8>)
    1364:	615a      	str	r2, [r3, #20]
    1366:	4770      	bx	lr
    1368:	40002800 	.word	0x40002800

0000136c <wcm_gpio_sat_pwr_en_on>:
    136c:	2240      	movs	r2, #64	; 0x40
    136e:	4b01      	ldr	r3, [pc, #4]	; (1374 <wcm_gpio_sat_pwr_en_on+0x8>)
    1370:	619a      	str	r2, [r3, #24]
    1372:	4770      	bx	lr
    1374:	40002800 	.word	0x40002800

00001378 <wcm_gpio_cell_pwr_en_get>:
    1378:	4b02      	ldr	r3, [pc, #8]	; (1384 <wcm_gpio_cell_pwr_en_get+0xc>)
    137a:	6918      	ldr	r0, [r3, #16]
    137c:	0340      	lsls	r0, r0, #13
    137e:	0fc0      	lsrs	r0, r0, #31
    1380:	4770      	bx	lr
    1382:	46c0      	nop			; (mov r8, r8)
    1384:	40002800 	.word	0x40002800

00001388 <wcm_gpio_cell_pwr_en_off>:
    1388:	2280      	movs	r2, #128	; 0x80
    138a:	4b02      	ldr	r3, [pc, #8]	; (1394 <wcm_gpio_cell_pwr_en_off+0xc>)
    138c:	02d2      	lsls	r2, r2, #11
    138e:	615a      	str	r2, [r3, #20]
    1390:	4770      	bx	lr
    1392:	46c0      	nop			; (mov r8, r8)
    1394:	40002800 	.word	0x40002800

00001398 <wcm_gpio_cell_pwr_en_on>:
    1398:	2280      	movs	r2, #128	; 0x80
    139a:	4b02      	ldr	r3, [pc, #8]	; (13a4 <wcm_gpio_cell_pwr_en_on+0xc>)
    139c:	02d2      	lsls	r2, r2, #11
    139e:	619a      	str	r2, [r3, #24]
    13a0:	4770      	bx	lr
    13a2:	46c0      	nop			; (mov r8, r8)
    13a4:	40002800 	.word	0x40002800

000013a8 <wcm_gpio_wf_pwr_en_get>:
    13a8:	4b02      	ldr	r3, [pc, #8]	; (13b4 <wcm_gpio_wf_pwr_en_get+0xc>)
    13aa:	6918      	ldr	r0, [r3, #16]
    13ac:	0100      	lsls	r0, r0, #4
    13ae:	0fc0      	lsrs	r0, r0, #31
    13b0:	4770      	bx	lr
    13b2:	46c0      	nop			; (mov r8, r8)
    13b4:	40002800 	.word	0x40002800

000013b8 <wcm_gpio_wf_pwr_en_off>:
    13b8:	2280      	movs	r2, #128	; 0x80
    13ba:	4b02      	ldr	r3, [pc, #8]	; (13c4 <wcm_gpio_wf_pwr_en_off+0xc>)
    13bc:	0512      	lsls	r2, r2, #20
    13be:	615a      	str	r2, [r3, #20]
    13c0:	4770      	bx	lr
    13c2:	46c0      	nop			; (mov r8, r8)
    13c4:	40002800 	.word	0x40002800

000013c8 <wcm_gpio_wf_pwr_en_on>:
    13c8:	2280      	movs	r2, #128	; 0x80
    13ca:	4b02      	ldr	r3, [pc, #8]	; (13d4 <wcm_gpio_wf_pwr_en_on+0xc>)
    13cc:	0512      	lsls	r2, r2, #20
    13ce:	619a      	str	r2, [r3, #24]
    13d0:	4770      	bx	lr
    13d2:	46c0      	nop			; (mov r8, r8)
    13d4:	40002800 	.word	0x40002800

000013d8 <wcm_lgt_get>:
    13d8:	4b02      	ldr	r3, [pc, #8]	; (13e4 <wcm_lgt_get+0xc>)
    13da:	6918      	ldr	r0, [r3, #16]
    13dc:	0300      	lsls	r0, r0, #12
    13de:	0fc0      	lsrs	r0, r0, #31
    13e0:	4770      	bx	lr
    13e2:	46c0      	nop			; (mov r8, r8)
    13e4:	40002800 	.word	0x40002800

000013e8 <wcm_lgt_off>:
    13e8:	2280      	movs	r2, #128	; 0x80
    13ea:	4b02      	ldr	r3, [pc, #8]	; (13f4 <wcm_lgt_off+0xc>)
    13ec:	0312      	lsls	r2, r2, #12
    13ee:	615a      	str	r2, [r3, #20]
    13f0:	4770      	bx	lr
    13f2:	46c0      	nop			; (mov r8, r8)
    13f4:	40002800 	.word	0x40002800

000013f8 <wcm_lgt_on>:
    13f8:	2280      	movs	r2, #128	; 0x80
    13fa:	4b02      	ldr	r3, [pc, #8]	; (1404 <wcm_lgt_on+0xc>)
    13fc:	0312      	lsls	r2, r2, #12
    13fe:	619a      	str	r2, [r3, #24]
    1400:	4770      	bx	lr
    1402:	46c0      	nop			; (mov r8, r8)
    1404:	40002800 	.word	0x40002800

00001408 <wcm_i2c_configure>:
    1408:	2180      	movs	r1, #128	; 0x80
    140a:	2364      	movs	r3, #100	; 0x64
    140c:	b510      	push	{r4, lr}
    140e:	b08e      	sub	sp, #56	; 0x38
    1410:	aa01      	add	r2, sp, #4
    1412:	0389      	lsls	r1, r1, #14
    1414:	6111      	str	r1, [r2, #16]
    1416:	2101      	movs	r1, #1
    1418:	9301      	str	r3, [sp, #4]
    141a:	4b1c      	ldr	r3, [pc, #112]	; (148c <wcm_i2c_configure+0x84>)
    141c:	4249      	negs	r1, r1
    141e:	6053      	str	r3, [r2, #4]
    1420:	2300      	movs	r3, #0
    1422:	82d1      	strh	r1, [r2, #22]
    1424:	8291      	strh	r1, [r2, #20]
    1426:	310a      	adds	r1, #10
    1428:	4469      	add	r1, sp
    142a:	77cb      	strb	r3, [r1, #31]
    142c:	a90c      	add	r1, sp, #48	; 0x30
    142e:	700b      	strb	r3, [r1, #0]
    1430:	2131      	movs	r1, #49	; 0x31
    1432:	4469      	add	r1, sp
    1434:	700b      	strb	r3, [r1, #0]
    1436:	2132      	movs	r1, #50	; 0x32
    1438:	4469      	add	r1, sp
    143a:	6093      	str	r3, [r2, #8]
    143c:	7313      	strb	r3, [r2, #12]
    143e:	7613      	strb	r3, [r2, #24]
    1440:	6293      	str	r3, [r2, #40]	; 0x28
    1442:	700b      	strb	r3, [r1, #0]
    1444:	33d7      	adds	r3, #215	; 0xd7
    1446:	8613      	strh	r3, [r2, #48]	; 0x30
    1448:	4b11      	ldr	r3, [pc, #68]	; (1490 <wcm_i2c_configure+0x88>)
    144a:	4c12      	ldr	r4, [pc, #72]	; (1494 <wcm_i2c_configure+0x8c>)
    144c:	61d3      	str	r3, [r2, #28]
    144e:	4b12      	ldr	r3, [pc, #72]	; (1498 <wcm_i2c_configure+0x90>)
    1450:	4912      	ldr	r1, [pc, #72]	; (149c <wcm_i2c_configure+0x94>)
    1452:	6213      	str	r3, [r2, #32]
    1454:	0020      	movs	r0, r4
    1456:	4b12      	ldr	r3, [pc, #72]	; (14a0 <wcm_i2c_configure+0x98>)
    1458:	4798      	blx	r3
    145a:	2107      	movs	r1, #7
    145c:	6822      	ldr	r2, [r4, #0]
    145e:	69d3      	ldr	r3, [r2, #28]
    1460:	400b      	ands	r3, r1
    1462:	d1fc      	bne.n	145e <wcm_i2c_configure+0x56>
    1464:	2102      	movs	r1, #2
    1466:	6810      	ldr	r0, [r2, #0]
    1468:	4301      	orrs	r1, r0
    146a:	6011      	str	r1, [r2, #0]
    146c:	2110      	movs	r1, #16
    146e:	88e4      	ldrh	r4, [r4, #6]
    1470:	8b50      	ldrh	r0, [r2, #26]
    1472:	4208      	tst	r0, r1
    1474:	d103      	bne.n	147e <wcm_i2c_configure+0x76>
    1476:	3301      	adds	r3, #1
    1478:	42a3      	cmp	r3, r4
    147a:	d3f9      	bcc.n	1470 <wcm_i2c_configure+0x68>
    147c:	8351      	strh	r1, [r2, #26]
    147e:	2200      	movs	r2, #0
    1480:	4b08      	ldr	r3, [pc, #32]	; (14a4 <wcm_i2c_configure+0x9c>)
    1482:	721a      	strb	r2, [r3, #8]
    1484:	725a      	strb	r2, [r3, #9]
    1486:	729a      	strb	r2, [r3, #10]
    1488:	b00e      	add	sp, #56	; 0x38
    148a:	bd10      	pop	{r4, pc}
    148c:	00000d48 	.word	0x00000d48
    1490:	00100003 	.word	0x00100003
    1494:	20000a24 	.word	0x20000a24
    1498:	00110003 	.word	0x00110003
    149c:	42000c00 	.word	0x42000c00
    14a0:	00002ab9 	.word	0x00002ab9
    14a4:	20000a30 	.word	0x20000a30

000014a8 <wcm_i2c_read_response_packet>:
    14a8:	b5f0      	push	{r4, r5, r6, r7, lr}
    14aa:	000e      	movs	r6, r1
    14ac:	4913      	ldr	r1, [pc, #76]	; (14fc <wcm_i2c_read_response_packet+0x54>)
    14ae:	4f14      	ldr	r7, [pc, #80]	; (1500 <wcm_i2c_read_response_packet+0x58>)
    14b0:	8008      	strh	r0, [r1, #0]
    14b2:	b0a1      	sub	sp, #132	; 0x84
    14b4:	4813      	ldr	r0, [pc, #76]	; (1504 <wcm_i2c_read_response_packet+0x5c>)
    14b6:	4b14      	ldr	r3, [pc, #80]	; (1508 <wcm_i2c_read_response_packet+0x60>)
    14b8:	0015      	movs	r5, r2
    14ba:	604f      	str	r7, [r1, #4]
    14bc:	804a      	strh	r2, [r1, #2]
    14be:	4798      	blx	r3
    14c0:	1e04      	subs	r4, r0, #0
    14c2:	d00a      	beq.n	14da <wcm_i2c_read_response_packet+0x32>
    14c4:	0002      	movs	r2, r0
    14c6:	4b11      	ldr	r3, [pc, #68]	; (150c <wcm_i2c_read_response_packet+0x64>)
    14c8:	4911      	ldr	r1, [pc, #68]	; (1510 <wcm_i2c_read_response_packet+0x68>)
    14ca:	4668      	mov	r0, sp
    14cc:	4798      	blx	r3
    14ce:	4668      	mov	r0, sp
    14d0:	4b10      	ldr	r3, [pc, #64]	; (1514 <wcm_i2c_read_response_packet+0x6c>)
    14d2:	4798      	blx	r3
    14d4:	0020      	movs	r0, r4
    14d6:	b021      	add	sp, #132	; 0x84
    14d8:	bdf0      	pop	{r4, r5, r6, r7, pc}
    14da:	0002      	movs	r2, r0
    14dc:	1e6b      	subs	r3, r5, #1
    14de:	00db      	lsls	r3, r3, #3
    14e0:	6030      	str	r0, [r6, #0]
    14e2:	b29b      	uxth	r3, r3
    14e4:	b291      	uxth	r1, r2
    14e6:	428d      	cmp	r5, r1
    14e8:	d9f4      	bls.n	14d4 <wcm_i2c_read_response_packet+0x2c>
    14ea:	5cb9      	ldrb	r1, [r7, r2]
    14ec:	6830      	ldr	r0, [r6, #0]
    14ee:	4099      	lsls	r1, r3
    14f0:	3b08      	subs	r3, #8
    14f2:	4301      	orrs	r1, r0
    14f4:	6031      	str	r1, [r6, #0]
    14f6:	b29b      	uxth	r3, r3
    14f8:	3201      	adds	r2, #1
    14fa:	e7f3      	b.n	14e4 <wcm_i2c_read_response_packet+0x3c>
    14fc:	20000a30 	.word	0x20000a30
    1500:	20000a3c 	.word	0x20000a3c
    1504:	20000a24 	.word	0x20000a24
    1508:	00003005 	.word	0x00003005
    150c:	00007a41 	.word	0x00007a41
    1510:	0000cb76 	.word	0x0000cb76
    1514:	00002299 	.word	0x00002299

00001518 <wcm_i2c_write_command_packet>:
    1518:	b510      	push	{r4, lr}
    151a:	000c      	movs	r4, r1
    151c:	490c      	ldr	r1, [pc, #48]	; (1550 <wcm_i2c_write_command_packet+0x38>)
    151e:	b0a0      	sub	sp, #128	; 0x80
    1520:	8008      	strh	r0, [r1, #0]
    1522:	604c      	str	r4, [r1, #4]
    1524:	804a      	strh	r2, [r1, #2]
    1526:	480b      	ldr	r0, [pc, #44]	; (1554 <wcm_i2c_write_command_packet+0x3c>)
    1528:	2b00      	cmp	r3, #0
    152a:	d10e      	bne.n	154a <wcm_i2c_write_command_packet+0x32>
    152c:	4b0a      	ldr	r3, [pc, #40]	; (1558 <wcm_i2c_write_command_packet+0x40>)
    152e:	4798      	blx	r3
    1530:	1e04      	subs	r4, r0, #0
    1532:	d007      	beq.n	1544 <wcm_i2c_write_command_packet+0x2c>
    1534:	0002      	movs	r2, r0
    1536:	4b09      	ldr	r3, [pc, #36]	; (155c <wcm_i2c_write_command_packet+0x44>)
    1538:	4909      	ldr	r1, [pc, #36]	; (1560 <wcm_i2c_write_command_packet+0x48>)
    153a:	4668      	mov	r0, sp
    153c:	4798      	blx	r3
    153e:	4668      	mov	r0, sp
    1540:	4b08      	ldr	r3, [pc, #32]	; (1564 <wcm_i2c_write_command_packet+0x4c>)
    1542:	4798      	blx	r3
    1544:	0020      	movs	r0, r4
    1546:	b020      	add	sp, #128	; 0x80
    1548:	bd10      	pop	{r4, pc}
    154a:	4b07      	ldr	r3, [pc, #28]	; (1568 <wcm_i2c_write_command_packet+0x50>)
    154c:	e7ef      	b.n	152e <wcm_i2c_write_command_packet+0x16>
    154e:	46c0      	nop			; (mov r8, r8)
    1550:	20000a30 	.word	0x20000a30
    1554:	20000a24 	.word	0x20000a24
    1558:	00003019 	.word	0x00003019
    155c:	00007a41 	.word	0x00007a41
    1560:	0000cba5 	.word	0x0000cba5
    1564:	00002299 	.word	0x00002299
    1568:	0000302d 	.word	0x0000302d

0000156c <wcm_i2c_write_command_read_response>:
    156c:	b5f0      	push	{r4, r5, r6, r7, lr}
    156e:	b0a1      	sub	sp, #132	; 0x84
    1570:	001e      	movs	r6, r3
    1572:	ab26      	add	r3, sp, #152	; 0x98
    1574:	881f      	ldrh	r7, [r3, #0]
    1576:	ab27      	add	r3, sp, #156	; 0x9c
    1578:	4c0d      	ldr	r4, [pc, #52]	; (15b0 <wcm_i2c_write_command_read_response+0x44>)
    157a:	781b      	ldrb	r3, [r3, #0]
    157c:	0005      	movs	r5, r0
    157e:	47a0      	blx	r4
    1580:	1e04      	subs	r4, r0, #0
    1582:	d00a      	beq.n	159a <wcm_i2c_write_command_read_response+0x2e>
    1584:	0002      	movs	r2, r0
    1586:	490b      	ldr	r1, [pc, #44]	; (15b4 <wcm_i2c_write_command_read_response+0x48>)
    1588:	4b0b      	ldr	r3, [pc, #44]	; (15b8 <wcm_i2c_write_command_read_response+0x4c>)
    158a:	4668      	mov	r0, sp
    158c:	4798      	blx	r3
    158e:	4668      	mov	r0, sp
    1590:	4b0a      	ldr	r3, [pc, #40]	; (15bc <wcm_i2c_write_command_read_response+0x50>)
    1592:	4798      	blx	r3
    1594:	0020      	movs	r0, r4
    1596:	b021      	add	sp, #132	; 0x84
    1598:	bdf0      	pop	{r4, r5, r6, r7, pc}
    159a:	003a      	movs	r2, r7
    159c:	0031      	movs	r1, r6
    159e:	0028      	movs	r0, r5
    15a0:	4b07      	ldr	r3, [pc, #28]	; (15c0 <wcm_i2c_write_command_read_response+0x54>)
    15a2:	4798      	blx	r3
    15a4:	1e04      	subs	r4, r0, #0
    15a6:	d0f5      	beq.n	1594 <wcm_i2c_write_command_read_response+0x28>
    15a8:	0002      	movs	r2, r0
    15aa:	4906      	ldr	r1, [pc, #24]	; (15c4 <wcm_i2c_write_command_read_response+0x58>)
    15ac:	e7ec      	b.n	1588 <wcm_i2c_write_command_read_response+0x1c>
    15ae:	46c0      	nop			; (mov r8, r8)
    15b0:	00001519 	.word	0x00001519
    15b4:	0000cbd4 	.word	0x0000cbd4
    15b8:	00007a41 	.word	0x00007a41
    15bc:	00002299 	.word	0x00002299
    15c0:	000014a9 	.word	0x000014a9
    15c4:	0000cc0e 	.word	0x0000cc0e

000015c8 <wcm_i2c_command_read_reg>:
    15c8:	b5f0      	push	{r4, r5, r6, r7, lr}
    15ca:	b0a3      	sub	sp, #140	; 0x8c
    15cc:	001f      	movs	r7, r3
    15ce:	ab28      	add	r3, sp, #160	; 0xa0
    15d0:	881e      	ldrh	r6, [r3, #0]
    15d2:	466b      	mov	r3, sp
    15d4:	0005      	movs	r5, r0
    15d6:	0008      	movs	r0, r1
    15d8:	1dd9      	adds	r1, r3, #7
    15da:	700a      	strb	r2, [r1, #0]
    15dc:	4c0e      	ldr	r4, [pc, #56]	; (1618 <wcm_i2c_command_read_reg+0x50>)
    15de:	0002      	movs	r2, r0
    15e0:	2301      	movs	r3, #1
    15e2:	0028      	movs	r0, r5
    15e4:	47a0      	blx	r4
    15e6:	1e04      	subs	r4, r0, #0
    15e8:	d00a      	beq.n	1600 <wcm_i2c_command_read_reg+0x38>
    15ea:	0002      	movs	r2, r0
    15ec:	490b      	ldr	r1, [pc, #44]	; (161c <wcm_i2c_command_read_reg+0x54>)
    15ee:	4b0c      	ldr	r3, [pc, #48]	; (1620 <wcm_i2c_command_read_reg+0x58>)
    15f0:	a802      	add	r0, sp, #8
    15f2:	4798      	blx	r3
    15f4:	a802      	add	r0, sp, #8
    15f6:	4b0b      	ldr	r3, [pc, #44]	; (1624 <wcm_i2c_command_read_reg+0x5c>)
    15f8:	4798      	blx	r3
    15fa:	0020      	movs	r0, r4
    15fc:	b023      	add	sp, #140	; 0x8c
    15fe:	bdf0      	pop	{r4, r5, r6, r7, pc}
    1600:	4909      	ldr	r1, [pc, #36]	; (1628 <wcm_i2c_command_read_reg+0x60>)
    1602:	480a      	ldr	r0, [pc, #40]	; (162c <wcm_i2c_command_read_reg+0x64>)
    1604:	4b0a      	ldr	r3, [pc, #40]	; (1630 <wcm_i2c_command_read_reg+0x68>)
    1606:	800d      	strh	r5, [r1, #0]
    1608:	604f      	str	r7, [r1, #4]
    160a:	804e      	strh	r6, [r1, #2]
    160c:	4798      	blx	r3
    160e:	1e04      	subs	r4, r0, #0
    1610:	d0f3      	beq.n	15fa <wcm_i2c_command_read_reg+0x32>
    1612:	0002      	movs	r2, r0
    1614:	4907      	ldr	r1, [pc, #28]	; (1634 <wcm_i2c_command_read_reg+0x6c>)
    1616:	e7ea      	b.n	15ee <wcm_i2c_command_read_reg+0x26>
    1618:	00001519 	.word	0x00001519
    161c:	0000cade 	.word	0x0000cade
    1620:	00007a41 	.word	0x00007a41
    1624:	00002299 	.word	0x00002299
    1628:	20000a30 	.word	0x20000a30
    162c:	20000a24 	.word	0x20000a24
    1630:	00003005 	.word	0x00003005
    1634:	0000cb16 	.word	0x0000cb16

00001638 <wcm_i2c_command_write_reg>:
    1638:	b510      	push	{r4, lr}
    163a:	b0a2      	sub	sp, #136	; 0x88
    163c:	ac01      	add	r4, sp, #4
    163e:	7021      	strb	r1, [r4, #0]
    1640:	490a      	ldr	r1, [pc, #40]	; (166c <wcm_i2c_command_write_reg+0x34>)
    1642:	7812      	ldrb	r2, [r2, #0]
    1644:	8008      	strh	r0, [r1, #0]
    1646:	804b      	strh	r3, [r1, #2]
    1648:	4809      	ldr	r0, [pc, #36]	; (1670 <wcm_i2c_command_write_reg+0x38>)
    164a:	4b0a      	ldr	r3, [pc, #40]	; (1674 <wcm_i2c_command_write_reg+0x3c>)
    164c:	7062      	strb	r2, [r4, #1]
    164e:	604c      	str	r4, [r1, #4]
    1650:	4798      	blx	r3
    1652:	1e04      	subs	r4, r0, #0
    1654:	d007      	beq.n	1666 <wcm_i2c_command_write_reg+0x2e>
    1656:	0002      	movs	r2, r0
    1658:	4b07      	ldr	r3, [pc, #28]	; (1678 <wcm_i2c_command_write_reg+0x40>)
    165a:	4908      	ldr	r1, [pc, #32]	; (167c <wcm_i2c_command_write_reg+0x44>)
    165c:	a802      	add	r0, sp, #8
    165e:	4798      	blx	r3
    1660:	a802      	add	r0, sp, #8
    1662:	4b07      	ldr	r3, [pc, #28]	; (1680 <wcm_i2c_command_write_reg+0x48>)
    1664:	4798      	blx	r3
    1666:	0020      	movs	r0, r4
    1668:	b022      	add	sp, #136	; 0x88
    166a:	bd10      	pop	{r4, pc}
    166c:	20000a30 	.word	0x20000a30
    1670:	20000a24 	.word	0x20000a24
    1674:	00003019 	.word	0x00003019
    1678:	00007a41 	.word	0x00007a41
    167c:	0000cb4a 	.word	0x0000cb4a
    1680:	00002299 	.word	0x00002299

00001684 <mc3416_set_mode>:
    1684:	b537      	push	{r0, r1, r2, r4, r5, lr}
    1686:	466b      	mov	r3, sp
    1688:	1ddc      	adds	r4, r3, #7
    168a:	71d8      	strb	r0, [r3, #7]
    168c:	4d0b      	ldr	r5, [pc, #44]	; (16bc <mc3416_set_mode+0x38>)
    168e:	2302      	movs	r3, #2
    1690:	0022      	movs	r2, r4
    1692:	2107      	movs	r1, #7
    1694:	204c      	movs	r0, #76	; 0x4c
    1696:	47a8      	blx	r5
    1698:	7823      	ldrb	r3, [r4, #0]
    169a:	0005      	movs	r5, r0
    169c:	07db      	lsls	r3, r3, #31
    169e:	d506      	bpl.n	16ae <mc3416_set_mode+0x2a>
    16a0:	20fa      	movs	r0, #250	; 0xfa
    16a2:	4b07      	ldr	r3, [pc, #28]	; (16c0 <mc3416_set_mode+0x3c>)
    16a4:	0080      	lsls	r0, r0, #2
    16a6:	4798      	blx	r3
    16a8:	4806      	ldr	r0, [pc, #24]	; (16c4 <mc3416_set_mode+0x40>)
    16aa:	4b07      	ldr	r3, [pc, #28]	; (16c8 <mc3416_set_mode+0x44>)
    16ac:	4798      	blx	r3
    16ae:	2d00      	cmp	r5, #0
    16b0:	d002      	beq.n	16b8 <mc3416_set_mode+0x34>
    16b2:	4806      	ldr	r0, [pc, #24]	; (16cc <mc3416_set_mode+0x48>)
    16b4:	4b04      	ldr	r3, [pc, #16]	; (16c8 <mc3416_set_mode+0x44>)
    16b6:	4798      	blx	r3
    16b8:	0028      	movs	r0, r5
    16ba:	bd3e      	pop	{r1, r2, r3, r4, r5, pc}
    16bc:	00001639 	.word	0x00001639
    16c0:	0000407d 	.word	0x0000407d
    16c4:	0000ccb5 	.word	0x0000ccb5
    16c8:	00002299 	.word	0x00002299
    16cc:	0000ccce 	.word	0x0000ccce

000016d0 <mc3416_check_mode>:
    16d0:	b530      	push	{r4, r5, lr}
    16d2:	250f      	movs	r5, #15
    16d4:	2101      	movs	r1, #1
    16d6:	b085      	sub	sp, #20
    16d8:	446d      	add	r5, sp
    16da:	4c0c      	ldr	r4, [pc, #48]	; (170c <mc3416_check_mode+0x3c>)
    16dc:	9100      	str	r1, [sp, #0]
    16de:	002b      	movs	r3, r5
    16e0:	2205      	movs	r2, #5
    16e2:	204c      	movs	r0, #76	; 0x4c
    16e4:	47a0      	blx	r4
    16e6:	1e04      	subs	r4, r0, #0
    16e8:	d005      	beq.n	16f6 <mc3416_check_mode+0x26>
    16ea:	4809      	ldr	r0, [pc, #36]	; (1710 <mc3416_check_mode+0x40>)
    16ec:	4b09      	ldr	r3, [pc, #36]	; (1714 <mc3416_check_mode+0x44>)
    16ee:	4798      	blx	r3
    16f0:	0020      	movs	r0, r4
    16f2:	b005      	add	sp, #20
    16f4:	bd30      	pop	{r4, r5, pc}
    16f6:	2203      	movs	r2, #3
    16f8:	782b      	ldrb	r3, [r5, #0]
    16fa:	4013      	ands	r3, r2
    16fc:	702b      	strb	r3, [r5, #0]
    16fe:	d1f7      	bne.n	16f0 <mc3416_check_mode+0x20>
    1700:	4805      	ldr	r0, [pc, #20]	; (1718 <mc3416_check_mode+0x48>)
    1702:	4b04      	ldr	r3, [pc, #16]	; (1714 <mc3416_check_mode+0x44>)
    1704:	4798      	blx	r3
    1706:	2405      	movs	r4, #5
    1708:	e7f2      	b.n	16f0 <mc3416_check_mode+0x20>
    170a:	46c0      	nop			; (mov r8, r8)
    170c:	000015c9 	.word	0x000015c9
    1710:	0000cc48 	.word	0x0000cc48
    1714:	00002299 	.word	0x00002299
    1718:	0000cc6a 	.word	0x0000cc6a

0000171c <mc3416_set_sampling_rate>:
    171c:	b530      	push	{r4, r5, lr}
    171e:	240f      	movs	r4, #15
    1720:	2300      	movs	r3, #0
    1722:	2101      	movs	r1, #1
    1724:	b085      	sub	sp, #20
    1726:	446c      	add	r4, sp
    1728:	7023      	strb	r3, [r4, #0]
    172a:	4d0d      	ldr	r5, [pc, #52]	; (1760 <mc3416_set_sampling_rate+0x44>)
    172c:	9100      	str	r1, [sp, #0]
    172e:	0023      	movs	r3, r4
    1730:	2208      	movs	r2, #8
    1732:	204c      	movs	r0, #76	; 0x4c
    1734:	47a8      	blx	r5
    1736:	1e05      	subs	r5, r0, #0
    1738:	480a      	ldr	r0, [pc, #40]	; (1764 <mc3416_set_sampling_rate+0x48>)
    173a:	d10c      	bne.n	1756 <mc3416_set_sampling_rate+0x3a>
    173c:	2207      	movs	r2, #7
    173e:	7823      	ldrb	r3, [r4, #0]
    1740:	2108      	movs	r1, #8
    1742:	4393      	bics	r3, r2
    1744:	7023      	strb	r3, [r4, #0]
    1746:	0022      	movs	r2, r4
    1748:	2302      	movs	r3, #2
    174a:	204c      	movs	r0, #76	; 0x4c
    174c:	4c06      	ldr	r4, [pc, #24]	; (1768 <mc3416_set_sampling_rate+0x4c>)
    174e:	47a0      	blx	r4
    1750:	1e05      	subs	r5, r0, #0
    1752:	d002      	beq.n	175a <mc3416_set_sampling_rate+0x3e>
    1754:	4805      	ldr	r0, [pc, #20]	; (176c <mc3416_set_sampling_rate+0x50>)
    1756:	4b06      	ldr	r3, [pc, #24]	; (1770 <mc3416_set_sampling_rate+0x54>)
    1758:	4798      	blx	r3
    175a:	0028      	movs	r0, r5
    175c:	b005      	add	sp, #20
    175e:	bd30      	pop	{r4, r5, pc}
    1760:	000015c9 	.word	0x000015c9
    1764:	0000cd48 	.word	0x0000cd48
    1768:	00001639 	.word	0x00001639
    176c:	0000cd71 	.word	0x0000cd71
    1770:	00002299 	.word	0x00002299

00001774 <mc3416_set_range_resolution>:
    1774:	b530      	push	{r4, r5, lr}
    1776:	240f      	movs	r4, #15
    1778:	2300      	movs	r3, #0
    177a:	2101      	movs	r1, #1
    177c:	b085      	sub	sp, #20
    177e:	446c      	add	r4, sp
    1780:	7023      	strb	r3, [r4, #0]
    1782:	4d0f      	ldr	r5, [pc, #60]	; (17c0 <mc3416_set_range_resolution+0x4c>)
    1784:	9100      	str	r1, [sp, #0]
    1786:	0023      	movs	r3, r4
    1788:	2220      	movs	r2, #32
    178a:	204c      	movs	r0, #76	; 0x4c
    178c:	47a8      	blx	r5
    178e:	1e05      	subs	r5, r0, #0
    1790:	480c      	ldr	r0, [pc, #48]	; (17c4 <mc3416_set_range_resolution+0x50>)
    1792:	d10f      	bne.n	17b4 <mc3416_set_range_resolution+0x40>
    1794:	227f      	movs	r2, #127	; 0x7f
    1796:	7823      	ldrb	r3, [r4, #0]
    1798:	2120      	movs	r1, #32
    179a:	4393      	bics	r3, r2
    179c:	001a      	movs	r2, r3
    179e:	2309      	movs	r3, #9
    17a0:	4313      	orrs	r3, r2
    17a2:	7023      	strb	r3, [r4, #0]
    17a4:	0022      	movs	r2, r4
    17a6:	2302      	movs	r3, #2
    17a8:	204c      	movs	r0, #76	; 0x4c
    17aa:	4c07      	ldr	r4, [pc, #28]	; (17c8 <mc3416_set_range_resolution+0x54>)
    17ac:	47a0      	blx	r4
    17ae:	1e05      	subs	r5, r0, #0
    17b0:	d002      	beq.n	17b8 <mc3416_set_range_resolution+0x44>
    17b2:	4806      	ldr	r0, [pc, #24]	; (17cc <mc3416_set_range_resolution+0x58>)
    17b4:	4b06      	ldr	r3, [pc, #24]	; (17d0 <mc3416_set_range_resolution+0x5c>)
    17b6:	4798      	blx	r3
    17b8:	0028      	movs	r0, r5
    17ba:	b005      	add	sp, #20
    17bc:	bd30      	pop	{r4, r5, pc}
    17be:	46c0      	nop			; (mov r8, r8)
    17c0:	000015c9 	.word	0x000015c9
    17c4:	0000ccef 	.word	0x0000ccef
    17c8:	00001639 	.word	0x00001639
    17cc:	0000cd1b 	.word	0x0000cd1b
    17d0:	00002299 	.word	0x00002299

000017d4 <mc3416_validate_chip>:
    17d4:	b5f0      	push	{r4, r5, r6, r7, lr}
    17d6:	260e      	movs	r6, #14
    17d8:	250f      	movs	r5, #15
    17da:	2300      	movs	r3, #0
    17dc:	2701      	movs	r7, #1
    17de:	b085      	sub	sp, #20
    17e0:	446e      	add	r6, sp
    17e2:	446d      	add	r5, sp
    17e4:	7033      	strb	r3, [r6, #0]
    17e6:	702b      	strb	r3, [r5, #0]
    17e8:	4c15      	ldr	r4, [pc, #84]	; (1840 <mc3416_validate_chip+0x6c>)
    17ea:	9700      	str	r7, [sp, #0]
    17ec:	0033      	movs	r3, r6
    17ee:	2218      	movs	r2, #24
    17f0:	0039      	movs	r1, r7
    17f2:	204c      	movs	r0, #76	; 0x4c
    17f4:	47a0      	blx	r4
    17f6:	1e04      	subs	r4, r0, #0
    17f8:	4812      	ldr	r0, [pc, #72]	; (1844 <mc3416_validate_chip+0x70>)
    17fa:	d109      	bne.n	1810 <mc3416_validate_chip+0x3c>
    17fc:	4c10      	ldr	r4, [pc, #64]	; (1840 <mc3416_validate_chip+0x6c>)
    17fe:	9700      	str	r7, [sp, #0]
    1800:	002b      	movs	r3, r5
    1802:	223b      	movs	r2, #59	; 0x3b
    1804:	0039      	movs	r1, r7
    1806:	204c      	movs	r0, #76	; 0x4c
    1808:	47a0      	blx	r4
    180a:	1e04      	subs	r4, r0, #0
    180c:	d005      	beq.n	181a <mc3416_validate_chip+0x46>
    180e:	480e      	ldr	r0, [pc, #56]	; (1848 <mc3416_validate_chip+0x74>)
    1810:	4b0e      	ldr	r3, [pc, #56]	; (184c <mc3416_validate_chip+0x78>)
    1812:	4798      	blx	r3
    1814:	0020      	movs	r0, r4
    1816:	b005      	add	sp, #20
    1818:	bdf0      	pop	{r4, r5, r6, r7, pc}
    181a:	230f      	movs	r3, #15
    181c:	210e      	movs	r1, #14
    181e:	7832      	ldrb	r2, [r6, #0]
    1820:	480b      	ldr	r0, [pc, #44]	; (1850 <mc3416_validate_chip+0x7c>)
    1822:	439a      	bics	r2, r3
    1824:	782b      	ldrb	r3, [r5, #0]
    1826:	7032      	strb	r2, [r6, #0]
    1828:	438b      	bics	r3, r1
    182a:	702b      	strb	r3, [r5, #0]
    182c:	2aa0      	cmp	r2, #160	; 0xa0
    182e:	d102      	bne.n	1836 <mc3416_validate_chip+0x62>
    1830:	2b20      	cmp	r3, #32
    1832:	d0ef      	beq.n	1814 <mc3416_validate_chip+0x40>
    1834:	4807      	ldr	r0, [pc, #28]	; (1854 <mc3416_validate_chip+0x80>)
    1836:	4b05      	ldr	r3, [pc, #20]	; (184c <mc3416_validate_chip+0x78>)
    1838:	4798      	blx	r3
    183a:	003c      	movs	r4, r7
    183c:	e7ea      	b.n	1814 <mc3416_validate_chip+0x40>
    183e:	46c0      	nop			; (mov r8, r8)
    1840:	000015c9 	.word	0x000015c9
    1844:	0000cd9b 	.word	0x0000cd9b
    1848:	0000cdc7 	.word	0x0000cdc7
    184c:	00002299 	.word	0x00002299
    1850:	0000cdf2 	.word	0x0000cdf2
    1854:	0000ce1d 	.word	0x0000ce1d

00001858 <mc3416_read_axis>:
    1858:	b57f      	push	{r0, r1, r2, r3, r4, r5, r6, lr}
    185a:	250a      	movs	r5, #10
    185c:	2101      	movs	r1, #1
    185e:	446d      	add	r5, sp
    1860:	9100      	str	r1, [sp, #0]
    1862:	002b      	movs	r3, r5
    1864:	220d      	movs	r2, #13
    1866:	204c      	movs	r0, #76	; 0x4c
    1868:	4c2d      	ldr	r4, [pc, #180]	; (1920 <mc3416_read_axis+0xc8>)
    186a:	47a0      	blx	r4
    186c:	2800      	cmp	r0, #0
    186e:	d002      	beq.n	1876 <mc3416_read_axis+0x1e>
    1870:	482c      	ldr	r0, [pc, #176]	; (1924 <mc3416_read_axis+0xcc>)
    1872:	4b2d      	ldr	r3, [pc, #180]	; (1928 <mc3416_read_axis+0xd0>)
    1874:	4798      	blx	r3
    1876:	260b      	movs	r6, #11
    1878:	2101      	movs	r1, #1
    187a:	446e      	add	r6, sp
    187c:	9100      	str	r1, [sp, #0]
    187e:	0033      	movs	r3, r6
    1880:	220e      	movs	r2, #14
    1882:	204c      	movs	r0, #76	; 0x4c
    1884:	47a0      	blx	r4
    1886:	2800      	cmp	r0, #0
    1888:	d002      	beq.n	1890 <mc3416_read_axis+0x38>
    188a:	4826      	ldr	r0, [pc, #152]	; (1924 <mc3416_read_axis+0xcc>)
    188c:	4b26      	ldr	r3, [pc, #152]	; (1928 <mc3416_read_axis+0xd0>)
    188e:	4798      	blx	r3
    1890:	2101      	movs	r1, #1
    1892:	7832      	ldrb	r2, [r6, #0]
    1894:	782b      	ldrb	r3, [r5, #0]
    1896:	0212      	lsls	r2, r2, #8
    1898:	4313      	orrs	r3, r2
    189a:	4a24      	ldr	r2, [pc, #144]	; (192c <mc3416_read_axis+0xd4>)
    189c:	ad03      	add	r5, sp, #12
    189e:	8013      	strh	r3, [r2, #0]
    18a0:	204c      	movs	r0, #76	; 0x4c
    18a2:	9100      	str	r1, [sp, #0]
    18a4:	002b      	movs	r3, r5
    18a6:	220f      	movs	r2, #15
    18a8:	47a0      	blx	r4
    18aa:	2800      	cmp	r0, #0
    18ac:	d002      	beq.n	18b4 <mc3416_read_axis+0x5c>
    18ae:	481d      	ldr	r0, [pc, #116]	; (1924 <mc3416_read_axis+0xcc>)
    18b0:	4b1d      	ldr	r3, [pc, #116]	; (1928 <mc3416_read_axis+0xd0>)
    18b2:	4798      	blx	r3
    18b4:	260d      	movs	r6, #13
    18b6:	2101      	movs	r1, #1
    18b8:	446e      	add	r6, sp
    18ba:	9100      	str	r1, [sp, #0]
    18bc:	0033      	movs	r3, r6
    18be:	2210      	movs	r2, #16
    18c0:	204c      	movs	r0, #76	; 0x4c
    18c2:	47a0      	blx	r4
    18c4:	2800      	cmp	r0, #0
    18c6:	d002      	beq.n	18ce <mc3416_read_axis+0x76>
    18c8:	4816      	ldr	r0, [pc, #88]	; (1924 <mc3416_read_axis+0xcc>)
    18ca:	4b17      	ldr	r3, [pc, #92]	; (1928 <mc3416_read_axis+0xd0>)
    18cc:	4798      	blx	r3
    18ce:	782b      	ldrb	r3, [r5, #0]
    18d0:	250e      	movs	r5, #14
    18d2:	2101      	movs	r1, #1
    18d4:	7832      	ldrb	r2, [r6, #0]
    18d6:	446d      	add	r5, sp
    18d8:	0212      	lsls	r2, r2, #8
    18da:	4313      	orrs	r3, r2
    18dc:	4a14      	ldr	r2, [pc, #80]	; (1930 <mc3416_read_axis+0xd8>)
    18de:	204c      	movs	r0, #76	; 0x4c
    18e0:	8013      	strh	r3, [r2, #0]
    18e2:	9100      	str	r1, [sp, #0]
    18e4:	002b      	movs	r3, r5
    18e6:	2211      	movs	r2, #17
    18e8:	47a0      	blx	r4
    18ea:	2800      	cmp	r0, #0
    18ec:	d002      	beq.n	18f4 <mc3416_read_axis+0x9c>
    18ee:	480d      	ldr	r0, [pc, #52]	; (1924 <mc3416_read_axis+0xcc>)
    18f0:	4b0d      	ldr	r3, [pc, #52]	; (1928 <mc3416_read_axis+0xd0>)
    18f2:	4798      	blx	r3
    18f4:	260f      	movs	r6, #15
    18f6:	2101      	movs	r1, #1
    18f8:	446e      	add	r6, sp
    18fa:	9100      	str	r1, [sp, #0]
    18fc:	0033      	movs	r3, r6
    18fe:	2212      	movs	r2, #18
    1900:	204c      	movs	r0, #76	; 0x4c
    1902:	47a0      	blx	r4
    1904:	1e04      	subs	r4, r0, #0
    1906:	d002      	beq.n	190e <mc3416_read_axis+0xb6>
    1908:	4806      	ldr	r0, [pc, #24]	; (1924 <mc3416_read_axis+0xcc>)
    190a:	4b07      	ldr	r3, [pc, #28]	; (1928 <mc3416_read_axis+0xd0>)
    190c:	4798      	blx	r3
    190e:	0020      	movs	r0, r4
    1910:	7832      	ldrb	r2, [r6, #0]
    1912:	782b      	ldrb	r3, [r5, #0]
    1914:	0212      	lsls	r2, r2, #8
    1916:	4313      	orrs	r3, r2
    1918:	4a06      	ldr	r2, [pc, #24]	; (1934 <mc3416_read_axis+0xdc>)
    191a:	8013      	strh	r3, [r2, #0]
    191c:	b004      	add	sp, #16
    191e:	bd70      	pop	{r4, r5, r6, pc}
    1920:	000015c9 	.word	0x000015c9
    1924:	0000cc8d 	.word	0x0000cc8d
    1928:	00002299 	.word	0x00002299
    192c:	20000a58 	.word	0x20000a58
    1930:	20000a78 	.word	0x20000a78
    1934:	20000a98 	.word	0x20000a98

00001938 <mc3416_flash_read_offset>:
    1938:	b510      	push	{r4, lr}
    193a:	4803      	ldr	r0, [pc, #12]	; (1948 <mc3416_flash_read_offset+0x10>)
    193c:	4a03      	ldr	r2, [pc, #12]	; (194c <mc3416_flash_read_offset+0x14>)
    193e:	4904      	ldr	r1, [pc, #16]	; (1950 <mc3416_flash_read_offset+0x18>)
    1940:	4b04      	ldr	r3, [pc, #16]	; (1954 <mc3416_flash_read_offset+0x1c>)
    1942:	4798      	blx	r3
    1944:	2000      	movs	r0, #0
    1946:	bd10      	pop	{r4, pc}
    1948:	20000a48 	.word	0x20000a48
    194c:	20000a88 	.word	0x20000a88
    1950:	20000a68 	.word	0x20000a68
    1954:	000010e1 	.word	0x000010e1

00001958 <wcm_mc3416_init>:
    1958:	b570      	push	{r4, r5, r6, lr}
    195a:	4a14      	ldr	r2, [pc, #80]	; (19ac <wcm_mc3416_init+0x54>)
    195c:	4914      	ldr	r1, [pc, #80]	; (19b0 <wcm_mc3416_init+0x58>)
    195e:	4815      	ldr	r0, [pc, #84]	; (19b4 <wcm_mc3416_init+0x5c>)
    1960:	4b15      	ldr	r3, [pc, #84]	; (19b8 <wcm_mc3416_init+0x60>)
    1962:	4798      	blx	r3
    1964:	4b15      	ldr	r3, [pc, #84]	; (19bc <wcm_mc3416_init+0x64>)
    1966:	4798      	blx	r3
    1968:	1e04      	subs	r4, r0, #0
    196a:	4815      	ldr	r0, [pc, #84]	; (19c0 <wcm_mc3416_init+0x68>)
    196c:	d119      	bne.n	19a2 <wcm_mc3416_init+0x4a>
    196e:	0020      	movs	r0, r4
    1970:	4d14      	ldr	r5, [pc, #80]	; (19c4 <wcm_mc3416_init+0x6c>)
    1972:	47a8      	blx	r5
    1974:	1e04      	subs	r4, r0, #0
    1976:	4814      	ldr	r0, [pc, #80]	; (19c8 <wcm_mc3416_init+0x70>)
    1978:	d113      	bne.n	19a2 <wcm_mc3416_init+0x4a>
    197a:	4b14      	ldr	r3, [pc, #80]	; (19cc <wcm_mc3416_init+0x74>)
    197c:	4798      	blx	r3
    197e:	1e04      	subs	r4, r0, #0
    1980:	4813      	ldr	r0, [pc, #76]	; (19d0 <wcm_mc3416_init+0x78>)
    1982:	d10e      	bne.n	19a2 <wcm_mc3416_init+0x4a>
    1984:	4b13      	ldr	r3, [pc, #76]	; (19d4 <wcm_mc3416_init+0x7c>)
    1986:	4798      	blx	r3
    1988:	1e04      	subs	r4, r0, #0
    198a:	4813      	ldr	r0, [pc, #76]	; (19d8 <wcm_mc3416_init+0x80>)
    198c:	d109      	bne.n	19a2 <wcm_mc3416_init+0x4a>
    198e:	4b13      	ldr	r3, [pc, #76]	; (19dc <wcm_mc3416_init+0x84>)
    1990:	4798      	blx	r3
    1992:	1e04      	subs	r4, r0, #0
    1994:	4812      	ldr	r0, [pc, #72]	; (19e0 <wcm_mc3416_init+0x88>)
    1996:	d104      	bne.n	19a2 <wcm_mc3416_init+0x4a>
    1998:	2001      	movs	r0, #1
    199a:	47a8      	blx	r5
    199c:	1e04      	subs	r4, r0, #0
    199e:	d002      	beq.n	19a6 <wcm_mc3416_init+0x4e>
    19a0:	4810      	ldr	r0, [pc, #64]	; (19e4 <wcm_mc3416_init+0x8c>)
    19a2:	4b11      	ldr	r3, [pc, #68]	; (19e8 <wcm_mc3416_init+0x90>)
    19a4:	4798      	blx	r3
    19a6:	0020      	movs	r0, r4
    19a8:	bd70      	pop	{r4, r5, r6, pc}
    19aa:	46c0      	nop			; (mov r8, r8)
    19ac:	20000a88 	.word	0x20000a88
    19b0:	20000a68 	.word	0x20000a68
    19b4:	20000a48 	.word	0x20000a48
    19b8:	0000118d 	.word	0x0000118d
    19bc:	000017d5 	.word	0x000017d5
    19c0:	0000cec9 	.word	0x0000cec9
    19c4:	00001685 	.word	0x00001685
    19c8:	0000ceee 	.word	0x0000ceee
    19cc:	0000171d 	.word	0x0000171d
    19d0:	0000cf1b 	.word	0x0000cf1b
    19d4:	00001775 	.word	0x00001775
    19d8:	0000cf4c 	.word	0x0000cf4c
    19dc:	00001939 	.word	0x00001939
    19e0:	0000cf79 	.word	0x0000cf79
    19e4:	0000cfa1 	.word	0x0000cfa1
    19e8:	00002299 	.word	0x00002299

000019ec <wcm_mc3416_read_tilt>:
    19ec:	b5f0      	push	{r4, r5, r6, r7, lr}
    19ee:	4b4b      	ldr	r3, [pc, #300]	; (1b1c <wcm_mc3416_read_tilt+0x130>)
    19f0:	b089      	sub	sp, #36	; 0x24
    19f2:	9007      	str	r0, [sp, #28]
    19f4:	4798      	blx	r3
    19f6:	0004      	movs	r4, r0
    19f8:	2805      	cmp	r0, #5
    19fa:	d100      	bne.n	19fe <wcm_mc3416_read_tilt+0x12>
    19fc:	e081      	b.n	1b02 <wcm_mc3416_read_tilt+0x116>
    19fe:	4848      	ldr	r0, [pc, #288]	; (1b20 <wcm_mc3416_read_tilt+0x134>)
    1a00:	2c00      	cmp	r4, #0
    1a02:	d000      	beq.n	1a06 <wcm_mc3416_read_tilt+0x1a>
    1a04:	e084      	b.n	1b10 <wcm_mc3416_read_tilt+0x124>
    1a06:	4b47      	ldr	r3, [pc, #284]	; (1b24 <wcm_mc3416_read_tilt+0x138>)
    1a08:	4798      	blx	r3
    1a0a:	1e04      	subs	r4, r0, #0
    1a0c:	4846      	ldr	r0, [pc, #280]	; (1b28 <wcm_mc3416_read_tilt+0x13c>)
    1a0e:	d000      	beq.n	1a12 <wcm_mc3416_read_tilt+0x26>
    1a10:	e07e      	b.n	1b10 <wcm_mc3416_read_tilt+0x124>
    1a12:	4b46      	ldr	r3, [pc, #280]	; (1b2c <wcm_mc3416_read_tilt+0x140>)
    1a14:	4a46      	ldr	r2, [pc, #280]	; (1b30 <wcm_mc3416_read_tilt+0x144>)
    1a16:	8818      	ldrh	r0, [r3, #0]
    1a18:	8812      	ldrh	r2, [r2, #0]
    1a1a:	4f46      	ldr	r7, [pc, #280]	; (1b34 <wcm_mc3416_read_tilt+0x148>)
    1a1c:	1a80      	subs	r0, r0, r2
    1a1e:	b200      	sxth	r0, r0
    1a20:	8018      	strh	r0, [r3, #0]
    1a22:	4a45      	ldr	r2, [pc, #276]	; (1b38 <wcm_mc3416_read_tilt+0x14c>)
    1a24:	4b45      	ldr	r3, [pc, #276]	; (1b3c <wcm_mc3416_read_tilt+0x150>)
    1a26:	8812      	ldrh	r2, [r2, #0]
    1a28:	881e      	ldrh	r6, [r3, #0]
    1a2a:	1ab6      	subs	r6, r6, r2
    1a2c:	b236      	sxth	r6, r6
    1a2e:	801e      	strh	r6, [r3, #0]
    1a30:	4a43      	ldr	r2, [pc, #268]	; (1b40 <wcm_mc3416_read_tilt+0x154>)
    1a32:	4b44      	ldr	r3, [pc, #272]	; (1b44 <wcm_mc3416_read_tilt+0x158>)
    1a34:	8812      	ldrh	r2, [r2, #0]
    1a36:	881d      	ldrh	r5, [r3, #0]
    1a38:	1aad      	subs	r5, r5, r2
    1a3a:	b22a      	sxth	r2, r5
    1a3c:	9204      	str	r2, [sp, #16]
    1a3e:	466a      	mov	r2, sp
    1a40:	8a12      	ldrh	r2, [r2, #16]
    1a42:	801a      	strh	r2, [r3, #0]
    1a44:	47b8      	blx	r7
    1a46:	4d40      	ldr	r5, [pc, #256]	; (1b48 <wcm_mc3416_read_tilt+0x15c>)
    1a48:	2200      	movs	r2, #0
    1a4a:	4b40      	ldr	r3, [pc, #256]	; (1b4c <wcm_mc3416_read_tilt+0x160>)
    1a4c:	47a8      	blx	r5
    1a4e:	000a      	movs	r2, r1
    1a50:	9002      	str	r0, [sp, #8]
    1a52:	9103      	str	r1, [sp, #12]
    1a54:	0001      	movs	r1, r0
    1a56:	4b3e      	ldr	r3, [pc, #248]	; (1b50 <wcm_mc3416_read_tilt+0x164>)
    1a58:	0030      	movs	r0, r6
    1a5a:	6019      	str	r1, [r3, #0]
    1a5c:	605a      	str	r2, [r3, #4]
    1a5e:	47b8      	blx	r7
    1a60:	2200      	movs	r2, #0
    1a62:	4b3a      	ldr	r3, [pc, #232]	; (1b4c <wcm_mc3416_read_tilt+0x160>)
    1a64:	47a8      	blx	r5
    1a66:	000a      	movs	r2, r1
    1a68:	9000      	str	r0, [sp, #0]
    1a6a:	9101      	str	r1, [sp, #4]
    1a6c:	0001      	movs	r1, r0
    1a6e:	4b39      	ldr	r3, [pc, #228]	; (1b54 <wcm_mc3416_read_tilt+0x168>)
    1a70:	9804      	ldr	r0, [sp, #16]
    1a72:	6019      	str	r1, [r3, #0]
    1a74:	605a      	str	r2, [r3, #4]
    1a76:	47b8      	blx	r7
    1a78:	2200      	movs	r2, #0
    1a7a:	4b34      	ldr	r3, [pc, #208]	; (1b4c <wcm_mc3416_read_tilt+0x160>)
    1a7c:	47a8      	blx	r5
    1a7e:	0006      	movs	r6, r0
    1a80:	000f      	movs	r7, r1
    1a82:	4b35      	ldr	r3, [pc, #212]	; (1b58 <wcm_mc3416_read_tilt+0x16c>)
    1a84:	601e      	str	r6, [r3, #0]
    1a86:	605f      	str	r7, [r3, #4]
    1a88:	9a02      	ldr	r2, [sp, #8]
    1a8a:	9b03      	ldr	r3, [sp, #12]
    1a8c:	0010      	movs	r0, r2
    1a8e:	0019      	movs	r1, r3
    1a90:	47a8      	blx	r5
    1a92:	9002      	str	r0, [sp, #8]
    1a94:	9103      	str	r1, [sp, #12]
    1a96:	000a      	movs	r2, r1
    1a98:	0001      	movs	r1, r0
    1a9a:	4b30      	ldr	r3, [pc, #192]	; (1b5c <wcm_mc3416_read_tilt+0x170>)
    1a9c:	6019      	str	r1, [r3, #0]
    1a9e:	605a      	str	r2, [r3, #4]
    1aa0:	9a00      	ldr	r2, [sp, #0]
    1aa2:	9b01      	ldr	r3, [sp, #4]
    1aa4:	0010      	movs	r0, r2
    1aa6:	0019      	movs	r1, r3
    1aa8:	47a8      	blx	r5
    1aaa:	9004      	str	r0, [sp, #16]
    1aac:	9105      	str	r1, [sp, #20]
    1aae:	000a      	movs	r2, r1
    1ab0:	0001      	movs	r1, r0
    1ab2:	4b2b      	ldr	r3, [pc, #172]	; (1b60 <wcm_mc3416_read_tilt+0x174>)
    1ab4:	0030      	movs	r0, r6
    1ab6:	6019      	str	r1, [r3, #0]
    1ab8:	605a      	str	r2, [r3, #4]
    1aba:	0032      	movs	r2, r6
    1abc:	003b      	movs	r3, r7
    1abe:	0039      	movs	r1, r7
    1ac0:	47a8      	blx	r5
    1ac2:	0006      	movs	r6, r0
    1ac4:	000f      	movs	r7, r1
    1ac6:	9802      	ldr	r0, [sp, #8]
    1ac8:	9903      	ldr	r1, [sp, #12]
    1aca:	4b26      	ldr	r3, [pc, #152]	; (1b64 <wcm_mc3416_read_tilt+0x178>)
    1acc:	4d26      	ldr	r5, [pc, #152]	; (1b68 <wcm_mc3416_read_tilt+0x17c>)
    1ace:	601e      	str	r6, [r3, #0]
    1ad0:	605f      	str	r7, [r3, #4]
    1ad2:	9a04      	ldr	r2, [sp, #16]
    1ad4:	9b05      	ldr	r3, [sp, #20]
    1ad6:	47a8      	blx	r5
    1ad8:	0032      	movs	r2, r6
    1ada:	003b      	movs	r3, r7
    1adc:	47a8      	blx	r5
    1ade:	4b23      	ldr	r3, [pc, #140]	; (1b6c <wcm_mc3416_read_tilt+0x180>)
    1ae0:	4798      	blx	r3
    1ae2:	4d23      	ldr	r5, [pc, #140]	; (1b70 <wcm_mc3416_read_tilt+0x184>)
    1ae4:	0002      	movs	r2, r0
    1ae6:	000b      	movs	r3, r1
    1ae8:	9800      	ldr	r0, [sp, #0]
    1aea:	9901      	ldr	r1, [sp, #4]
    1aec:	47a8      	blx	r5
    1aee:	4b21      	ldr	r3, [pc, #132]	; (1b74 <wcm_mc3416_read_tilt+0x188>)
    1af0:	4798      	blx	r3
    1af2:	4b21      	ldr	r3, [pc, #132]	; (1b78 <wcm_mc3416_read_tilt+0x18c>)
    1af4:	4a21      	ldr	r2, [pc, #132]	; (1b7c <wcm_mc3416_read_tilt+0x190>)
    1af6:	4d14      	ldr	r5, [pc, #80]	; (1b48 <wcm_mc3416_read_tilt+0x15c>)
    1af8:	47a8      	blx	r5
    1afa:	9b07      	ldr	r3, [sp, #28]
    1afc:	6018      	str	r0, [r3, #0]
    1afe:	6059      	str	r1, [r3, #4]
    1b00:	e008      	b.n	1b14 <wcm_mc3416_read_tilt+0x128>
    1b02:	2001      	movs	r0, #1
    1b04:	4b1e      	ldr	r3, [pc, #120]	; (1b80 <wcm_mc3416_read_tilt+0x194>)
    1b06:	4798      	blx	r3
    1b08:	1e04      	subs	r4, r0, #0
    1b0a:	d100      	bne.n	1b0e <wcm_mc3416_read_tilt+0x122>
    1b0c:	e77b      	b.n	1a06 <wcm_mc3416_read_tilt+0x1a>
    1b0e:	481d      	ldr	r0, [pc, #116]	; (1b84 <wcm_mc3416_read_tilt+0x198>)
    1b10:	4b1d      	ldr	r3, [pc, #116]	; (1b88 <wcm_mc3416_read_tilt+0x19c>)
    1b12:	4798      	blx	r3
    1b14:	0020      	movs	r0, r4
    1b16:	b009      	add	sp, #36	; 0x24
    1b18:	bdf0      	pop	{r4, r5, r6, r7, pc}
    1b1a:	46c0      	nop			; (mov r8, r8)
    1b1c:	000016d1 	.word	0x000016d1
    1b20:	0000cfcb 	.word	0x0000cfcb
    1b24:	00001859 	.word	0x00001859
    1b28:	0000d01d 	.word	0x0000d01d
    1b2c:	20000a58 	.word	0x20000a58
    1b30:	20000a48 	.word	0x20000a48
    1b34:	000075e1 	.word	0x000075e1
    1b38:	20000a68 	.word	0x20000a68
    1b3c:	20000a78 	.word	0x20000a78
    1b40:	20000a88 	.word	0x20000a88
    1b44:	20000a98 	.word	0x20000a98
    1b48:	00006a0d 	.word	0x00006a0d
    1b4c:	3f100000 	.word	0x3f100000
    1b50:	20000a50 	.word	0x20000a50
    1b54:	20000a70 	.word	0x20000a70
    1b58:	20000a90 	.word	0x20000a90
    1b5c:	20000a40 	.word	0x20000a40
    1b60:	20000a60 	.word	0x20000a60
    1b64:	20000a80 	.word	0x20000a80
    1b68:	00005b85 	.word	0x00005b85
    1b6c:	00005261 	.word	0x00005261
    1b70:	000061a5 	.word	0x000061a5
    1b74:	000051a1 	.word	0x000051a1
    1b78:	404ca5dc 	.word	0x404ca5dc
    1b7c:	1a5d2372 	.word	0x1a5d2372
    1b80:	00001685 	.word	0x00001685
    1b84:	0000cff6 	.word	0x0000cff6
    1b88:	00002299 	.word	0x00002299

00001b8c <wcm_mc3416_calibrate>:
    1b8c:	b510      	push	{r4, lr}
    1b8e:	4b15      	ldr	r3, [pc, #84]	; (1be4 <wcm_mc3416_calibrate+0x58>)
    1b90:	4798      	blx	r3
    1b92:	0004      	movs	r4, r0
    1b94:	2805      	cmp	r0, #5
    1b96:	d01a      	beq.n	1bce <wcm_mc3416_calibrate+0x42>
    1b98:	4813      	ldr	r0, [pc, #76]	; (1be8 <wcm_mc3416_calibrate+0x5c>)
    1b9a:	2c00      	cmp	r4, #0
    1b9c:	d11d      	bne.n	1bda <wcm_mc3416_calibrate+0x4e>
    1b9e:	4b13      	ldr	r3, [pc, #76]	; (1bec <wcm_mc3416_calibrate+0x60>)
    1ba0:	4798      	blx	r3
    1ba2:	1e04      	subs	r4, r0, #0
    1ba4:	4812      	ldr	r0, [pc, #72]	; (1bf0 <wcm_mc3416_calibrate+0x64>)
    1ba6:	d118      	bne.n	1bda <wcm_mc3416_calibrate+0x4e>
    1ba8:	4b12      	ldr	r3, [pc, #72]	; (1bf4 <wcm_mc3416_calibrate+0x68>)
    1baa:	4a13      	ldr	r2, [pc, #76]	; (1bf8 <wcm_mc3416_calibrate+0x6c>)
    1bac:	8819      	ldrh	r1, [r3, #0]
    1bae:	1889      	adds	r1, r1, r2
    1bb0:	b289      	uxth	r1, r1
    1bb2:	8019      	strh	r1, [r3, #0]
    1bb4:	4b11      	ldr	r3, [pc, #68]	; (1bfc <wcm_mc3416_calibrate+0x70>)
    1bb6:	8818      	ldrh	r0, [r3, #0]
    1bb8:	4b11      	ldr	r3, [pc, #68]	; (1c00 <wcm_mc3416_calibrate+0x74>)
    1bba:	8018      	strh	r0, [r3, #0]
    1bbc:	4b11      	ldr	r3, [pc, #68]	; (1c04 <wcm_mc3416_calibrate+0x78>)
    1bbe:	8019      	strh	r1, [r3, #0]
    1bc0:	4b11      	ldr	r3, [pc, #68]	; (1c08 <wcm_mc3416_calibrate+0x7c>)
    1bc2:	881a      	ldrh	r2, [r3, #0]
    1bc4:	4b11      	ldr	r3, [pc, #68]	; (1c0c <wcm_mc3416_calibrate+0x80>)
    1bc6:	801a      	strh	r2, [r3, #0]
    1bc8:	4b11      	ldr	r3, [pc, #68]	; (1c10 <wcm_mc3416_calibrate+0x84>)
    1bca:	4798      	blx	r3
    1bcc:	e007      	b.n	1bde <wcm_mc3416_calibrate+0x52>
    1bce:	2001      	movs	r0, #1
    1bd0:	4b10      	ldr	r3, [pc, #64]	; (1c14 <wcm_mc3416_calibrate+0x88>)
    1bd2:	4798      	blx	r3
    1bd4:	1e04      	subs	r4, r0, #0
    1bd6:	d0e2      	beq.n	1b9e <wcm_mc3416_calibrate+0x12>
    1bd8:	480f      	ldr	r0, [pc, #60]	; (1c18 <wcm_mc3416_calibrate+0x8c>)
    1bda:	4b10      	ldr	r3, [pc, #64]	; (1c1c <wcm_mc3416_calibrate+0x90>)
    1bdc:	4798      	blx	r3
    1bde:	0020      	movs	r0, r4
    1be0:	bd10      	pop	{r4, pc}
    1be2:	46c0      	nop			; (mov r8, r8)
    1be4:	000016d1 	.word	0x000016d1
    1be8:	0000ce4d 	.word	0x0000ce4d
    1bec:	00001859 	.word	0x00001859
    1bf0:	0000ce9f 	.word	0x0000ce9f
    1bf4:	20000a78 	.word	0x20000a78
    1bf8:	ffffc000 	.word	0xffffc000
    1bfc:	20000a58 	.word	0x20000a58
    1c00:	20000a48 	.word	0x20000a48
    1c04:	20000a68 	.word	0x20000a68
    1c08:	20000a98 	.word	0x20000a98
    1c0c:	20000a88 	.word	0x20000a88
    1c10:	00001139 	.word	0x00001139
    1c14:	00001685 	.word	0x00001685
    1c18:	0000ce78 	.word	0x0000ce78
    1c1c:	00002299 	.word	0x00002299

00001c20 <wcm_mc3416_zero_offsets>:
    1c20:	b510      	push	{r4, lr}
    1c22:	2400      	movs	r4, #0
    1c24:	4b06      	ldr	r3, [pc, #24]	; (1c40 <wcm_mc3416_zero_offsets+0x20>)
    1c26:	0020      	movs	r0, r4
    1c28:	801c      	strh	r4, [r3, #0]
    1c2a:	4b06      	ldr	r3, [pc, #24]	; (1c44 <wcm_mc3416_zero_offsets+0x24>)
    1c2c:	0022      	movs	r2, r4
    1c2e:	801c      	strh	r4, [r3, #0]
    1c30:	4b05      	ldr	r3, [pc, #20]	; (1c48 <wcm_mc3416_zero_offsets+0x28>)
    1c32:	0021      	movs	r1, r4
    1c34:	801c      	strh	r4, [r3, #0]
    1c36:	4b05      	ldr	r3, [pc, #20]	; (1c4c <wcm_mc3416_zero_offsets+0x2c>)
    1c38:	4798      	blx	r3
    1c3a:	0020      	movs	r0, r4
    1c3c:	bd10      	pop	{r4, pc}
    1c3e:	46c0      	nop			; (mov r8, r8)
    1c40:	20000a48 	.word	0x20000a48
    1c44:	20000a68 	.word	0x20000a68
    1c48:	20000a88 	.word	0x20000a88
    1c4c:	00001139 	.word	0x00001139

00001c50 <ms5637_adc_read>:
    1c50:	210b      	movs	r1, #11
    1c52:	2300      	movs	r3, #0
    1c54:	b530      	push	{r4, r5, lr}
    1c56:	b085      	sub	sp, #20
    1c58:	4469      	add	r1, sp
    1c5a:	700b      	strb	r3, [r1, #0]
    1c5c:	9301      	str	r3, [sp, #4]
    1c5e:	3303      	adds	r3, #3
    1c60:	9300      	str	r3, [sp, #0]
    1c62:	4c08      	ldr	r4, [pc, #32]	; (1c84 <ms5637_adc_read+0x34>)
    1c64:	0005      	movs	r5, r0
    1c66:	ab03      	add	r3, sp, #12
    1c68:	2201      	movs	r2, #1
    1c6a:	2076      	movs	r0, #118	; 0x76
    1c6c:	47a0      	blx	r4
    1c6e:	1e04      	subs	r4, r0, #0
    1c70:	d104      	bne.n	1c7c <ms5637_adc_read+0x2c>
    1c72:	9b03      	ldr	r3, [sp, #12]
    1c74:	2014      	movs	r0, #20
    1c76:	602b      	str	r3, [r5, #0]
    1c78:	4b03      	ldr	r3, [pc, #12]	; (1c88 <ms5637_adc_read+0x38>)
    1c7a:	4798      	blx	r3
    1c7c:	0020      	movs	r0, r4
    1c7e:	b005      	add	sp, #20
    1c80:	bd30      	pop	{r4, r5, pc}
    1c82:	46c0      	nop			; (mov r8, r8)
    1c84:	0000156d 	.word	0x0000156d
    1c88:	0000407d 	.word	0x0000407d

00001c8c <wcm_ms5637_init>:
    1c8c:	b5f0      	push	{r4, r5, r6, r7, lr}
    1c8e:	b085      	sub	sp, #20
    1c90:	231e      	movs	r3, #30
    1c92:	466a      	mov	r2, sp
    1c94:	4c21      	ldr	r4, [pc, #132]	; (1d1c <wcm_ms5637_init+0x90>)
    1c96:	7313      	strb	r3, [r2, #12]
    1c98:	a903      	add	r1, sp, #12
    1c9a:	2300      	movs	r3, #0
    1c9c:	2201      	movs	r2, #1
    1c9e:	2076      	movs	r0, #118	; 0x76
    1ca0:	47a0      	blx	r4
    1ca2:	1e04      	subs	r4, r0, #0
    1ca4:	481e      	ldr	r0, [pc, #120]	; (1d20 <wcm_ms5637_init+0x94>)
    1ca6:	d127      	bne.n	1cf8 <wcm_ms5637_init+0x6c>
    1ca8:	260b      	movs	r6, #11
    1caa:	23a0      	movs	r3, #160	; 0xa0
    1cac:	2702      	movs	r7, #2
    1cae:	446e      	add	r6, sp
    1cb0:	7033      	strb	r3, [r6, #0]
    1cb2:	2201      	movs	r2, #1
    1cb4:	9401      	str	r4, [sp, #4]
    1cb6:	9700      	str	r7, [sp, #0]
    1cb8:	4c1a      	ldr	r4, [pc, #104]	; (1d24 <wcm_ms5637_init+0x98>)
    1cba:	ab03      	add	r3, sp, #12
    1cbc:	0031      	movs	r1, r6
    1cbe:	2076      	movs	r0, #118	; 0x76
    1cc0:	47a0      	blx	r4
    1cc2:	1e04      	subs	r4, r0, #0
    1cc4:	4818      	ldr	r0, [pc, #96]	; (1d28 <wcm_ms5637_init+0x9c>)
    1cc6:	d117      	bne.n	1cf8 <wcm_ms5637_init+0x6c>
    1cc8:	9b03      	ldr	r3, [sp, #12]
    1cca:	4a18      	ldr	r2, [pc, #96]	; (1d2c <wcm_ms5637_init+0xa0>)
    1ccc:	041b      	lsls	r3, r3, #16
    1cce:	0f1b      	lsrs	r3, r3, #28
    1cd0:	8013      	strh	r3, [r2, #0]
    1cd2:	2014      	movs	r0, #20
    1cd4:	4b16      	ldr	r3, [pc, #88]	; (1d30 <wcm_ms5637_init+0xa4>)
    1cd6:	4798      	blx	r3
    1cd8:	0025      	movs	r5, r4
    1cda:	002b      	movs	r3, r5
    1cdc:	3b5e      	subs	r3, #94	; 0x5e
    1cde:	7033      	strb	r3, [r6, #0]
    1ce0:	2300      	movs	r3, #0
    1ce2:	4c10      	ldr	r4, [pc, #64]	; (1d24 <wcm_ms5637_init+0x98>)
    1ce4:	9301      	str	r3, [sp, #4]
    1ce6:	9700      	str	r7, [sp, #0]
    1ce8:	ab03      	add	r3, sp, #12
    1cea:	2201      	movs	r2, #1
    1cec:	0031      	movs	r1, r6
    1cee:	2076      	movs	r0, #118	; 0x76
    1cf0:	47a0      	blx	r4
    1cf2:	1e04      	subs	r4, r0, #0
    1cf4:	d005      	beq.n	1d02 <wcm_ms5637_init+0x76>
    1cf6:	480f      	ldr	r0, [pc, #60]	; (1d34 <wcm_ms5637_init+0xa8>)
    1cf8:	4b0f      	ldr	r3, [pc, #60]	; (1d38 <wcm_ms5637_init+0xac>)
    1cfa:	4798      	blx	r3
    1cfc:	0020      	movs	r0, r4
    1cfe:	b005      	add	sp, #20
    1d00:	bdf0      	pop	{r4, r5, r6, r7, pc}
    1d02:	466a      	mov	r2, sp
    1d04:	4b09      	ldr	r3, [pc, #36]	; (1d2c <wcm_ms5637_init+0xa0>)
    1d06:	8992      	ldrh	r2, [r2, #12]
    1d08:	195b      	adds	r3, r3, r5
    1d0a:	805a      	strh	r2, [r3, #2]
    1d0c:	2014      	movs	r0, #20
    1d0e:	4b08      	ldr	r3, [pc, #32]	; (1d30 <wcm_ms5637_init+0xa4>)
    1d10:	3502      	adds	r5, #2
    1d12:	4798      	blx	r3
    1d14:	2d0c      	cmp	r5, #12
    1d16:	d1e0      	bne.n	1cda <wcm_ms5637_init+0x4e>
    1d18:	e7f0      	b.n	1cfc <wcm_ms5637_init+0x70>
    1d1a:	46c0      	nop			; (mov r8, r8)
    1d1c:	00001519 	.word	0x00001519
    1d20:	0000d049 	.word	0x0000d049
    1d24:	0000156d 	.word	0x0000156d
    1d28:	0000d06d 	.word	0x0000d06d
    1d2c:	20000a9a 	.word	0x20000a9a
    1d30:	0000407d 	.word	0x0000407d
    1d34:	0000d099 	.word	0x0000d099
    1d38:	00002299 	.word	0x00002299

00001d3c <wcm_ms5637_read>:
    1d3c:	b5f0      	push	{r4, r5, r6, r7, lr}
    1d3e:	b093      	sub	sp, #76	; 0x4c
    1d40:	930f      	str	r3, [sp, #60]	; 0x3c
    1d42:	2348      	movs	r3, #72	; 0x48
    1d44:	ac11      	add	r4, sp, #68	; 0x44
    1d46:	910e      	str	r1, [sp, #56]	; 0x38
    1d48:	7023      	strb	r3, [r4, #0]
    1d4a:	0021      	movs	r1, r4
    1d4c:	2300      	movs	r3, #0
    1d4e:	0007      	movs	r7, r0
    1d50:	0016      	movs	r6, r2
    1d52:	2076      	movs	r0, #118	; 0x76
    1d54:	2201      	movs	r2, #1
    1d56:	4d9a      	ldr	r5, [pc, #616]	; (1fc0 <wcm_ms5637_read+0x284>)
    1d58:	47a8      	blx	r5
    1d5a:	4b9a      	ldr	r3, [pc, #616]	; (1fc4 <wcm_ms5637_read+0x288>)
    1d5c:	9006      	str	r0, [sp, #24]
    1d5e:	2014      	movs	r0, #20
    1d60:	4798      	blx	r3
    1d62:	9b06      	ldr	r3, [sp, #24]
    1d64:	4898      	ldr	r0, [pc, #608]	; (1fc8 <wcm_ms5637_read+0x28c>)
    1d66:	2b00      	cmp	r3, #0
    1d68:	d121      	bne.n	1dae <wcm_ms5637_read+0x72>
    1d6a:	4b98      	ldr	r3, [pc, #608]	; (1fcc <wcm_ms5637_read+0x290>)
    1d6c:	0020      	movs	r0, r4
    1d6e:	4798      	blx	r3
    1d70:	9006      	str	r0, [sp, #24]
    1d72:	1e03      	subs	r3, r0, #0
    1d74:	4896      	ldr	r0, [pc, #600]	; (1fd0 <wcm_ms5637_read+0x294>)
    1d76:	d11a      	bne.n	1dae <wcm_ms5637_read+0x72>
    1d78:	9b11      	ldr	r3, [sp, #68]	; 0x44
    1d7a:	4a96      	ldr	r2, [pc, #600]	; (1fd4 <wcm_ms5637_read+0x298>)
    1d7c:	2076      	movs	r0, #118	; 0x76
    1d7e:	6013      	str	r3, [r2, #0]
    1d80:	ab10      	add	r3, sp, #64	; 0x40
    1d82:	1cd9      	adds	r1, r3, #3
    1d84:	2358      	movs	r3, #88	; 0x58
    1d86:	2201      	movs	r2, #1
    1d88:	700b      	strb	r3, [r1, #0]
    1d8a:	4d8d      	ldr	r5, [pc, #564]	; (1fc0 <wcm_ms5637_read+0x284>)
    1d8c:	9b06      	ldr	r3, [sp, #24]
    1d8e:	47a8      	blx	r5
    1d90:	4b8c      	ldr	r3, [pc, #560]	; (1fc4 <wcm_ms5637_read+0x288>)
    1d92:	9006      	str	r0, [sp, #24]
    1d94:	2014      	movs	r0, #20
    1d96:	4798      	blx	r3
    1d98:	9b06      	ldr	r3, [sp, #24]
    1d9a:	488f      	ldr	r0, [pc, #572]	; (1fd8 <wcm_ms5637_read+0x29c>)
    1d9c:	2b00      	cmp	r3, #0
    1d9e:	d106      	bne.n	1dae <wcm_ms5637_read+0x72>
    1da0:	0020      	movs	r0, r4
    1da2:	4b8a      	ldr	r3, [pc, #552]	; (1fcc <wcm_ms5637_read+0x290>)
    1da4:	4798      	blx	r3
    1da6:	9006      	str	r0, [sp, #24]
    1da8:	2800      	cmp	r0, #0
    1daa:	d005      	beq.n	1db8 <wcm_ms5637_read+0x7c>
    1dac:	488b      	ldr	r0, [pc, #556]	; (1fdc <wcm_ms5637_read+0x2a0>)
    1dae:	4b8c      	ldr	r3, [pc, #560]	; (1fe0 <wcm_ms5637_read+0x2a4>)
    1db0:	4798      	blx	r3
    1db2:	9806      	ldr	r0, [sp, #24]
    1db4:	b013      	add	sp, #76	; 0x4c
    1db6:	bdf0      	pop	{r4, r5, r6, r7, pc}
    1db8:	9811      	ldr	r0, [sp, #68]	; 0x44
    1dba:	4b8a      	ldr	r3, [pc, #552]	; (1fe4 <wcm_ms5637_read+0x2a8>)
    1dbc:	6018      	str	r0, [r3, #0]
    1dbe:	4b85      	ldr	r3, [pc, #532]	; (1fd4 <wcm_ms5637_read+0x298>)
    1dc0:	681b      	ldr	r3, [r3, #0]
    1dc2:	603b      	str	r3, [r7, #0]
    1dc4:	9307      	str	r3, [sp, #28]
    1dc6:	6030      	str	r0, [r6, #0]
    1dc8:	4b87      	ldr	r3, [pc, #540]	; (1fe8 <wcm_ms5637_read+0x2ac>)
    1dca:	4798      	blx	r3
    1dcc:	4b87      	ldr	r3, [pc, #540]	; (1fec <wcm_ms5637_read+0x2b0>)
    1dce:	0006      	movs	r6, r0
    1dd0:	8958      	ldrh	r0, [r3, #10]
    1dd2:	4b85      	ldr	r3, [pc, #532]	; (1fe8 <wcm_ms5637_read+0x2ac>)
    1dd4:	000f      	movs	r7, r1
    1dd6:	4798      	blx	r3
    1dd8:	4c85      	ldr	r4, [pc, #532]	; (1ff0 <wcm_ms5637_read+0x2b4>)
    1dda:	2200      	movs	r2, #0
    1ddc:	4b85      	ldr	r3, [pc, #532]	; (1ff4 <wcm_ms5637_read+0x2b8>)
    1dde:	47a0      	blx	r4
    1de0:	0002      	movs	r2, r0
    1de2:	000b      	movs	r3, r1
    1de4:	0030      	movs	r0, r6
    1de6:	0039      	movs	r1, r7
    1de8:	4e83      	ldr	r6, [pc, #524]	; (1ff8 <wcm_ms5637_read+0x2bc>)
    1dea:	47b0      	blx	r6
    1dec:	0006      	movs	r6, r0
    1dee:	000f      	movs	r7, r1
    1df0:	4b7e      	ldr	r3, [pc, #504]	; (1fec <wcm_ms5637_read+0x2b0>)
    1df2:	8998      	ldrh	r0, [r3, #12]
    1df4:	4b7c      	ldr	r3, [pc, #496]	; (1fe8 <wcm_ms5637_read+0x2ac>)
    1df6:	4798      	blx	r3
    1df8:	0032      	movs	r2, r6
    1dfa:	003b      	movs	r3, r7
    1dfc:	47a0      	blx	r4
    1dfe:	23fa      	movs	r3, #250	; 0xfa
    1e00:	2200      	movs	r2, #0
    1e02:	059b      	lsls	r3, r3, #22
    1e04:	47a0      	blx	r4
    1e06:	4d7d      	ldr	r5, [pc, #500]	; (1ffc <wcm_ms5637_read+0x2c0>)
    1e08:	2200      	movs	r2, #0
    1e0a:	4b7d      	ldr	r3, [pc, #500]	; (2000 <wcm_ms5637_read+0x2c4>)
    1e0c:	47a8      	blx	r5
    1e0e:	9000      	str	r0, [sp, #0]
    1e10:	9101      	str	r1, [sp, #4]
    1e12:	4b76      	ldr	r3, [pc, #472]	; (1fec <wcm_ms5637_read+0x2b0>)
    1e14:	8918      	ldrh	r0, [r3, #8]
    1e16:	4b74      	ldr	r3, [pc, #464]	; (1fe8 <wcm_ms5637_read+0x2ac>)
    1e18:	4798      	blx	r3
    1e1a:	0032      	movs	r2, r6
    1e1c:	003b      	movs	r3, r7
    1e1e:	47a0      	blx	r4
    1e20:	2200      	movs	r2, #0
    1e22:	4b78      	ldr	r3, [pc, #480]	; (2004 <wcm_ms5637_read+0x2c8>)
    1e24:	47a0      	blx	r4
    1e26:	9002      	str	r0, [sp, #8]
    1e28:	9103      	str	r1, [sp, #12]
    1e2a:	4b70      	ldr	r3, [pc, #448]	; (1fec <wcm_ms5637_read+0x2b0>)
    1e2c:	8898      	ldrh	r0, [r3, #4]
    1e2e:	4b6e      	ldr	r3, [pc, #440]	; (1fe8 <wcm_ms5637_read+0x2ac>)
    1e30:	4798      	blx	r3
    1e32:	2382      	movs	r3, #130	; 0x82
    1e34:	2200      	movs	r2, #0
    1e36:	05db      	lsls	r3, r3, #23
    1e38:	47a0      	blx	r4
    1e3a:	0002      	movs	r2, r0
    1e3c:	000b      	movs	r3, r1
    1e3e:	9802      	ldr	r0, [sp, #8]
    1e40:	9903      	ldr	r1, [sp, #12]
    1e42:	47a8      	blx	r5
    1e44:	900a      	str	r0, [sp, #40]	; 0x28
    1e46:	910b      	str	r1, [sp, #44]	; 0x2c
    1e48:	4b68      	ldr	r3, [pc, #416]	; (1fec <wcm_ms5637_read+0x2b0>)
    1e4a:	88d8      	ldrh	r0, [r3, #6]
    1e4c:	4b66      	ldr	r3, [pc, #408]	; (1fe8 <wcm_ms5637_read+0x2ac>)
    1e4e:	4798      	blx	r3
    1e50:	0032      	movs	r2, r6
    1e52:	003b      	movs	r3, r7
    1e54:	47a0      	blx	r4
    1e56:	23fe      	movs	r3, #254	; 0xfe
    1e58:	2200      	movs	r2, #0
    1e5a:	059b      	lsls	r3, r3, #22
    1e5c:	47a0      	blx	r4
    1e5e:	9002      	str	r0, [sp, #8]
    1e60:	9103      	str	r1, [sp, #12]
    1e62:	4b62      	ldr	r3, [pc, #392]	; (1fec <wcm_ms5637_read+0x2b0>)
    1e64:	8858      	ldrh	r0, [r3, #2]
    1e66:	4b60      	ldr	r3, [pc, #384]	; (1fe8 <wcm_ms5637_read+0x2ac>)
    1e68:	4798      	blx	r3
    1e6a:	2200      	movs	r2, #0
    1e6c:	4b66      	ldr	r3, [pc, #408]	; (2008 <wcm_ms5637_read+0x2cc>)
    1e6e:	47a0      	blx	r4
    1e70:	0002      	movs	r2, r0
    1e72:	000b      	movs	r3, r1
    1e74:	9802      	ldr	r0, [sp, #8]
    1e76:	9903      	ldr	r1, [sp, #12]
    1e78:	47a8      	blx	r5
    1e7a:	2200      	movs	r2, #0
    1e7c:	900c      	str	r0, [sp, #48]	; 0x30
    1e7e:	910d      	str	r1, [sp, #52]	; 0x34
    1e80:	9800      	ldr	r0, [sp, #0]
    1e82:	9901      	ldr	r1, [sp, #4]
    1e84:	4d61      	ldr	r5, [pc, #388]	; (200c <wcm_ms5637_read+0x2d0>)
    1e86:	4b5e      	ldr	r3, [pc, #376]	; (2000 <wcm_ms5637_read+0x2c4>)
    1e88:	47a8      	blx	r5
    1e8a:	2200      	movs	r2, #0
    1e8c:	2800      	cmp	r0, #0
    1e8e:	d100      	bne.n	1e92 <wcm_ms5637_read+0x156>
    1e90:	e084      	b.n	1f9c <wcm_ms5637_read+0x260>
    1e92:	4b5f      	ldr	r3, [pc, #380]	; (2010 <wcm_ms5637_read+0x2d4>)
    1e94:	0030      	movs	r0, r6
    1e96:	0039      	movs	r1, r7
    1e98:	47a0      	blx	r4
    1e9a:	0032      	movs	r2, r6
    1e9c:	003b      	movs	r3, r7
    1e9e:	47a0      	blx	r4
    1ea0:	2200      	movs	r2, #0
    1ea2:	4b5c      	ldr	r3, [pc, #368]	; (2014 <wcm_ms5637_read+0x2d8>)
    1ea4:	47a0      	blx	r4
    1ea6:	2200      	movs	r2, #0
    1ea8:	9004      	str	r0, [sp, #16]
    1eaa:	9105      	str	r1, [sp, #20]
    1eac:	9800      	ldr	r0, [sp, #0]
    1eae:	9901      	ldr	r1, [sp, #4]
    1eb0:	4b53      	ldr	r3, [pc, #332]	; (2000 <wcm_ms5637_read+0x2c4>)
    1eb2:	4e51      	ldr	r6, [pc, #324]	; (1ff8 <wcm_ms5637_read+0x2bc>)
    1eb4:	47b0      	blx	r6
    1eb6:	0002      	movs	r2, r0
    1eb8:	000b      	movs	r3, r1
    1eba:	47a0      	blx	r4
    1ebc:	2200      	movs	r2, #0
    1ebe:	4b56      	ldr	r3, [pc, #344]	; (2018 <wcm_ms5637_read+0x2dc>)
    1ec0:	47a0      	blx	r4
    1ec2:	2200      	movs	r2, #0
    1ec4:	4b55      	ldr	r3, [pc, #340]	; (201c <wcm_ms5637_read+0x2e0>)
    1ec6:	0006      	movs	r6, r0
    1ec8:	000f      	movs	r7, r1
    1eca:	47a0      	blx	r4
    1ecc:	2200      	movs	r2, #0
    1ece:	9002      	str	r0, [sp, #8]
    1ed0:	9103      	str	r1, [sp, #12]
    1ed2:	4b53      	ldr	r3, [pc, #332]	; (2020 <wcm_ms5637_read+0x2e4>)
    1ed4:	0030      	movs	r0, r6
    1ed6:	0039      	movs	r1, r7
    1ed8:	47a0      	blx	r4
    1eda:	2200      	movs	r2, #0
    1edc:	0006      	movs	r6, r0
    1ede:	000f      	movs	r7, r1
    1ee0:	9800      	ldr	r0, [sp, #0]
    1ee2:	9901      	ldr	r1, [sp, #4]
    1ee4:	4b4f      	ldr	r3, [pc, #316]	; (2024 <wcm_ms5637_read+0x2e8>)
    1ee6:	47a8      	blx	r5
    1ee8:	2800      	cmp	r0, #0
    1eea:	d020      	beq.n	1f2e <wcm_ms5637_read+0x1f2>
    1eec:	9800      	ldr	r0, [sp, #0]
    1eee:	9901      	ldr	r1, [sp, #4]
    1ef0:	4d42      	ldr	r5, [pc, #264]	; (1ffc <wcm_ms5637_read+0x2c0>)
    1ef2:	2200      	movs	r2, #0
    1ef4:	4b4c      	ldr	r3, [pc, #304]	; (2028 <wcm_ms5637_read+0x2ec>)
    1ef6:	47a8      	blx	r5
    1ef8:	0002      	movs	r2, r0
    1efa:	000b      	movs	r3, r1
    1efc:	47a0      	blx	r4
    1efe:	2200      	movs	r2, #0
    1f00:	4b4a      	ldr	r3, [pc, #296]	; (202c <wcm_ms5637_read+0x2f0>)
    1f02:	9008      	str	r0, [sp, #32]
    1f04:	9109      	str	r1, [sp, #36]	; 0x24
    1f06:	47a0      	blx	r4
    1f08:	0002      	movs	r2, r0
    1f0a:	000b      	movs	r3, r1
    1f0c:	9802      	ldr	r0, [sp, #8]
    1f0e:	9903      	ldr	r1, [sp, #12]
    1f10:	47a8      	blx	r5
    1f12:	2200      	movs	r2, #0
    1f14:	9002      	str	r0, [sp, #8]
    1f16:	9103      	str	r1, [sp, #12]
    1f18:	9808      	ldr	r0, [sp, #32]
    1f1a:	9909      	ldr	r1, [sp, #36]	; 0x24
    1f1c:	4b44      	ldr	r3, [pc, #272]	; (2030 <wcm_ms5637_read+0x2f4>)
    1f1e:	47a0      	blx	r4
    1f20:	0002      	movs	r2, r0
    1f22:	000b      	movs	r3, r1
    1f24:	0030      	movs	r0, r6
    1f26:	0039      	movs	r1, r7
    1f28:	47a8      	blx	r5
    1f2a:	0006      	movs	r6, r0
    1f2c:	000f      	movs	r7, r1
    1f2e:	980c      	ldr	r0, [sp, #48]	; 0x30
    1f30:	990d      	ldr	r1, [sp, #52]	; 0x34
    1f32:	4d31      	ldr	r5, [pc, #196]	; (1ff8 <wcm_ms5637_read+0x2bc>)
    1f34:	0032      	movs	r2, r6
    1f36:	003b      	movs	r3, r7
    1f38:	47a8      	blx	r5
    1f3a:	4b2b      	ldr	r3, [pc, #172]	; (1fe8 <wcm_ms5637_read+0x2ac>)
    1f3c:	0006      	movs	r6, r0
    1f3e:	9807      	ldr	r0, [sp, #28]
    1f40:	000f      	movs	r7, r1
    1f42:	4798      	blx	r3
    1f44:	4c2a      	ldr	r4, [pc, #168]	; (1ff0 <wcm_ms5637_read+0x2b4>)
    1f46:	0002      	movs	r2, r0
    1f48:	000b      	movs	r3, r1
    1f4a:	0030      	movs	r0, r6
    1f4c:	0039      	movs	r1, r7
    1f4e:	47a0      	blx	r4
    1f50:	2200      	movs	r2, #0
    1f52:	4b38      	ldr	r3, [pc, #224]	; (2034 <wcm_ms5637_read+0x2f8>)
    1f54:	47a0      	blx	r4
    1f56:	9a02      	ldr	r2, [sp, #8]
    1f58:	9b03      	ldr	r3, [sp, #12]
    1f5a:	0006      	movs	r6, r0
    1f5c:	000f      	movs	r7, r1
    1f5e:	980a      	ldr	r0, [sp, #40]	; 0x28
    1f60:	990b      	ldr	r1, [sp, #44]	; 0x2c
    1f62:	47a8      	blx	r5
    1f64:	0002      	movs	r2, r0
    1f66:	000b      	movs	r3, r1
    1f68:	0030      	movs	r0, r6
    1f6a:	0039      	movs	r1, r7
    1f6c:	47a8      	blx	r5
    1f6e:	23fc      	movs	r3, #252	; 0xfc
    1f70:	2200      	movs	r2, #0
    1f72:	059b      	lsls	r3, r3, #22
    1f74:	47a0      	blx	r4
    1f76:	4c30      	ldr	r4, [pc, #192]	; (2038 <wcm_ms5637_read+0x2fc>)
    1f78:	2200      	movs	r2, #0
    1f7a:	4b30      	ldr	r3, [pc, #192]	; (203c <wcm_ms5637_read+0x300>)
    1f7c:	47a0      	blx	r4
    1f7e:	9b0e      	ldr	r3, [sp, #56]	; 0x38
    1f80:	6018      	str	r0, [r3, #0]
    1f82:	6059      	str	r1, [r3, #4]
    1f84:	9a04      	ldr	r2, [sp, #16]
    1f86:	9b05      	ldr	r3, [sp, #20]
    1f88:	9800      	ldr	r0, [sp, #0]
    1f8a:	9901      	ldr	r1, [sp, #4]
    1f8c:	47a8      	blx	r5
    1f8e:	4b2b      	ldr	r3, [pc, #172]	; (203c <wcm_ms5637_read+0x300>)
    1f90:	2200      	movs	r2, #0
    1f92:	47a0      	blx	r4
    1f94:	9b0f      	ldr	r3, [sp, #60]	; 0x3c
    1f96:	6018      	str	r0, [r3, #0]
    1f98:	6059      	str	r1, [r3, #4]
    1f9a:	e70a      	b.n	1db2 <wcm_ms5637_read+0x76>
    1f9c:	4b28      	ldr	r3, [pc, #160]	; (2040 <wcm_ms5637_read+0x304>)
    1f9e:	0030      	movs	r0, r6
    1fa0:	0039      	movs	r1, r7
    1fa2:	47a0      	blx	r4
    1fa4:	0032      	movs	r2, r6
    1fa6:	003b      	movs	r3, r7
    1fa8:	47a0      	blx	r4
    1faa:	2200      	movs	r2, #0
    1fac:	4b25      	ldr	r3, [pc, #148]	; (2044 <wcm_ms5637_read+0x308>)
    1fae:	47a0      	blx	r4
    1fb0:	2600      	movs	r6, #0
    1fb2:	2700      	movs	r7, #0
    1fb4:	9004      	str	r0, [sp, #16]
    1fb6:	9105      	str	r1, [sp, #20]
    1fb8:	9602      	str	r6, [sp, #8]
    1fba:	9703      	str	r7, [sp, #12]
    1fbc:	e7b7      	b.n	1f2e <wcm_ms5637_read+0x1f2>
    1fbe:	46c0      	nop			; (mov r8, r8)
    1fc0:	00001519 	.word	0x00001519
    1fc4:	0000407d 	.word	0x0000407d
    1fc8:	0000d0d9 	.word	0x0000d0d9
    1fcc:	00001c51 	.word	0x00001c51
    1fd0:	0000d104 	.word	0x0000d104
    1fd4:	20000aa8 	.word	0x20000aa8
    1fd8:	0000d131 	.word	0x0000d131
    1fdc:	0000d15c 	.word	0x0000d15c
    1fe0:	00002299 	.word	0x00002299
    1fe4:	20000aac 	.word	0x20000aac
    1fe8:	00007665 	.word	0x00007665
    1fec:	20000a9a 	.word	0x20000a9a
    1ff0:	00006a0d 	.word	0x00006a0d
    1ff4:	40700000 	.word	0x40700000
    1ff8:	00006f0d 	.word	0x00006f0d
    1ffc:	00005b85 	.word	0x00005b85
    2000:	409f4000 	.word	0x409f4000
    2004:	3f900000 	.word	0x3f900000
    2008:	40f00000 	.word	0x40f00000
    200c:	00005a55 	.word	0x00005a55
    2010:	40080000 	.word	0x40080000
    2014:	3de00000 	.word	0x3de00000
    2018:	3fb00000 	.word	0x3fb00000
    201c:	404e8000 	.word	0x404e8000
    2020:	403d0000 	.word	0x403d0000
    2024:	c0977000 	.word	0xc0977000
    2028:	40977000 	.word	0x40977000
    202c:	40310000 	.word	0x40310000
    2030:	40220000 	.word	0x40220000
    2034:	3ea00000 	.word	0x3ea00000
    2038:	000061a5 	.word	0x000061a5
    203c:	40590000 	.word	0x40590000
    2040:	40140000 	.word	0x40140000
    2044:	3d900000 	.word	0x3d900000

00002048 <wcm_power_normal_power_mode>:
    2048:	b510      	push	{r4, lr}
    204a:	4b06      	ldr	r3, [pc, #24]	; (2064 <wcm_power_normal_power_mode+0x1c>)
    204c:	4798      	blx	r3
    204e:	2000      	movs	r0, #0
    2050:	4b05      	ldr	r3, [pc, #20]	; (2068 <wcm_power_normal_power_mode+0x20>)
    2052:	4798      	blx	r3
    2054:	4b05      	ldr	r3, [pc, #20]	; (206c <wcm_power_normal_power_mode+0x24>)
    2056:	4798      	blx	r3
    2058:	2000      	movs	r0, #0
    205a:	4b05      	ldr	r3, [pc, #20]	; (2070 <wcm_power_normal_power_mode+0x28>)
    205c:	4798      	blx	r3
    205e:	4b05      	ldr	r3, [pc, #20]	; (2074 <wcm_power_normal_power_mode+0x2c>)
    2060:	4798      	blx	r3
    2062:	bd10      	pop	{r4, pc}
    2064:	00001225 	.word	0x00001225
    2068:	00001069 	.word	0x00001069
    206c:	00002485 	.word	0x00002485
    2070:	000020c1 	.word	0x000020c1
    2074:	00004011 	.word	0x00004011

00002078 <spi_slave_callback>:
    2078:	2201      	movs	r2, #1
    207a:	4b01      	ldr	r3, [pc, #4]	; (2080 <spi_slave_callback+0x8>)
    207c:	701a      	strb	r2, [r3, #0]
    207e:	4770      	bx	lr
    2080:	20000aec 	.word	0x20000aec

00002084 <spi_disable.constprop.0>:
    2084:	b570      	push	{r4, r5, r6, lr}
    2086:	4d0b      	ldr	r5, [pc, #44]	; (20b4 <spi_disable.constprop.0+0x30>)
    2088:	4b0b      	ldr	r3, [pc, #44]	; (20b8 <spi_disable.constprop.0+0x34>)
    208a:	682c      	ldr	r4, [r5, #0]
    208c:	0020      	movs	r0, r4
    208e:	4798      	blx	r3
    2090:	231f      	movs	r3, #31
    2092:	4018      	ands	r0, r3
    2094:	3b1e      	subs	r3, #30
    2096:	4083      	lsls	r3, r0
    2098:	4a08      	ldr	r2, [pc, #32]	; (20bc <spi_disable.constprop.0+0x38>)
    209a:	67d3      	str	r3, [r2, #124]	; 0x7c
    209c:	682a      	ldr	r2, [r5, #0]
    209e:	69d3      	ldr	r3, [r2, #28]
    20a0:	2b00      	cmp	r3, #0
    20a2:	d1fc      	bne.n	209e <spi_disable.constprop.0+0x1a>
    20a4:	2202      	movs	r2, #2
    20a6:	338f      	adds	r3, #143	; 0x8f
    20a8:	7523      	strb	r3, [r4, #20]
    20aa:	7623      	strb	r3, [r4, #24]
    20ac:	6823      	ldr	r3, [r4, #0]
    20ae:	4393      	bics	r3, r2
    20b0:	6023      	str	r3, [r4, #0]
    20b2:	bd70      	pop	{r4, r5, r6, pc}
    20b4:	20000ab0 	.word	0x20000ab0
    20b8:	00003f45 	.word	0x00003f45
    20bc:	e000e104 	.word	0xe000e104

000020c0 <wcm_spi_configure>:
    20c0:	23c0      	movs	r3, #192	; 0xc0
    20c2:	b570      	push	{r4, r5, r6, lr}
    20c4:	039b      	lsls	r3, r3, #14
    20c6:	b08e      	sub	sp, #56	; 0x38
    20c8:	2400      	movs	r4, #0
    20ca:	2501      	movs	r5, #1
    20cc:	9303      	str	r3, [sp, #12]
    20ce:	466b      	mov	r3, sp
    20d0:	741c      	strb	r4, [r3, #16]
    20d2:	745c      	strb	r4, [r3, #17]
    20d4:	749d      	strb	r5, [r3, #18]
    20d6:	74dd      	strb	r5, [r3, #19]
    20d8:	751c      	strb	r4, [r3, #20]
    20da:	3305      	adds	r3, #5
    20dc:	77dc      	strb	r4, [r3, #31]
    20de:	220c      	movs	r2, #12
    20e0:	4b23      	ldr	r3, [pc, #140]	; (2170 <wcm_spi_configure+0xb0>)
    20e2:	0006      	movs	r6, r0
    20e4:	0021      	movs	r1, r4
    20e6:	a806      	add	r0, sp, #24
    20e8:	9401      	str	r4, [sp, #4]
    20ea:	9402      	str	r4, [sp, #8]
    20ec:	4798      	blx	r3
    20ee:	466b      	mov	r3, sp
    20f0:	701c      	strb	r4, [r3, #0]
    20f2:	195b      	adds	r3, r3, r5
    20f4:	77dd      	strb	r5, [r3, #31]
    20f6:	4b1f      	ldr	r3, [pc, #124]	; (2174 <wcm_spi_configure+0xb4>)
    20f8:	930a      	str	r3, [sp, #40]	; 0x28
    20fa:	4b1f      	ldr	r3, [pc, #124]	; (2178 <wcm_spi_configure+0xb8>)
    20fc:	930b      	str	r3, [sp, #44]	; 0x2c
    20fe:	4b1f      	ldr	r3, [pc, #124]	; (217c <wcm_spi_configure+0xbc>)
    2100:	930c      	str	r3, [sp, #48]	; 0x30
    2102:	4b1f      	ldr	r3, [pc, #124]	; (2180 <wcm_spi_configure+0xc0>)
    2104:	930d      	str	r3, [sp, #52]	; 0x34
    2106:	4b1f      	ldr	r3, [pc, #124]	; (2184 <wcm_spi_configure+0xc4>)
    2108:	781a      	ldrb	r2, [r3, #0]
    210a:	42a2      	cmp	r2, r4
    210c:	d02c      	beq.n	2168 <wcm_spi_configure+0xa8>
    210e:	701c      	strb	r4, [r3, #0]
    2110:	4c1d      	ldr	r4, [pc, #116]	; (2188 <wcm_spi_configure+0xc8>)
    2112:	466a      	mov	r2, sp
    2114:	491d      	ldr	r1, [pc, #116]	; (218c <wcm_spi_configure+0xcc>)
    2116:	4b1e      	ldr	r3, [pc, #120]	; (2190 <wcm_spi_configure+0xd0>)
    2118:	0020      	movs	r0, r4
    211a:	4798      	blx	r3
    211c:	2202      	movs	r2, #2
    211e:	491d      	ldr	r1, [pc, #116]	; (2194 <wcm_spi_configure+0xd4>)
    2120:	0020      	movs	r0, r4
    2122:	4b1d      	ldr	r3, [pc, #116]	; (2198 <wcm_spi_configure+0xd8>)
    2124:	4798      	blx	r3
    2126:	0022      	movs	r2, r4
    2128:	2304      	movs	r3, #4
    212a:	3237      	adds	r2, #55	; 0x37
    212c:	7811      	ldrb	r1, [r2, #0]
    212e:	6825      	ldr	r5, [r4, #0]
    2130:	430b      	orrs	r3, r1
    2132:	7013      	strb	r3, [r2, #0]
    2134:	0028      	movs	r0, r5
    2136:	4b19      	ldr	r3, [pc, #100]	; (219c <wcm_spi_configure+0xdc>)
    2138:	4798      	blx	r3
    213a:	231f      	movs	r3, #31
    213c:	4018      	ands	r0, r3
    213e:	3b1e      	subs	r3, #30
    2140:	4083      	lsls	r3, r0
    2142:	4a17      	ldr	r2, [pc, #92]	; (21a0 <wcm_spi_configure+0xe0>)
    2144:	6013      	str	r3, [r2, #0]
    2146:	6822      	ldr	r2, [r4, #0]
    2148:	69d3      	ldr	r3, [r2, #28]
    214a:	2b00      	cmp	r3, #0
    214c:	d1fc      	bne.n	2148 <wcm_spi_configure+0x88>
    214e:	682a      	ldr	r2, [r5, #0]
    2150:	3302      	adds	r3, #2
    2152:	4313      	orrs	r3, r2
    2154:	602b      	str	r3, [r5, #0]
    2156:	2e01      	cmp	r6, #1
    2158:	d104      	bne.n	2164 <wcm_spi_configure+0xa4>
    215a:	4b12      	ldr	r3, [pc, #72]	; (21a4 <wcm_spi_configure+0xe4>)
    215c:	4812      	ldr	r0, [pc, #72]	; (21a8 <wcm_spi_configure+0xe8>)
    215e:	4798      	blx	r3
    2160:	4b12      	ldr	r3, [pc, #72]	; (21ac <wcm_spi_configure+0xec>)
    2162:	4798      	blx	r3
    2164:	b00e      	add	sp, #56	; 0x38
    2166:	bd70      	pop	{r4, r5, r6, pc}
    2168:	4b10      	ldr	r3, [pc, #64]	; (21ac <wcm_spi_configure+0xec>)
    216a:	4798      	blx	r3
    216c:	e7d0      	b.n	2110 <wcm_spi_configure+0x50>
    216e:	46c0      	nop			; (mov r8, r8)
    2170:	000079ad 	.word	0x000079ad
    2174:	00160003 	.word	0x00160003
    2178:	00170003 	.word	0x00170003
    217c:	00180003 	.word	0x00180003
    2180:	00190003 	.word	0x00190003
    2184:	20000002 	.word	0x20000002
    2188:	20000ab0 	.word	0x20000ab0
    218c:	43000400 	.word	0x43000400
    2190:	000037bd 	.word	0x000037bd
    2194:	00002079 	.word	0x00002079
    2198:	000039d1 	.word	0x000039d1
    219c:	00003f45 	.word	0x00003f45
    21a0:	e000e100 	.word	0xe000e100
    21a4:	00002299 	.word	0x00002299
    21a8:	0000d189 	.word	0x0000d189
    21ac:	00002085 	.word	0x00002085

000021b0 <wcm_spi_start_read>:
    21b0:	b510      	push	{r4, lr}
    21b2:	2400      	movs	r4, #0
    21b4:	4b04      	ldr	r3, [pc, #16]	; (21c8 <wcm_spi_start_read+0x18>)
    21b6:	701c      	strb	r4, [r3, #0]
    21b8:	b293      	uxth	r3, r2
    21ba:	4c04      	ldr	r4, [pc, #16]	; (21cc <wcm_spi_start_read+0x1c>)
    21bc:	000a      	movs	r2, r1
    21be:	0001      	movs	r1, r0
    21c0:	4803      	ldr	r0, [pc, #12]	; (21d0 <wcm_spi_start_read+0x20>)
    21c2:	47a0      	blx	r4
    21c4:	bd10      	pop	{r4, pc}
    21c6:	46c0      	nop			; (mov r8, r8)
    21c8:	20000aec 	.word	0x20000aec
    21cc:	000039e9 	.word	0x000039e9
    21d0:	20000ab0 	.word	0x20000ab0

000021d4 <wcm_spi_transfer_complete>:
    21d4:	4b01      	ldr	r3, [pc, #4]	; (21dc <wcm_spi_transfer_complete+0x8>)
    21d6:	7818      	ldrb	r0, [r3, #0]
    21d8:	b2c0      	uxtb	r0, r0
    21da:	4770      	bx	lr
    21dc:	20000aec 	.word	0x20000aec

000021e0 <usart_get_config_defaults>:
    21e0:	22ff      	movs	r2, #255	; 0xff
    21e2:	2380      	movs	r3, #128	; 0x80
    21e4:	8102      	strh	r2, [r0, #8]
    21e6:	2296      	movs	r2, #150	; 0x96
    21e8:	05db      	lsls	r3, r3, #23
    21ea:	0192      	lsls	r2, r2, #6
    21ec:	6003      	str	r3, [r0, #0]
    21ee:	6202      	str	r2, [r0, #32]
    21f0:	2300      	movs	r3, #0
    21f2:	2201      	movs	r2, #1
    21f4:	1d41      	adds	r1, r0, #5
    21f6:	6043      	str	r3, [r0, #4]
    21f8:	7283      	strb	r3, [r0, #10]
    21fa:	72c3      	strb	r3, [r0, #11]
    21fc:	77ca      	strb	r2, [r1, #31]
    21fe:	1d81      	adds	r1, r0, #6
    2200:	77ca      	strb	r2, [r1, #31]
    2202:	1dc2      	adds	r2, r0, #7
    2204:	77d3      	strb	r3, [r2, #31]
    2206:	3201      	adds	r2, #1
    2208:	77d3      	strb	r3, [r2, #31]
    220a:	2288      	movs	r2, #136	; 0x88
    220c:	0352      	lsls	r2, r2, #13
    220e:	60c2      	str	r2, [r0, #12]
    2210:	0002      	movs	r2, r0
    2212:	322c      	adds	r2, #44	; 0x2c
    2214:	6283      	str	r3, [r0, #40]	; 0x28
    2216:	7013      	strb	r3, [r2, #0]
    2218:	7053      	strb	r3, [r2, #1]
    221a:	2213      	movs	r2, #19
    221c:	6303      	str	r3, [r0, #48]	; 0x30
    221e:	6343      	str	r3, [r0, #52]	; 0x34
    2220:	6383      	str	r3, [r0, #56]	; 0x38
    2222:	63c3      	str	r3, [r0, #60]	; 0x3c
    2224:	6143      	str	r3, [r0, #20]
    2226:	8203      	strh	r3, [r0, #16]
    2228:	76c3      	strb	r3, [r0, #27]
    222a:	7603      	strb	r3, [r0, #24]
    222c:	7703      	strb	r3, [r0, #28]
    222e:	7643      	strb	r3, [r0, #25]
    2230:	7682      	strb	r2, [r0, #26]
    2232:	7743      	strb	r3, [r0, #29]
    2234:	4770      	bx	lr

00002236 <usart_enable>:
    2236:	6803      	ldr	r3, [r0, #0]
    2238:	69da      	ldr	r2, [r3, #28]
    223a:	2a00      	cmp	r2, #0
    223c:	d1fc      	bne.n	2238 <usart_enable+0x2>
    223e:	6819      	ldr	r1, [r3, #0]
    2240:	3202      	adds	r2, #2
    2242:	430a      	orrs	r2, r1
    2244:	601a      	str	r2, [r3, #0]
    2246:	4770      	bx	lr

00002248 <usart_disable>:
    2248:	6803      	ldr	r3, [r0, #0]
    224a:	69da      	ldr	r2, [r3, #28]
    224c:	2a00      	cmp	r2, #0
    224e:	d1fc      	bne.n	224a <usart_disable+0x2>
    2250:	2102      	movs	r1, #2
    2252:	681a      	ldr	r2, [r3, #0]
    2254:	438a      	bics	r2, r1
    2256:	601a      	str	r2, [r3, #0]
    2258:	4770      	bx	lr
	...

0000225c <wcm_usart_check_for_pc_command>:
    225c:	4b03      	ldr	r3, [pc, #12]	; (226c <wcm_usart_check_for_pc_command+0x10>)
    225e:	2000      	movs	r0, #0
    2260:	681b      	ldr	r3, [r3, #0]
    2262:	7e1b      	ldrb	r3, [r3, #24]
    2264:	075b      	lsls	r3, r3, #29
    2266:	d400      	bmi.n	226a <wcm_usart_check_for_pc_command+0xe>
    2268:	3005      	adds	r0, #5
    226a:	4770      	bx	lr
    226c:	20000b10 	.word	0x20000b10

00002270 <wcm_usart_check_for_gps_data>:
    2270:	4b03      	ldr	r3, [pc, #12]	; (2280 <wcm_usart_check_for_gps_data+0x10>)
    2272:	2000      	movs	r0, #0
    2274:	681b      	ldr	r3, [r3, #0]
    2276:	7e1b      	ldrb	r3, [r3, #24]
    2278:	075b      	lsls	r3, r3, #29
    227a:	d400      	bmi.n	227e <wcm_usart_check_for_gps_data+0xe>
    227c:	3005      	adds	r0, #5
    227e:	4770      	bx	lr
    2280:	20000b00 	.word	0x20000b00

00002284 <wcm_usart_check_for_com_data>:
    2284:	4b03      	ldr	r3, [pc, #12]	; (2294 <wcm_usart_check_for_com_data+0x10>)
    2286:	2000      	movs	r0, #0
    2288:	681b      	ldr	r3, [r3, #0]
    228a:	7e1b      	ldrb	r3, [r3, #24]
    228c:	075b      	lsls	r3, r3, #29
    228e:	d400      	bmi.n	2292 <wcm_usart_check_for_com_data+0xe>
    2290:	3005      	adds	r0, #5
    2292:	4770      	bx	lr
    2294:	20000af0 	.word	0x20000af0

00002298 <wcm_usart_send_pc_message>:
    2298:	b510      	push	{r4, lr}
    229a:	4b04      	ldr	r3, [pc, #16]	; (22ac <wcm_usart_send_pc_message+0x14>)
    229c:	0004      	movs	r4, r0
    229e:	4798      	blx	r3
    22a0:	0021      	movs	r1, r4
    22a2:	b282      	uxth	r2, r0
    22a4:	4b02      	ldr	r3, [pc, #8]	; (22b0 <wcm_usart_send_pc_message+0x18>)
    22a6:	4803      	ldr	r0, [pc, #12]	; (22b4 <wcm_usart_send_pc_message+0x1c>)
    22a8:	4798      	blx	r3
    22aa:	bd10      	pop	{r4, pc}
    22ac:	00007a95 	.word	0x00007a95
    22b0:	00003741 	.word	0x00003741
    22b4:	20000b14 	.word	0x20000b14

000022b8 <pc_usart_configure>:
    22b8:	b530      	push	{r4, r5, lr}
    22ba:	b091      	sub	sp, #68	; 0x44
    22bc:	4b19      	ldr	r3, [pc, #100]	; (2324 <pc_usart_configure+0x6c>)
    22be:	0005      	movs	r5, r0
    22c0:	4668      	mov	r0, sp
    22c2:	4798      	blx	r3
    22c4:	2396      	movs	r3, #150	; 0x96
    22c6:	021b      	lsls	r3, r3, #8
    22c8:	9308      	str	r3, [sp, #32]
    22ca:	2388      	movs	r3, #136	; 0x88
    22cc:	035b      	lsls	r3, r3, #13
    22ce:	9303      	str	r3, [sp, #12]
    22d0:	2301      	movs	r3, #1
    22d2:	4a15      	ldr	r2, [pc, #84]	; (2328 <pc_usart_configure+0x70>)
    22d4:	425b      	negs	r3, r3
    22d6:	920d      	str	r2, [sp, #52]	; 0x34
    22d8:	4a14      	ldr	r2, [pc, #80]	; (232c <pc_usart_configure+0x74>)
    22da:	930c      	str	r3, [sp, #48]	; 0x30
    22dc:	920e      	str	r2, [sp, #56]	; 0x38
    22de:	2200      	movs	r2, #0
    22e0:	930f      	str	r3, [sp, #60]	; 0x3c
    22e2:	4b13      	ldr	r3, [pc, #76]	; (2330 <pc_usart_configure+0x78>)
    22e4:	9201      	str	r2, [sp, #4]
    22e6:	7819      	ldrb	r1, [r3, #0]
    22e8:	4c12      	ldr	r4, [pc, #72]	; (2334 <pc_usart_configure+0x7c>)
    22ea:	4291      	cmp	r1, r2
    22ec:	d015      	beq.n	231a <pc_usart_configure+0x62>
    22ee:	701a      	strb	r2, [r3, #0]
    22f0:	4b11      	ldr	r3, [pc, #68]	; (2338 <pc_usart_configure+0x80>)
    22f2:	466a      	mov	r2, sp
    22f4:	4911      	ldr	r1, [pc, #68]	; (233c <pc_usart_configure+0x84>)
    22f6:	0020      	movs	r0, r4
    22f8:	4798      	blx	r3
    22fa:	0020      	movs	r0, r4
    22fc:	4b10      	ldr	r3, [pc, #64]	; (2340 <pc_usart_configure+0x88>)
    22fe:	4798      	blx	r3
    2300:	2d01      	cmp	r5, #1
    2302:	d105      	bne.n	2310 <pc_usart_configure+0x58>
    2304:	480f      	ldr	r0, [pc, #60]	; (2344 <pc_usart_configure+0x8c>)
    2306:	4b10      	ldr	r3, [pc, #64]	; (2348 <pc_usart_configure+0x90>)
    2308:	4798      	blx	r3
    230a:	0020      	movs	r0, r4
    230c:	4b0f      	ldr	r3, [pc, #60]	; (234c <pc_usart_configure+0x94>)
    230e:	4798      	blx	r3
    2310:	6822      	ldr	r2, [r4, #0]
    2312:	4b0f      	ldr	r3, [pc, #60]	; (2350 <pc_usart_configure+0x98>)
    2314:	601a      	str	r2, [r3, #0]
    2316:	b011      	add	sp, #68	; 0x44
    2318:	bd30      	pop	{r4, r5, pc}
    231a:	0020      	movs	r0, r4
    231c:	4b0b      	ldr	r3, [pc, #44]	; (234c <pc_usart_configure+0x94>)
    231e:	4798      	blx	r3
    2320:	e7e6      	b.n	22f0 <pc_usart_configure+0x38>
    2322:	46c0      	nop			; (mov r8, r8)
    2324:	000021e1 	.word	0x000021e1
    2328:	00090003 	.word	0x00090003
    232c:	000a0003 	.word	0x000a0003
    2330:	20000003 	.word	0x20000003
    2334:	20000b14 	.word	0x20000b14
    2338:	00003425 	.word	0x00003425
    233c:	42000800 	.word	0x42000800
    2340:	00002237 	.word	0x00002237
    2344:	0000d1c5 	.word	0x0000d1c5
    2348:	00002299 	.word	0x00002299
    234c:	00002249 	.word	0x00002249
    2350:	20000b10 	.word	0x20000b10

00002354 <gps_usart_configure>:
    2354:	b530      	push	{r4, r5, lr}
    2356:	b091      	sub	sp, #68	; 0x44
    2358:	4b19      	ldr	r3, [pc, #100]	; (23c0 <gps_usart_configure+0x6c>)
    235a:	0005      	movs	r5, r0
    235c:	4668      	mov	r0, sp
    235e:	4798      	blx	r3
    2360:	2396      	movs	r3, #150	; 0x96
    2362:	021b      	lsls	r3, r3, #8
    2364:	9308      	str	r3, [sp, #32]
    2366:	2380      	movs	r3, #128	; 0x80
    2368:	035b      	lsls	r3, r3, #13
    236a:	9303      	str	r3, [sp, #12]
    236c:	2303      	movs	r3, #3
    236e:	930c      	str	r3, [sp, #48]	; 0x30
    2370:	4b14      	ldr	r3, [pc, #80]	; (23c4 <gps_usart_configure+0x70>)
    2372:	2200      	movs	r2, #0
    2374:	930d      	str	r3, [sp, #52]	; 0x34
    2376:	2301      	movs	r3, #1
    2378:	425b      	negs	r3, r3
    237a:	930e      	str	r3, [sp, #56]	; 0x38
    237c:	930f      	str	r3, [sp, #60]	; 0x3c
    237e:	4b12      	ldr	r3, [pc, #72]	; (23c8 <gps_usart_configure+0x74>)
    2380:	9201      	str	r2, [sp, #4]
    2382:	7819      	ldrb	r1, [r3, #0]
    2384:	4c11      	ldr	r4, [pc, #68]	; (23cc <gps_usart_configure+0x78>)
    2386:	4291      	cmp	r1, r2
    2388:	d015      	beq.n	23b6 <gps_usart_configure+0x62>
    238a:	701a      	strb	r2, [r3, #0]
    238c:	4b10      	ldr	r3, [pc, #64]	; (23d0 <gps_usart_configure+0x7c>)
    238e:	466a      	mov	r2, sp
    2390:	4910      	ldr	r1, [pc, #64]	; (23d4 <gps_usart_configure+0x80>)
    2392:	0020      	movs	r0, r4
    2394:	4798      	blx	r3
    2396:	0020      	movs	r0, r4
    2398:	4b0f      	ldr	r3, [pc, #60]	; (23d8 <gps_usart_configure+0x84>)
    239a:	4798      	blx	r3
    239c:	2d01      	cmp	r5, #1
    239e:	d105      	bne.n	23ac <gps_usart_configure+0x58>
    23a0:	480e      	ldr	r0, [pc, #56]	; (23dc <gps_usart_configure+0x88>)
    23a2:	4b0f      	ldr	r3, [pc, #60]	; (23e0 <gps_usart_configure+0x8c>)
    23a4:	4798      	blx	r3
    23a6:	0020      	movs	r0, r4
    23a8:	4b0e      	ldr	r3, [pc, #56]	; (23e4 <gps_usart_configure+0x90>)
    23aa:	4798      	blx	r3
    23ac:	6822      	ldr	r2, [r4, #0]
    23ae:	4b0e      	ldr	r3, [pc, #56]	; (23e8 <gps_usart_configure+0x94>)
    23b0:	601a      	str	r2, [r3, #0]
    23b2:	b011      	add	sp, #68	; 0x44
    23b4:	bd30      	pop	{r4, r5, pc}
    23b6:	0020      	movs	r0, r4
    23b8:	4b0a      	ldr	r3, [pc, #40]	; (23e4 <gps_usart_configure+0x90>)
    23ba:	4798      	blx	r3
    23bc:	e7e6      	b.n	238c <gps_usart_configure+0x38>
    23be:	46c0      	nop			; (mov r8, r8)
    23c0:	000021e1 	.word	0x000021e1
    23c4:	00010003 	.word	0x00010003
    23c8:	20000004 	.word	0x20000004
    23cc:	20000b04 	.word	0x20000b04
    23d0:	00003425 	.word	0x00003425
    23d4:	42000400 	.word	0x42000400
    23d8:	00002237 	.word	0x00002237
    23dc:	0000d1af 	.word	0x0000d1af
    23e0:	00002299 	.word	0x00002299
    23e4:	00002249 	.word	0x00002249
    23e8:	20000b00 	.word	0x20000b00

000023ec <com_usart_configure>:
    23ec:	b530      	push	{r4, r5, lr}
    23ee:	b091      	sub	sp, #68	; 0x44
    23f0:	4b19      	ldr	r3, [pc, #100]	; (2458 <com_usart_configure+0x6c>)
    23f2:	0005      	movs	r5, r0
    23f4:	4668      	mov	r0, sp
    23f6:	4798      	blx	r3
    23f8:	2396      	movs	r3, #150	; 0x96
    23fa:	021b      	lsls	r3, r3, #8
    23fc:	9308      	str	r3, [sp, #32]
    23fe:	2380      	movs	r3, #128	; 0x80
    2400:	035b      	lsls	r3, r3, #13
    2402:	9303      	str	r3, [sp, #12]
    2404:	4b15      	ldr	r3, [pc, #84]	; (245c <com_usart_configure+0x70>)
    2406:	2200      	movs	r2, #0
    2408:	930c      	str	r3, [sp, #48]	; 0x30
    240a:	4b15      	ldr	r3, [pc, #84]	; (2460 <com_usart_configure+0x74>)
    240c:	9201      	str	r2, [sp, #4]
    240e:	930d      	str	r3, [sp, #52]	; 0x34
    2410:	2301      	movs	r3, #1
    2412:	425b      	negs	r3, r3
    2414:	930e      	str	r3, [sp, #56]	; 0x38
    2416:	930f      	str	r3, [sp, #60]	; 0x3c
    2418:	4b12      	ldr	r3, [pc, #72]	; (2464 <com_usart_configure+0x78>)
    241a:	4c13      	ldr	r4, [pc, #76]	; (2468 <com_usart_configure+0x7c>)
    241c:	7819      	ldrb	r1, [r3, #0]
    241e:	4291      	cmp	r1, r2
    2420:	d016      	beq.n	2450 <com_usart_configure+0x64>
    2422:	701a      	strb	r2, [r3, #0]
    2424:	2184      	movs	r1, #132	; 0x84
    2426:	4b11      	ldr	r3, [pc, #68]	; (246c <com_usart_configure+0x80>)
    2428:	466a      	mov	r2, sp
    242a:	05c9      	lsls	r1, r1, #23
    242c:	0020      	movs	r0, r4
    242e:	4798      	blx	r3
    2430:	0020      	movs	r0, r4
    2432:	4b0f      	ldr	r3, [pc, #60]	; (2470 <com_usart_configure+0x84>)
    2434:	4798      	blx	r3
    2436:	2d01      	cmp	r5, #1
    2438:	d105      	bne.n	2446 <com_usart_configure+0x5a>
    243a:	480e      	ldr	r0, [pc, #56]	; (2474 <com_usart_configure+0x88>)
    243c:	4b0e      	ldr	r3, [pc, #56]	; (2478 <com_usart_configure+0x8c>)
    243e:	4798      	blx	r3
    2440:	0020      	movs	r0, r4
    2442:	4b0e      	ldr	r3, [pc, #56]	; (247c <com_usart_configure+0x90>)
    2444:	4798      	blx	r3
    2446:	6822      	ldr	r2, [r4, #0]
    2448:	4b0d      	ldr	r3, [pc, #52]	; (2480 <com_usart_configure+0x94>)
    244a:	601a      	str	r2, [r3, #0]
    244c:	b011      	add	sp, #68	; 0x44
    244e:	bd30      	pop	{r4, r5, pc}
    2450:	0020      	movs	r0, r4
    2452:	4b0a      	ldr	r3, [pc, #40]	; (247c <com_usart_configure+0x90>)
    2454:	4798      	blx	r3
    2456:	e7e5      	b.n	2424 <com_usart_configure+0x38>
    2458:	000021e1 	.word	0x000021e1
    245c:	00040003 	.word	0x00040003
    2460:	00050003 	.word	0x00050003
    2464:	20000005 	.word	0x20000005
    2468:	20000af4 	.word	0x20000af4
    246c:	00003425 	.word	0x00003425
    2470:	00002237 	.word	0x00002237
    2474:	0000d199 	.word	0x0000d199
    2478:	00002299 	.word	0x00002299
    247c:	00002249 	.word	0x00002249
    2480:	20000af0 	.word	0x20000af0

00002484 <wcm_usart_configure>:
    2484:	b510      	push	{r4, lr}
    2486:	2000      	movs	r0, #0
    2488:	4b04      	ldr	r3, [pc, #16]	; (249c <wcm_usart_configure+0x18>)
    248a:	4798      	blx	r3
    248c:	2000      	movs	r0, #0
    248e:	4b04      	ldr	r3, [pc, #16]	; (24a0 <wcm_usart_configure+0x1c>)
    2490:	4798      	blx	r3
    2492:	2000      	movs	r0, #0
    2494:	4b03      	ldr	r3, [pc, #12]	; (24a4 <wcm_usart_configure+0x20>)
    2496:	4798      	blx	r3
    2498:	bd10      	pop	{r4, pc}
    249a:	46c0      	nop			; (mov r8, r8)
    249c:	000022b9 	.word	0x000022b9
    24a0:	00002355 	.word	0x00002355
    24a4:	000023ed 	.word	0x000023ed

000024a8 <wcm_usart_send_gps_command>:
    24a8:	b510      	push	{r4, lr}
    24aa:	4b04      	ldr	r3, [pc, #16]	; (24bc <wcm_usart_send_gps_command+0x14>)
    24ac:	0004      	movs	r4, r0
    24ae:	4798      	blx	r3
    24b0:	0021      	movs	r1, r4
    24b2:	b282      	uxth	r2, r0
    24b4:	4b02      	ldr	r3, [pc, #8]	; (24c0 <wcm_usart_send_gps_command+0x18>)
    24b6:	4803      	ldr	r0, [pc, #12]	; (24c4 <wcm_usart_send_gps_command+0x1c>)
    24b8:	4798      	blx	r3
    24ba:	bd10      	pop	{r4, pc}
    24bc:	00007a95 	.word	0x00007a95
    24c0:	00003741 	.word	0x00003741
    24c4:	20000b04 	.word	0x20000b04

000024c8 <wcm_usart_get_pc_command>:
    24c8:	b5f0      	push	{r4, r5, r6, r7, lr}
    24ca:	2400      	movs	r4, #0
    24cc:	0005      	movs	r5, r0
    24ce:	0026      	movs	r6, r4
    24d0:	b085      	sub	sp, #20
    24d2:	ab02      	add	r3, sp, #8
    24d4:	1d9f      	adds	r7, r3, #6
    24d6:	9101      	str	r1, [sp, #4]
    24d8:	803c      	strh	r4, [r7, #0]
    24da:	0039      	movs	r1, r7
    24dc:	481c      	ldr	r0, [pc, #112]	; (2550 <wcm_usart_get_pc_command+0x88>)
    24de:	4b1d      	ldr	r3, [pc, #116]	; (2554 <wcm_usart_get_pc_command+0x8c>)
    24e0:	4798      	blx	r3
    24e2:	2800      	cmp	r0, #0
    24e4:	d11b      	bne.n	251e <wcm_usart_get_pc_command+0x56>
    24e6:	883a      	ldrh	r2, [r7, #0]
    24e8:	2a0a      	cmp	r2, #10
    24ea:	d106      	bne.n	24fa <wcm_usart_get_pc_command+0x32>
    24ec:	2c00      	cmp	r4, #0
    24ee:	d0f4      	beq.n	24da <wcm_usart_get_pc_command+0x12>
    24f0:	0020      	movs	r0, r4
    24f2:	b005      	add	sp, #20
    24f4:	bdf0      	pop	{r4, r5, r6, r7, pc}
    24f6:	001e      	movs	r6, r3
    24f8:	e7ef      	b.n	24da <wcm_usart_get_pc_command+0x12>
    24fa:	1c73      	adds	r3, r6, #1
    24fc:	55aa      	strb	r2, [r5, r6]
    24fe:	2a0d      	cmp	r2, #13
    2500:	d105      	bne.n	250e <wcm_usart_get_pc_command+0x46>
    2502:	18ea      	adds	r2, r5, r3
    2504:	3a01      	subs	r2, #1
    2506:	7010      	strb	r0, [r2, #0]
    2508:	001e      	movs	r6, r3
    250a:	2401      	movs	r4, #1
    250c:	e7e5      	b.n	24da <wcm_usart_get_pc_command+0x12>
    250e:	9a01      	ldr	r2, [sp, #4]
    2510:	4293      	cmp	r3, r2
    2512:	d1f0      	bne.n	24f6 <wcm_usart_get_pc_command+0x2e>
    2514:	18ad      	adds	r5, r5, r2
    2516:	3d01      	subs	r5, #1
    2518:	7028      	strb	r0, [r5, #0]
    251a:	2400      	movs	r4, #0
    251c:	e7e8      	b.n	24f0 <wcm_usart_get_pc_command+0x28>
    251e:	2805      	cmp	r0, #5
    2520:	d0db      	beq.n	24da <wcm_usart_get_pc_command+0x12>
    2522:	4b0d      	ldr	r3, [pc, #52]	; (2558 <wcm_usart_get_pc_command+0x90>)
    2524:	490d      	ldr	r1, [pc, #52]	; (255c <wcm_usart_get_pc_command+0x94>)
    2526:	281a      	cmp	r0, #26
    2528:	d00f      	beq.n	254a <wcm_usart_get_pc_command+0x82>
    252a:	490d      	ldr	r1, [pc, #52]	; (2560 <wcm_usart_get_pc_command+0x98>)
    252c:	281e      	cmp	r0, #30
    252e:	d00c      	beq.n	254a <wcm_usart_get_pc_command+0x82>
    2530:	490c      	ldr	r1, [pc, #48]	; (2564 <wcm_usart_get_pc_command+0x9c>)
    2532:	2813      	cmp	r0, #19
    2534:	d009      	beq.n	254a <wcm_usart_get_pc_command+0x82>
    2536:	490c      	ldr	r1, [pc, #48]	; (2568 <wcm_usart_get_pc_command+0xa0>)
    2538:	281c      	cmp	r0, #28
    253a:	d006      	beq.n	254a <wcm_usart_get_pc_command+0x82>
    253c:	490b      	ldr	r1, [pc, #44]	; (256c <wcm_usart_get_pc_command+0xa4>)
    253e:	2842      	cmp	r0, #66	; 0x42
    2540:	d003      	beq.n	254a <wcm_usart_get_pc_command+0x82>
    2542:	490b      	ldr	r1, [pc, #44]	; (2570 <wcm_usart_get_pc_command+0xa8>)
    2544:	2841      	cmp	r0, #65	; 0x41
    2546:	d000      	beq.n	254a <wcm_usart_get_pc_command+0x82>
    2548:	490a      	ldr	r1, [pc, #40]	; (2574 <wcm_usart_get_pc_command+0xac>)
    254a:	0028      	movs	r0, r5
    254c:	4798      	blx	r3
    254e:	e7e4      	b.n	251a <wcm_usart_get_pc_command+0x52>
    2550:	20000b14 	.word	0x20000b14
    2554:	000036df 	.word	0x000036df
    2558:	00007a85 	.word	0x00007a85
    255c:	0000d1da 	.word	0x0000d1da
    2560:	0000d203 	.word	0x0000d203
    2564:	0000d22a 	.word	0x0000d22a
    2568:	0000d251 	.word	0x0000d251
    256c:	0000d276 	.word	0x0000d276
    2570:	0000d29d 	.word	0x0000d29d
    2574:	0000d2cc 	.word	0x0000d2cc

00002578 <wcm_usart_get_gps_data>:
    2578:	b5f0      	push	{r4, r5, r6, r7, lr}
    257a:	2400      	movs	r4, #0
    257c:	0005      	movs	r5, r0
    257e:	0026      	movs	r6, r4
    2580:	b085      	sub	sp, #20
    2582:	ab02      	add	r3, sp, #8
    2584:	1d9f      	adds	r7, r3, #6
    2586:	9101      	str	r1, [sp, #4]
    2588:	803c      	strh	r4, [r7, #0]
    258a:	0039      	movs	r1, r7
    258c:	481c      	ldr	r0, [pc, #112]	; (2600 <wcm_usart_get_gps_data+0x88>)
    258e:	4b1d      	ldr	r3, [pc, #116]	; (2604 <wcm_usart_get_gps_data+0x8c>)
    2590:	4798      	blx	r3
    2592:	2800      	cmp	r0, #0
    2594:	d11b      	bne.n	25ce <wcm_usart_get_gps_data+0x56>
    2596:	883a      	ldrh	r2, [r7, #0]
    2598:	2a0a      	cmp	r2, #10
    259a:	d106      	bne.n	25aa <wcm_usart_get_gps_data+0x32>
    259c:	2c00      	cmp	r4, #0
    259e:	d0f4      	beq.n	258a <wcm_usart_get_gps_data+0x12>
    25a0:	0020      	movs	r0, r4
    25a2:	b005      	add	sp, #20
    25a4:	bdf0      	pop	{r4, r5, r6, r7, pc}
    25a6:	001e      	movs	r6, r3
    25a8:	e7ef      	b.n	258a <wcm_usart_get_gps_data+0x12>
    25aa:	1c73      	adds	r3, r6, #1
    25ac:	55aa      	strb	r2, [r5, r6]
    25ae:	2a0d      	cmp	r2, #13
    25b0:	d105      	bne.n	25be <wcm_usart_get_gps_data+0x46>
    25b2:	18ea      	adds	r2, r5, r3
    25b4:	3a01      	subs	r2, #1
    25b6:	7010      	strb	r0, [r2, #0]
    25b8:	001e      	movs	r6, r3
    25ba:	2401      	movs	r4, #1
    25bc:	e7e5      	b.n	258a <wcm_usart_get_gps_data+0x12>
    25be:	9a01      	ldr	r2, [sp, #4]
    25c0:	4293      	cmp	r3, r2
    25c2:	d1f0      	bne.n	25a6 <wcm_usart_get_gps_data+0x2e>
    25c4:	18ad      	adds	r5, r5, r2
    25c6:	3d01      	subs	r5, #1
    25c8:	7028      	strb	r0, [r5, #0]
    25ca:	2400      	movs	r4, #0
    25cc:	e7e8      	b.n	25a0 <wcm_usart_get_gps_data+0x28>
    25ce:	2805      	cmp	r0, #5
    25d0:	d0db      	beq.n	258a <wcm_usart_get_gps_data+0x12>
    25d2:	4b0d      	ldr	r3, [pc, #52]	; (2608 <wcm_usart_get_gps_data+0x90>)
    25d4:	490d      	ldr	r1, [pc, #52]	; (260c <wcm_usart_get_gps_data+0x94>)
    25d6:	281a      	cmp	r0, #26
    25d8:	d00f      	beq.n	25fa <wcm_usart_get_gps_data+0x82>
    25da:	490d      	ldr	r1, [pc, #52]	; (2610 <wcm_usart_get_gps_data+0x98>)
    25dc:	281e      	cmp	r0, #30
    25de:	d00c      	beq.n	25fa <wcm_usart_get_gps_data+0x82>
    25e0:	490c      	ldr	r1, [pc, #48]	; (2614 <wcm_usart_get_gps_data+0x9c>)
    25e2:	2813      	cmp	r0, #19
    25e4:	d009      	beq.n	25fa <wcm_usart_get_gps_data+0x82>
    25e6:	490c      	ldr	r1, [pc, #48]	; (2618 <wcm_usart_get_gps_data+0xa0>)
    25e8:	281c      	cmp	r0, #28
    25ea:	d006      	beq.n	25fa <wcm_usart_get_gps_data+0x82>
    25ec:	490b      	ldr	r1, [pc, #44]	; (261c <wcm_usart_get_gps_data+0xa4>)
    25ee:	2842      	cmp	r0, #66	; 0x42
    25f0:	d003      	beq.n	25fa <wcm_usart_get_gps_data+0x82>
    25f2:	490b      	ldr	r1, [pc, #44]	; (2620 <wcm_usart_get_gps_data+0xa8>)
    25f4:	2841      	cmp	r0, #65	; 0x41
    25f6:	d000      	beq.n	25fa <wcm_usart_get_gps_data+0x82>
    25f8:	490a      	ldr	r1, [pc, #40]	; (2624 <wcm_usart_get_gps_data+0xac>)
    25fa:	0028      	movs	r0, r5
    25fc:	4798      	blx	r3
    25fe:	e7e4      	b.n	25ca <wcm_usart_get_gps_data+0x52>
    2600:	20000b04 	.word	0x20000b04
    2604:	000036df 	.word	0x000036df
    2608:	00007a85 	.word	0x00007a85
    260c:	0000d1da 	.word	0x0000d1da
    2610:	0000d203 	.word	0x0000d203
    2614:	0000d22a 	.word	0x0000d22a
    2618:	0000d251 	.word	0x0000d251
    261c:	0000d276 	.word	0x0000d276
    2620:	0000d29d 	.word	0x0000d29d
    2624:	0000d2cc 	.word	0x0000d2cc

00002628 <wcm_usart_get_com_data>:
    2628:	b5f0      	push	{r4, r5, r6, r7, lr}
    262a:	2400      	movs	r4, #0
    262c:	0005      	movs	r5, r0
    262e:	0026      	movs	r6, r4
    2630:	b085      	sub	sp, #20
    2632:	ab02      	add	r3, sp, #8
    2634:	1d9f      	adds	r7, r3, #6
    2636:	9101      	str	r1, [sp, #4]
    2638:	803c      	strh	r4, [r7, #0]
    263a:	0039      	movs	r1, r7
    263c:	481c      	ldr	r0, [pc, #112]	; (26b0 <wcm_usart_get_com_data+0x88>)
    263e:	4b1d      	ldr	r3, [pc, #116]	; (26b4 <wcm_usart_get_com_data+0x8c>)
    2640:	4798      	blx	r3
    2642:	2800      	cmp	r0, #0
    2644:	d11b      	bne.n	267e <wcm_usart_get_com_data+0x56>
    2646:	883a      	ldrh	r2, [r7, #0]
    2648:	2a0a      	cmp	r2, #10
    264a:	d106      	bne.n	265a <wcm_usart_get_com_data+0x32>
    264c:	2c00      	cmp	r4, #0
    264e:	d0f4      	beq.n	263a <wcm_usart_get_com_data+0x12>
    2650:	0020      	movs	r0, r4
    2652:	b005      	add	sp, #20
    2654:	bdf0      	pop	{r4, r5, r6, r7, pc}
    2656:	001e      	movs	r6, r3
    2658:	e7ef      	b.n	263a <wcm_usart_get_com_data+0x12>
    265a:	1c73      	adds	r3, r6, #1
    265c:	55aa      	strb	r2, [r5, r6]
    265e:	2a0d      	cmp	r2, #13
    2660:	d105      	bne.n	266e <wcm_usart_get_com_data+0x46>
    2662:	18ea      	adds	r2, r5, r3
    2664:	3a01      	subs	r2, #1
    2666:	7010      	strb	r0, [r2, #0]
    2668:	001e      	movs	r6, r3
    266a:	2401      	movs	r4, #1
    266c:	e7e5      	b.n	263a <wcm_usart_get_com_data+0x12>
    266e:	9a01      	ldr	r2, [sp, #4]
    2670:	4293      	cmp	r3, r2
    2672:	d1f0      	bne.n	2656 <wcm_usart_get_com_data+0x2e>
    2674:	18ad      	adds	r5, r5, r2
    2676:	3d01      	subs	r5, #1
    2678:	7028      	strb	r0, [r5, #0]
    267a:	2400      	movs	r4, #0
    267c:	e7e8      	b.n	2650 <wcm_usart_get_com_data+0x28>
    267e:	2805      	cmp	r0, #5
    2680:	d0db      	beq.n	263a <wcm_usart_get_com_data+0x12>
    2682:	4b0d      	ldr	r3, [pc, #52]	; (26b8 <wcm_usart_get_com_data+0x90>)
    2684:	490d      	ldr	r1, [pc, #52]	; (26bc <wcm_usart_get_com_data+0x94>)
    2686:	281a      	cmp	r0, #26
    2688:	d00f      	beq.n	26aa <wcm_usart_get_com_data+0x82>
    268a:	490d      	ldr	r1, [pc, #52]	; (26c0 <wcm_usart_get_com_data+0x98>)
    268c:	281e      	cmp	r0, #30
    268e:	d00c      	beq.n	26aa <wcm_usart_get_com_data+0x82>
    2690:	490c      	ldr	r1, [pc, #48]	; (26c4 <wcm_usart_get_com_data+0x9c>)
    2692:	2813      	cmp	r0, #19
    2694:	d009      	beq.n	26aa <wcm_usart_get_com_data+0x82>
    2696:	490c      	ldr	r1, [pc, #48]	; (26c8 <wcm_usart_get_com_data+0xa0>)
    2698:	281c      	cmp	r0, #28
    269a:	d006      	beq.n	26aa <wcm_usart_get_com_data+0x82>
    269c:	490b      	ldr	r1, [pc, #44]	; (26cc <wcm_usart_get_com_data+0xa4>)
    269e:	2842      	cmp	r0, #66	; 0x42
    26a0:	d003      	beq.n	26aa <wcm_usart_get_com_data+0x82>
    26a2:	490b      	ldr	r1, [pc, #44]	; (26d0 <wcm_usart_get_com_data+0xa8>)
    26a4:	2841      	cmp	r0, #65	; 0x41
    26a6:	d000      	beq.n	26aa <wcm_usart_get_com_data+0x82>
    26a8:	490a      	ldr	r1, [pc, #40]	; (26d4 <wcm_usart_get_com_data+0xac>)
    26aa:	0028      	movs	r0, r5
    26ac:	4798      	blx	r3
    26ae:	e7e4      	b.n	267a <wcm_usart_get_com_data+0x52>
    26b0:	20000af4 	.word	0x20000af4
    26b4:	000036df 	.word	0x000036df
    26b8:	00007a85 	.word	0x00007a85
    26bc:	0000d1da 	.word	0x0000d1da
    26c0:	0000d203 	.word	0x0000d203
    26c4:	0000d22a 	.word	0x0000d22a
    26c8:	0000d251 	.word	0x0000d251
    26cc:	0000d276 	.word	0x0000d276
    26d0:	0000d29d 	.word	0x0000d29d
    26d4:	0000d2cc 	.word	0x0000d2cc

000026d8 <_adc_configure_ain_pin.isra.1>:
    26d8:	b530      	push	{r4, r5, lr}
    26da:	b09b      	sub	sp, #108	; 0x6c
    26dc:	ad02      	add	r5, sp, #8
    26de:	0004      	movs	r4, r0
    26e0:	2260      	movs	r2, #96	; 0x60
    26e2:	490a      	ldr	r1, [pc, #40]	; (270c <_adc_configure_ain_pin.isra.1+0x34>)
    26e4:	0028      	movs	r0, r5
    26e6:	4b0a      	ldr	r3, [pc, #40]	; (2710 <_adc_configure_ain_pin.isra.1+0x38>)
    26e8:	4798      	blx	r3
    26ea:	2c13      	cmp	r4, #19
    26ec:	d80b      	bhi.n	2706 <_adc_configure_ain_pin.isra.1+0x2e>
    26ee:	2300      	movs	r3, #0
    26f0:	00a4      	lsls	r4, r4, #2
    26f2:	a901      	add	r1, sp, #4
    26f4:	5960      	ldr	r0, [r4, r5]
    26f6:	704b      	strb	r3, [r1, #1]
    26f8:	70cb      	strb	r3, [r1, #3]
    26fa:	708b      	strb	r3, [r1, #2]
    26fc:	3301      	adds	r3, #1
    26fe:	700b      	strb	r3, [r1, #0]
    2700:	b2c0      	uxtb	r0, r0
    2702:	4b04      	ldr	r3, [pc, #16]	; (2714 <_adc_configure_ain_pin.isra.1+0x3c>)
    2704:	4798      	blx	r3
    2706:	b01b      	add	sp, #108	; 0x6c
    2708:	bd30      	pop	{r4, r5, pc}
    270a:	46c0      	nop			; (mov r8, r8)
    270c:	0000d2e8 	.word	0x0000d2e8
    2710:	00007929 	.word	0x00007929
    2714:	000050b1 	.word	0x000050b1

00002718 <adc_get_config_defaults>:
    2718:	2201      	movs	r2, #1
    271a:	7102      	strb	r2, [r0, #4]
    271c:	22c0      	movs	r2, #192	; 0xc0
    271e:	0152      	lsls	r2, r2, #5
    2720:	80c2      	strh	r2, [r0, #6]
    2722:	0002      	movs	r2, r0
    2724:	2300      	movs	r3, #0
    2726:	322a      	adds	r2, #42	; 0x2a
    2728:	7003      	strb	r3, [r0, #0]
    272a:	7043      	strb	r3, [r0, #1]
    272c:	7083      	strb	r3, [r0, #2]
    272e:	70c3      	strb	r3, [r0, #3]
    2730:	8303      	strh	r3, [r0, #24]
    2732:	6203      	str	r3, [r0, #32]
    2734:	61c3      	str	r3, [r0, #28]
    2736:	7203      	strb	r3, [r0, #8]
    2738:	7243      	strb	r3, [r0, #9]
    273a:	7283      	strb	r3, [r0, #10]
    273c:	72c3      	strb	r3, [r0, #11]
    273e:	7303      	strb	r3, [r0, #12]
    2740:	7013      	strb	r3, [r2, #0]
    2742:	1d42      	adds	r2, r0, #5
    2744:	7343      	strb	r3, [r0, #13]
    2746:	7383      	strb	r3, [r0, #14]
    2748:	73c3      	strb	r3, [r0, #15]
    274a:	6103      	str	r3, [r0, #16]
    274c:	7503      	strb	r3, [r0, #20]
    274e:	77d3      	strb	r3, [r2, #31]
    2750:	84c3      	strh	r3, [r0, #38]	; 0x26
    2752:	8503      	strh	r3, [r0, #40]	; 0x28
    2754:	7543      	strb	r3, [r0, #21]
    2756:	4770      	bx	lr

00002758 <adc_init>:
    2758:	2308      	movs	r3, #8
    275a:	b5f7      	push	{r0, r1, r2, r4, r5, r6, r7, lr}
    275c:	0014      	movs	r4, r2
    275e:	4a9f      	ldr	r2, [pc, #636]	; (29dc <adc_init+0x284>)
    2760:	6001      	str	r1, [r0, #0]
    2762:	0006      	movs	r6, r0
    2764:	6a10      	ldr	r0, [r2, #32]
    2766:	4303      	orrs	r3, r0
    2768:	6213      	str	r3, [r2, #32]
    276a:	780b      	ldrb	r3, [r1, #0]
    276c:	2005      	movs	r0, #5
    276e:	07db      	lsls	r3, r3, #31
    2770:	d500      	bpl.n	2774 <adc_init+0x1c>
    2772:	e0d0      	b.n	2916 <adc_init+0x1be>
    2774:	6832      	ldr	r2, [r6, #0]
    2776:	8c13      	ldrh	r3, [r2, #32]
    2778:	2b00      	cmp	r3, #0
    277a:	d1fc      	bne.n	2776 <adc_init+0x1e>
    277c:	780b      	ldrb	r3, [r1, #0]
    277e:	201c      	movs	r0, #28
    2780:	079b      	lsls	r3, r3, #30
    2782:	d500      	bpl.n	2786 <adc_init+0x2e>
    2784:	e0c7      	b.n	2916 <adc_init+0x1be>
    2786:	7863      	ldrb	r3, [r4, #1]
    2788:	7133      	strb	r3, [r6, #4]
    278a:	2b00      	cmp	r3, #0
    278c:	d104      	bne.n	2798 <adc_init+0x40>
    278e:	4a94      	ldr	r2, [pc, #592]	; (29e0 <adc_init+0x288>)
    2790:	3304      	adds	r3, #4
    2792:	69d1      	ldr	r1, [r2, #28]
    2794:	430b      	orrs	r3, r1
    2796:	61d3      	str	r3, [r2, #28]
    2798:	7823      	ldrb	r3, [r4, #0]
    279a:	a901      	add	r1, sp, #4
    279c:	700b      	strb	r3, [r1, #0]
    279e:	201e      	movs	r0, #30
    27a0:	4b90      	ldr	r3, [pc, #576]	; (29e4 <adc_init+0x28c>)
    27a2:	6835      	ldr	r5, [r6, #0]
    27a4:	4798      	blx	r3
    27a6:	201e      	movs	r0, #30
    27a8:	4b8f      	ldr	r3, [pc, #572]	; (29e8 <adc_init+0x290>)
    27aa:	4798      	blx	r3
    27ac:	7920      	ldrb	r0, [r4, #4]
    27ae:	4b8f      	ldr	r3, [pc, #572]	; (29ec <adc_init+0x294>)
    27b0:	4798      	blx	r3
    27b2:	88e0      	ldrh	r0, [r4, #6]
    27b4:	4b8d      	ldr	r3, [pc, #564]	; (29ec <adc_init+0x294>)
    27b6:	4798      	blx	r3
    27b8:	2700      	movs	r7, #0
    27ba:	2301      	movs	r3, #1
    27bc:	40bb      	lsls	r3, r7
    27be:	6922      	ldr	r2, [r4, #16]
    27c0:	421a      	tst	r2, r3
    27c2:	d002      	beq.n	27ca <adc_init+0x72>
    27c4:	0038      	movs	r0, r7
    27c6:	4b89      	ldr	r3, [pc, #548]	; (29ec <adc_init+0x294>)
    27c8:	4798      	blx	r3
    27ca:	3701      	adds	r7, #1
    27cc:	2f14      	cmp	r7, #20
    27ce:	d1f4      	bne.n	27ba <adc_init+0x62>
    27d0:	7b63      	ldrb	r3, [r4, #13]
    27d2:	7ba2      	ldrb	r2, [r4, #14]
    27d4:	019b      	lsls	r3, r3, #6
    27d6:	01d2      	lsls	r2, r2, #7
    27d8:	4313      	orrs	r3, r2
    27da:	b2db      	uxtb	r3, r3
    27dc:	702b      	strb	r3, [r5, #0]
    27de:	7d23      	ldrb	r3, [r4, #20]
    27e0:	7862      	ldrb	r2, [r4, #1]
    27e2:	01db      	lsls	r3, r3, #7
    27e4:	4313      	orrs	r3, r2
    27e6:	b2db      	uxtb	r3, r3
    27e8:	70ab      	strb	r3, [r5, #2]
    27ea:	78e3      	ldrb	r3, [r4, #3]
    27ec:	2b30      	cmp	r3, #48	; 0x30
    27ee:	d100      	bne.n	27f2 <adc_init+0x9a>
    27f0:	e09d      	b.n	292e <adc_init+0x1d6>
    27f2:	d809      	bhi.n	2808 <adc_init+0xb0>
    27f4:	2b10      	cmp	r3, #16
    27f6:	d100      	bne.n	27fa <adc_init+0xa2>
    27f8:	e096      	b.n	2928 <adc_init+0x1d0>
    27fa:	2b20      	cmp	r3, #32
    27fc:	d100      	bne.n	2800 <adc_init+0xa8>
    27fe:	e096      	b.n	292e <adc_init+0x1d6>
    2800:	2b00      	cmp	r3, #0
    2802:	d10b      	bne.n	281c <adc_init+0xc4>
    2804:	001a      	movs	r2, r3
    2806:	e090      	b.n	292a <adc_init+0x1d2>
    2808:	2b32      	cmp	r3, #50	; 0x32
    280a:	d009      	beq.n	2820 <adc_init+0xc8>
    280c:	d200      	bcs.n	2810 <adc_init+0xb8>
    280e:	e090      	b.n	2932 <adc_init+0x1da>
    2810:	2b33      	cmp	r3, #51	; 0x33
    2812:	d100      	bne.n	2816 <adc_init+0xbe>
    2814:	e084      	b.n	2920 <adc_init+0x1c8>
    2816:	2b34      	cmp	r3, #52	; 0x34
    2818:	d100      	bne.n	281c <adc_init+0xc4>
    281a:	e07d      	b.n	2918 <adc_init+0x1c0>
    281c:	2017      	movs	r0, #23
    281e:	e07a      	b.n	2916 <adc_init+0x1be>
    2820:	2204      	movs	r2, #4
    2822:	2310      	movs	r3, #16
    2824:	2102      	movs	r1, #2
    2826:	2070      	movs	r0, #112	; 0x70
    2828:	0109      	lsls	r1, r1, #4
    282a:	4001      	ands	r1, r0
    282c:	430a      	orrs	r2, r1
    282e:	732a      	strb	r2, [r5, #12]
    2830:	6831      	ldr	r1, [r6, #0]
    2832:	8c0a      	ldrh	r2, [r1, #32]
    2834:	2a00      	cmp	r2, #0
    2836:	d1fc      	bne.n	2832 <adc_init+0xda>
    2838:	7d61      	ldrb	r1, [r4, #21]
    283a:	293f      	cmp	r1, #63	; 0x3f
    283c:	d8ee      	bhi.n	281c <adc_init+0xc4>
    283e:	7be2      	ldrb	r2, [r4, #15]
    2840:	01d2      	lsls	r2, r2, #7
    2842:	430a      	orrs	r2, r1
    2844:	b2d2      	uxtb	r2, r2
    2846:	736a      	strb	r2, [r5, #13]
    2848:	6831      	ldr	r1, [r6, #0]
    284a:	8c0a      	ldrh	r2, [r1, #32]
    284c:	2a00      	cmp	r2, #0
    284e:	d1fc      	bne.n	284a <adc_init+0xf2>
    2850:	78a2      	ldrb	r2, [r4, #2]
    2852:	1d61      	adds	r1, r4, #5
    2854:	706a      	strb	r2, [r5, #1]
    2856:	7fca      	ldrb	r2, [r1, #31]
    2858:	7b20      	ldrb	r0, [r4, #12]
    285a:	00d2      	lsls	r2, r2, #3
    285c:	0080      	lsls	r0, r0, #2
    285e:	4310      	orrs	r0, r2
    2860:	7ae2      	ldrb	r2, [r4, #11]
    2862:	4302      	orrs	r2, r0
    2864:	7aa0      	ldrb	r0, [r4, #10]
    2866:	0040      	lsls	r0, r0, #1
    2868:	4302      	orrs	r2, r0
    286a:	431a      	orrs	r2, r3
    286c:	816a      	strh	r2, [r5, #10]
    286e:	6832      	ldr	r2, [r6, #0]
    2870:	8c10      	ldrh	r0, [r2, #32]
    2872:	2800      	cmp	r0, #0
    2874:	d1fc      	bne.n	2870 <adc_init+0x118>
    2876:	8b22      	ldrh	r2, [r4, #24]
    2878:	4694      	mov	ip, r2
    287a:	2a00      	cmp	r2, #0
    287c:	d006      	beq.n	288c <adc_init+0x134>
    287e:	2b10      	cmp	r3, #16
    2880:	d100      	bne.n	2884 <adc_init+0x12c>
    2882:	e09b      	b.n	29bc <adc_init+0x264>
    2884:	d857      	bhi.n	2936 <adc_init+0x1de>
    2886:	2b00      	cmp	r3, #0
    2888:	d100      	bne.n	288c <adc_init+0x134>
    288a:	e088      	b.n	299e <adc_init+0x246>
    288c:	4662      	mov	r2, ip
    288e:	896b      	ldrh	r3, [r5, #10]
    2890:	4313      	orrs	r3, r2
    2892:	816b      	strh	r3, [r5, #10]
    2894:	6832      	ldr	r2, [r6, #0]
    2896:	8c13      	ldrh	r3, [r2, #32]
    2898:	2b00      	cmp	r3, #0
    289a:	d1fc      	bne.n	2896 <adc_init+0x13e>
    289c:	8ba3      	ldrh	r3, [r4, #28]
    289e:	81eb      	strh	r3, [r5, #14]
    28a0:	6833      	ldr	r3, [r6, #0]
    28a2:	8c1a      	ldrh	r2, [r3, #32]
    28a4:	2a00      	cmp	r2, #0
    28a6:	d1fc      	bne.n	28a2 <adc_init+0x14a>
    28a8:	8c23      	ldrh	r3, [r4, #32]
    28aa:	822b      	strh	r3, [r5, #16]
    28ac:	6833      	ldr	r3, [r6, #0]
    28ae:	8c1a      	ldrh	r2, [r3, #32]
    28b0:	2a00      	cmp	r2, #0
    28b2:	d1fc      	bne.n	28ae <adc_init+0x156>
    28b4:	7923      	ldrb	r3, [r4, #4]
    28b6:	88e2      	ldrh	r2, [r4, #6]
    28b8:	4313      	orrs	r3, r2
    28ba:	812b      	strh	r3, [r5, #8]
    28bc:	6833      	ldr	r3, [r6, #0]
    28be:	8c1a      	ldrh	r2, [r3, #32]
    28c0:	2a00      	cmp	r2, #0
    28c2:	d1fc      	bne.n	28be <adc_init+0x166>
    28c4:	0023      	movs	r3, r4
    28c6:	332a      	adds	r3, #42	; 0x2a
    28c8:	781b      	ldrb	r3, [r3, #0]
    28ca:	70eb      	strb	r3, [r5, #3]
    28cc:	2307      	movs	r3, #7
    28ce:	712b      	strb	r3, [r5, #4]
    28d0:	7fcb      	ldrb	r3, [r1, #31]
    28d2:	2b00      	cmp	r3, #0
    28d4:	d014      	beq.n	2900 <adc_init+0x1a8>
    28d6:	8ce3      	ldrh	r3, [r4, #38]	; 0x26
    28d8:	4945      	ldr	r1, [pc, #276]	; (29f0 <adc_init+0x298>)
    28da:	428b      	cmp	r3, r1
    28dc:	d89e      	bhi.n	281c <adc_init+0xc4>
    28de:	826b      	strh	r3, [r5, #18]
    28e0:	6832      	ldr	r2, [r6, #0]
    28e2:	8c13      	ldrh	r3, [r2, #32]
    28e4:	2b00      	cmp	r3, #0
    28e6:	d1fc      	bne.n	28e2 <adc_init+0x18a>
    28e8:	2380      	movs	r3, #128	; 0x80
    28ea:	8d22      	ldrh	r2, [r4, #40]	; 0x28
    28ec:	011b      	lsls	r3, r3, #4
    28ee:	18d3      	adds	r3, r2, r3
    28f0:	b29b      	uxth	r3, r3
    28f2:	428b      	cmp	r3, r1
    28f4:	d892      	bhi.n	281c <adc_init+0xc4>
    28f6:	82aa      	strh	r2, [r5, #20]
    28f8:	6832      	ldr	r2, [r6, #0]
    28fa:	8c13      	ldrh	r3, [r2, #32]
    28fc:	2b00      	cmp	r3, #0
    28fe:	d1fc      	bne.n	28fa <adc_init+0x1a2>
    2900:	21e0      	movs	r1, #224	; 0xe0
    2902:	2000      	movs	r0, #0
    2904:	4b3b      	ldr	r3, [pc, #236]	; (29f4 <adc_init+0x29c>)
    2906:	00c9      	lsls	r1, r1, #3
    2908:	681b      	ldr	r3, [r3, #0]
    290a:	021a      	lsls	r2, r3, #8
    290c:	069b      	lsls	r3, r3, #26
    290e:	400a      	ands	r2, r1
    2910:	0f5b      	lsrs	r3, r3, #29
    2912:	4313      	orrs	r3, r2
    2914:	85ab      	strh	r3, [r5, #44]	; 0x2c
    2916:	bdfe      	pop	{r1, r2, r3, r4, r5, r6, r7, pc}
    2918:	7a61      	ldrb	r1, [r4, #9]
    291a:	7a22      	ldrb	r2, [r4, #8]
    291c:	2310      	movs	r3, #16
    291e:	e782      	b.n	2826 <adc_init+0xce>
    2920:	2206      	movs	r2, #6
    2922:	2310      	movs	r3, #16
    2924:	2101      	movs	r1, #1
    2926:	e77e      	b.n	2826 <adc_init+0xce>
    2928:	2208      	movs	r2, #8
    292a:	2100      	movs	r1, #0
    292c:	e77b      	b.n	2826 <adc_init+0xce>
    292e:	2200      	movs	r2, #0
    2930:	e7fb      	b.n	292a <adc_init+0x1d2>
    2932:	2202      	movs	r2, #2
    2934:	e7f5      	b.n	2922 <adc_init+0x1ca>
    2936:	2b20      	cmp	r3, #32
    2938:	d017      	beq.n	296a <adc_init+0x212>
    293a:	2b30      	cmp	r3, #48	; 0x30
    293c:	d1a6      	bne.n	288c <adc_init+0x134>
    293e:	7ae3      	ldrb	r3, [r4, #11]
    2940:	69e0      	ldr	r0, [r4, #28]
    2942:	2b00      	cmp	r3, #0
    2944:	d009      	beq.n	295a <adc_init+0x202>
    2946:	0003      	movs	r3, r0
    2948:	3380      	adds	r3, #128	; 0x80
    294a:	2bff      	cmp	r3, #255	; 0xff
    294c:	d900      	bls.n	2950 <adc_init+0x1f8>
    294e:	e765      	b.n	281c <adc_init+0xc4>
    2950:	6a23      	ldr	r3, [r4, #32]
    2952:	3380      	adds	r3, #128	; 0x80
    2954:	2bff      	cmp	r3, #255	; 0xff
    2956:	d900      	bls.n	295a <adc_init+0x202>
    2958:	e760      	b.n	281c <adc_init+0xc4>
    295a:	28ff      	cmp	r0, #255	; 0xff
    295c:	dd00      	ble.n	2960 <adc_init+0x208>
    295e:	e75d      	b.n	281c <adc_init+0xc4>
    2960:	6a23      	ldr	r3, [r4, #32]
    2962:	2bff      	cmp	r3, #255	; 0xff
    2964:	dd00      	ble.n	2968 <adc_init+0x210>
    2966:	e759      	b.n	281c <adc_init+0xc4>
    2968:	e790      	b.n	288c <adc_init+0x134>
    296a:	7ae0      	ldrb	r0, [r4, #11]
    296c:	69e7      	ldr	r7, [r4, #28]
    296e:	4b22      	ldr	r3, [pc, #136]	; (29f8 <adc_init+0x2a0>)
    2970:	2800      	cmp	r0, #0
    2972:	d00c      	beq.n	298e <adc_init+0x236>
    2974:	2080      	movs	r0, #128	; 0x80
    2976:	0080      	lsls	r0, r0, #2
    2978:	1838      	adds	r0, r7, r0
    297a:	4298      	cmp	r0, r3
    297c:	d900      	bls.n	2980 <adc_init+0x228>
    297e:	e74d      	b.n	281c <adc_init+0xc4>
    2980:	2280      	movs	r2, #128	; 0x80
    2982:	6a20      	ldr	r0, [r4, #32]
    2984:	0092      	lsls	r2, r2, #2
    2986:	1810      	adds	r0, r2, r0
    2988:	4298      	cmp	r0, r3
    298a:	d900      	bls.n	298e <adc_init+0x236>
    298c:	e746      	b.n	281c <adc_init+0xc4>
    298e:	429f      	cmp	r7, r3
    2990:	dd00      	ble.n	2994 <adc_init+0x23c>
    2992:	e743      	b.n	281c <adc_init+0xc4>
    2994:	6a22      	ldr	r2, [r4, #32]
    2996:	429a      	cmp	r2, r3
    2998:	dd00      	ble.n	299c <adc_init+0x244>
    299a:	e73f      	b.n	281c <adc_init+0xc4>
    299c:	e776      	b.n	288c <adc_init+0x134>
    299e:	7ae0      	ldrb	r0, [r4, #11]
    29a0:	69e7      	ldr	r7, [r4, #28]
    29a2:	4b13      	ldr	r3, [pc, #76]	; (29f0 <adc_init+0x298>)
    29a4:	2800      	cmp	r0, #0
    29a6:	d0f2      	beq.n	298e <adc_init+0x236>
    29a8:	2280      	movs	r2, #128	; 0x80
    29aa:	0112      	lsls	r2, r2, #4
    29ac:	18b8      	adds	r0, r7, r2
    29ae:	4298      	cmp	r0, r3
    29b0:	d900      	bls.n	29b4 <adc_init+0x25c>
    29b2:	e733      	b.n	281c <adc_init+0xc4>
    29b4:	2080      	movs	r0, #128	; 0x80
    29b6:	6a22      	ldr	r2, [r4, #32]
    29b8:	0100      	lsls	r0, r0, #4
    29ba:	e7e4      	b.n	2986 <adc_init+0x22e>
    29bc:	7ae0      	ldrb	r0, [r4, #11]
    29be:	69e7      	ldr	r7, [r4, #28]
    29c0:	4b0e      	ldr	r3, [pc, #56]	; (29fc <adc_init+0x2a4>)
    29c2:	2800      	cmp	r0, #0
    29c4:	d0e3      	beq.n	298e <adc_init+0x236>
    29c6:	2280      	movs	r2, #128	; 0x80
    29c8:	0212      	lsls	r2, r2, #8
    29ca:	18b8      	adds	r0, r7, r2
    29cc:	4298      	cmp	r0, r3
    29ce:	d900      	bls.n	29d2 <adc_init+0x27a>
    29d0:	e724      	b.n	281c <adc_init+0xc4>
    29d2:	2080      	movs	r0, #128	; 0x80
    29d4:	6a22      	ldr	r2, [r4, #32]
    29d6:	0200      	lsls	r0, r0, #8
    29d8:	e7d5      	b.n	2986 <adc_init+0x22e>
    29da:	46c0      	nop			; (mov r8, r8)
    29dc:	40000400 	.word	0x40000400
    29e0:	40001400 	.word	0x40001400
    29e4:	00004fd9 	.word	0x00004fd9
    29e8:	00004f79 	.word	0x00004f79
    29ec:	000026d9 	.word	0x000026d9
    29f0:	00000fff 	.word	0x00000fff
    29f4:	00806020 	.word	0x00806020
    29f8:	000003ff 	.word	0x000003ff
    29fc:	0000ffff 	.word	0x0000ffff

00002a00 <extint_is_syncing>:
    2a00:	2301      	movs	r3, #1
    2a02:	4a04      	ldr	r2, [pc, #16]	; (2a14 <extint_is_syncing+0x14>)
    2a04:	0018      	movs	r0, r3
    2a06:	6851      	ldr	r1, [r2, #4]
    2a08:	0789      	lsls	r1, r1, #30
    2a0a:	d400      	bmi.n	2a0e <extint_is_syncing+0xe>
    2a0c:	6850      	ldr	r0, [r2, #4]
    2a0e:	4018      	ands	r0, r3
    2a10:	4770      	bx	lr
    2a12:	46c0      	nop			; (mov r8, r8)
    2a14:	40002400 	.word	0x40002400

00002a18 <_extint_enable>:
    2a18:	2302      	movs	r3, #2
    2a1a:	b510      	push	{r4, lr}
    2a1c:	4a04      	ldr	r2, [pc, #16]	; (2a30 <_extint_enable+0x18>)
    2a1e:	7811      	ldrb	r1, [r2, #0]
    2a20:	430b      	orrs	r3, r1
    2a22:	7013      	strb	r3, [r2, #0]
    2a24:	4b03      	ldr	r3, [pc, #12]	; (2a34 <_extint_enable+0x1c>)
    2a26:	4798      	blx	r3
    2a28:	2800      	cmp	r0, #0
    2a2a:	d1fb      	bne.n	2a24 <_extint_enable+0xc>
    2a2c:	bd10      	pop	{r4, pc}
    2a2e:	46c0      	nop			; (mov r8, r8)
    2a30:	40002400 	.word	0x40002400
    2a34:	00002a01 	.word	0x00002a01

00002a38 <_system_extint_init>:
    2a38:	2380      	movs	r3, #128	; 0x80
    2a3a:	b513      	push	{r0, r1, r4, lr}
    2a3c:	4a13      	ldr	r2, [pc, #76]	; (2a8c <_system_extint_init+0x54>)
    2a3e:	009b      	lsls	r3, r3, #2
    2a40:	6951      	ldr	r1, [r2, #20]
    2a42:	2003      	movs	r0, #3
    2a44:	430b      	orrs	r3, r1
    2a46:	6153      	str	r3, [r2, #20]
    2a48:	2300      	movs	r3, #0
    2a4a:	a901      	add	r1, sp, #4
    2a4c:	700b      	strb	r3, [r1, #0]
    2a4e:	4b10      	ldr	r3, [pc, #64]	; (2a90 <_system_extint_init+0x58>)
    2a50:	4798      	blx	r3
    2a52:	2003      	movs	r0, #3
    2a54:	4b0f      	ldr	r3, [pc, #60]	; (2a94 <_system_extint_init+0x5c>)
    2a56:	4798      	blx	r3
    2a58:	2201      	movs	r2, #1
    2a5a:	4c0f      	ldr	r4, [pc, #60]	; (2a98 <_system_extint_init+0x60>)
    2a5c:	7821      	ldrb	r1, [r4, #0]
    2a5e:	430a      	orrs	r2, r1
    2a60:	7022      	strb	r2, [r4, #0]
    2a62:	4b0e      	ldr	r3, [pc, #56]	; (2a9c <_system_extint_init+0x64>)
    2a64:	4798      	blx	r3
    2a66:	2800      	cmp	r0, #0
    2a68:	d1fb      	bne.n	2a62 <_system_extint_init+0x2a>
    2a6a:	2210      	movs	r2, #16
    2a6c:	7823      	ldrb	r3, [r4, #0]
    2a6e:	4393      	bics	r3, r2
    2a70:	0002      	movs	r2, r0
    2a72:	7023      	strb	r3, [r4, #0]
    2a74:	4b0a      	ldr	r3, [pc, #40]	; (2aa0 <_system_extint_init+0x68>)
    2a76:	501a      	str	r2, [r3, r0]
    2a78:	3004      	adds	r0, #4
    2a7a:	2840      	cmp	r0, #64	; 0x40
    2a7c:	d1fb      	bne.n	2a76 <_system_extint_init+0x3e>
    2a7e:	2208      	movs	r2, #8
    2a80:	4b08      	ldr	r3, [pc, #32]	; (2aa4 <_system_extint_init+0x6c>)
    2a82:	601a      	str	r2, [r3, #0]
    2a84:	4b08      	ldr	r3, [pc, #32]	; (2aa8 <_system_extint_init+0x70>)
    2a86:	4798      	blx	r3
    2a88:	bd13      	pop	{r0, r1, r4, pc}
    2a8a:	46c0      	nop			; (mov r8, r8)
    2a8c:	40000400 	.word	0x40000400
    2a90:	00004fd9 	.word	0x00004fd9
    2a94:	00004f79 	.word	0x00004f79
    2a98:	40002400 	.word	0x40002400
    2a9c:	00002a01 	.word	0x00002a01
    2aa0:	20000c84 	.word	0x20000c84
    2aa4:	e000e100 	.word	0xe000e100
    2aa8:	00002a19 	.word	0x00002a19

00002aac <_i2c_master_wait_for_sync>:
    2aac:	2307      	movs	r3, #7
    2aae:	6801      	ldr	r1, [r0, #0]
    2ab0:	69ca      	ldr	r2, [r1, #28]
    2ab2:	421a      	tst	r2, r3
    2ab4:	d1fc      	bne.n	2ab0 <_i2c_master_wait_for_sync+0x4>
    2ab6:	4770      	bx	lr

00002ab8 <i2c_master_init>:
    2ab8:	b5f0      	push	{r4, r5, r6, r7, lr}
    2aba:	0006      	movs	r6, r0
    2abc:	b08d      	sub	sp, #52	; 0x34
    2abe:	6031      	str	r1, [r6, #0]
    2ac0:	0008      	movs	r0, r1
    2ac2:	4b97      	ldr	r3, [pc, #604]	; (2d20 <i2c_master_init+0x268>)
    2ac4:	0017      	movs	r7, r2
    2ac6:	000d      	movs	r5, r1
    2ac8:	4798      	blx	r3
    2aca:	4a96      	ldr	r2, [pc, #600]	; (2d24 <i2c_master_init+0x26c>)
    2acc:	2805      	cmp	r0, #5
    2ace:	d100      	bne.n	2ad2 <i2c_master_init+0x1a>
    2ad0:	e115      	b.n	2cfe <i2c_master_init+0x246>
    2ad2:	2301      	movs	r3, #1
    2ad4:	4083      	lsls	r3, r0
    2ad6:	0004      	movs	r4, r0
    2ad8:	69d1      	ldr	r1, [r2, #28]
    2ada:	3412      	adds	r4, #18
    2adc:	430b      	orrs	r3, r1
    2ade:	61d3      	str	r3, [r2, #28]
    2ae0:	7b3b      	ldrb	r3, [r7, #12]
    2ae2:	aa0a      	add	r2, sp, #40	; 0x28
    2ae4:	b2e4      	uxtb	r4, r4
    2ae6:	7013      	strb	r3, [r2, #0]
    2ae8:	0011      	movs	r1, r2
    2aea:	0020      	movs	r0, r4
    2aec:	4b8e      	ldr	r3, [pc, #568]	; (2d28 <i2c_master_init+0x270>)
    2aee:	4798      	blx	r3
    2af0:	0020      	movs	r0, r4
    2af2:	4b8e      	ldr	r3, [pc, #568]	; (2d2c <i2c_master_init+0x274>)
    2af4:	4798      	blx	r3
    2af6:	4b8e      	ldr	r3, [pc, #568]	; (2d30 <i2c_master_init+0x278>)
    2af8:	7b38      	ldrb	r0, [r7, #12]
    2afa:	2100      	movs	r1, #0
    2afc:	4798      	blx	r3
    2afe:	682b      	ldr	r3, [r5, #0]
    2b00:	201c      	movs	r0, #28
    2b02:	079b      	lsls	r3, r3, #30
    2b04:	d500      	bpl.n	2b08 <i2c_master_init+0x50>
    2b06:	e0f8      	b.n	2cfa <i2c_master_init+0x242>
    2b08:	2301      	movs	r3, #1
    2b0a:	682c      	ldr	r4, [r5, #0]
    2b0c:	3817      	subs	r0, #23
    2b0e:	401c      	ands	r4, r3
    2b10:	d000      	beq.n	2b14 <i2c_master_init+0x5c>
    2b12:	e0f2      	b.n	2cfa <i2c_master_init+0x242>
    2b14:	3313      	adds	r3, #19
    2b16:	602b      	str	r3, [r5, #0]
    2b18:	6833      	ldr	r3, [r6, #0]
    2b1a:	ad0b      	add	r5, sp, #44	; 0x2c
    2b1c:	9301      	str	r3, [sp, #4]
    2b1e:	0018      	movs	r0, r3
    2b20:	4b7f      	ldr	r3, [pc, #508]	; (2d20 <i2c_master_init+0x268>)
    2b22:	4798      	blx	r3
    2b24:	2380      	movs	r3, #128	; 0x80
    2b26:	9002      	str	r0, [sp, #8]
    2b28:	69f8      	ldr	r0, [r7, #28]
    2b2a:	702b      	strb	r3, [r5, #0]
    2b2c:	3b7f      	subs	r3, #127	; 0x7f
    2b2e:	706c      	strb	r4, [r5, #1]
    2b30:	70ec      	strb	r4, [r5, #3]
    2b32:	70ab      	strb	r3, [r5, #2]
    2b34:	6a3c      	ldr	r4, [r7, #32]
    2b36:	2800      	cmp	r0, #0
    2b38:	d103      	bne.n	2b42 <i2c_master_init+0x8a>
    2b3a:	0001      	movs	r1, r0
    2b3c:	4b7d      	ldr	r3, [pc, #500]	; (2d34 <i2c_master_init+0x27c>)
    2b3e:	9801      	ldr	r0, [sp, #4]
    2b40:	4798      	blx	r3
    2b42:	2302      	movs	r3, #2
    2b44:	7028      	strb	r0, [r5, #0]
    2b46:	0c00      	lsrs	r0, r0, #16
    2b48:	706b      	strb	r3, [r5, #1]
    2b4a:	b2c0      	uxtb	r0, r0
    2b4c:	0029      	movs	r1, r5
    2b4e:	4b7a      	ldr	r3, [pc, #488]	; (2d38 <i2c_master_init+0x280>)
    2b50:	4798      	blx	r3
    2b52:	2c00      	cmp	r4, #0
    2b54:	d104      	bne.n	2b60 <i2c_master_init+0xa8>
    2b56:	2101      	movs	r1, #1
    2b58:	9801      	ldr	r0, [sp, #4]
    2b5a:	4b76      	ldr	r3, [pc, #472]	; (2d34 <i2c_master_init+0x27c>)
    2b5c:	4798      	blx	r3
    2b5e:	0004      	movs	r4, r0
    2b60:	2302      	movs	r3, #2
    2b62:	702c      	strb	r4, [r5, #0]
    2b64:	0c24      	lsrs	r4, r4, #16
    2b66:	706b      	strb	r3, [r5, #1]
    2b68:	b2e0      	uxtb	r0, r4
    2b6a:	4b73      	ldr	r3, [pc, #460]	; (2d38 <i2c_master_init+0x280>)
    2b6c:	0029      	movs	r1, r5
    2b6e:	4798      	blx	r3
    2b70:	8abb      	ldrh	r3, [r7, #20]
    2b72:	80f3      	strh	r3, [r6, #6]
    2b74:	8afb      	ldrh	r3, [r7, #22]
    2b76:	8133      	strh	r3, [r6, #8]
    2b78:	7e3a      	ldrb	r2, [r7, #24]
    2b7a:	2380      	movs	r3, #128	; 0x80
    2b7c:	2a00      	cmp	r2, #0
    2b7e:	d106      	bne.n	2b8e <i2c_master_init+0xd6>
    2b80:	4b6e      	ldr	r3, [pc, #440]	; (2d3c <i2c_master_init+0x284>)
    2b82:	3202      	adds	r2, #2
    2b84:	789b      	ldrb	r3, [r3, #2]
    2b86:	4013      	ands	r3, r2
    2b88:	1e5e      	subs	r6, r3, #1
    2b8a:	41b3      	sbcs	r3, r6
    2b8c:	01db      	lsls	r3, r3, #7
    2b8e:	68ba      	ldr	r2, [r7, #8]
    2b90:	693e      	ldr	r6, [r7, #16]
    2b92:	4316      	orrs	r6, r2
    2b94:	431e      	orrs	r6, r3
    2b96:	1d7b      	adds	r3, r7, #5
    2b98:	7fdb      	ldrb	r3, [r3, #31]
    2b9a:	2b00      	cmp	r3, #0
    2b9c:	d002      	beq.n	2ba4 <i2c_master_init+0xec>
    2b9e:	2380      	movs	r3, #128	; 0x80
    2ba0:	05db      	lsls	r3, r3, #23
    2ba2:	431e      	orrs	r6, r3
    2ba4:	6abb      	ldr	r3, [r7, #40]	; 0x28
    2ba6:	431e      	orrs	r6, r3
    2ba8:	003b      	movs	r3, r7
    2baa:	332c      	adds	r3, #44	; 0x2c
    2bac:	781b      	ldrb	r3, [r3, #0]
    2bae:	2b00      	cmp	r3, #0
    2bb0:	d103      	bne.n	2bba <i2c_master_init+0x102>
    2bb2:	2380      	movs	r3, #128	; 0x80
    2bb4:	049b      	lsls	r3, r3, #18
    2bb6:	429a      	cmp	r2, r3
    2bb8:	d102      	bne.n	2bc0 <i2c_master_init+0x108>
    2bba:	2380      	movs	r3, #128	; 0x80
    2bbc:	051b      	lsls	r3, r3, #20
    2bbe:	431e      	orrs	r6, r3
    2bc0:	003b      	movs	r3, r7
    2bc2:	332d      	adds	r3, #45	; 0x2d
    2bc4:	781b      	ldrb	r3, [r3, #0]
    2bc6:	2b00      	cmp	r3, #0
    2bc8:	d002      	beq.n	2bd0 <i2c_master_init+0x118>
    2bca:	2380      	movs	r3, #128	; 0x80
    2bcc:	041b      	lsls	r3, r3, #16
    2bce:	431e      	orrs	r6, r3
    2bd0:	003b      	movs	r3, r7
    2bd2:	332e      	adds	r3, #46	; 0x2e
    2bd4:	781b      	ldrb	r3, [r3, #0]
    2bd6:	2b00      	cmp	r3, #0
    2bd8:	d002      	beq.n	2be0 <i2c_master_init+0x128>
    2bda:	2380      	movs	r3, #128	; 0x80
    2bdc:	03db      	lsls	r3, r3, #15
    2bde:	431e      	orrs	r6, r3
    2be0:	9b01      	ldr	r3, [sp, #4]
    2be2:	9a01      	ldr	r2, [sp, #4]
    2be4:	681b      	ldr	r3, [r3, #0]
    2be6:	431e      	orrs	r6, r3
    2be8:	9b01      	ldr	r3, [sp, #4]
    2bea:	601e      	str	r6, [r3, #0]
    2bec:	2380      	movs	r3, #128	; 0x80
    2bee:	005b      	lsls	r3, r3, #1
    2bf0:	6053      	str	r3, [r2, #4]
    2bf2:	9b02      	ldr	r3, [sp, #8]
    2bf4:	26fa      	movs	r6, #250	; 0xfa
    2bf6:	3312      	adds	r3, #18
    2bf8:	b2d8      	uxtb	r0, r3
    2bfa:	4b51      	ldr	r3, [pc, #324]	; (2d40 <i2c_master_init+0x288>)
    2bfc:	4798      	blx	r3
    2bfe:	683b      	ldr	r3, [r7, #0]
    2c00:	00b6      	lsls	r6, r6, #2
    2c02:	435e      	muls	r6, r3
    2c04:	687b      	ldr	r3, [r7, #4]
    2c06:	9006      	str	r0, [sp, #24]
    2c08:	9307      	str	r3, [sp, #28]
    2c0a:	4b4e      	ldr	r3, [pc, #312]	; (2d44 <i2c_master_init+0x28c>)
    2c0c:	4798      	blx	r3
    2c0e:	4b4d      	ldr	r3, [pc, #308]	; (2d44 <i2c_master_init+0x28c>)
    2c10:	9002      	str	r0, [sp, #8]
    2c12:	9103      	str	r1, [sp, #12]
    2c14:	0070      	lsls	r0, r6, #1
    2c16:	4798      	blx	r3
    2c18:	9004      	str	r0, [sp, #16]
    2c1a:	9105      	str	r1, [sp, #20]
    2c1c:	4b49      	ldr	r3, [pc, #292]	; (2d44 <i2c_master_init+0x28c>)
    2c1e:	8e38      	ldrh	r0, [r7, #48]	; 0x30
    2c20:	4798      	blx	r3
    2c22:	4c49      	ldr	r4, [pc, #292]	; (2d48 <i2c_master_init+0x290>)
    2c24:	9008      	str	r0, [sp, #32]
    2c26:	9109      	str	r1, [sp, #36]	; 0x24
    2c28:	9802      	ldr	r0, [sp, #8]
    2c2a:	9903      	ldr	r1, [sp, #12]
    2c2c:	4a47      	ldr	r2, [pc, #284]	; (2d4c <i2c_master_init+0x294>)
    2c2e:	4b48      	ldr	r3, [pc, #288]	; (2d50 <i2c_master_init+0x298>)
    2c30:	47a0      	blx	r4
    2c32:	0002      	movs	r2, r0
    2c34:	000b      	movs	r3, r1
    2c36:	9808      	ldr	r0, [sp, #32]
    2c38:	9909      	ldr	r1, [sp, #36]	; 0x24
    2c3a:	47a0      	blx	r4
    2c3c:	2200      	movs	r2, #0
    2c3e:	4c45      	ldr	r4, [pc, #276]	; (2d54 <i2c_master_init+0x29c>)
    2c40:	4b45      	ldr	r3, [pc, #276]	; (2d58 <i2c_master_init+0x2a0>)
    2c42:	47a0      	blx	r4
    2c44:	4b3f      	ldr	r3, [pc, #252]	; (2d44 <i2c_master_init+0x28c>)
    2c46:	0004      	movs	r4, r0
    2c48:	0030      	movs	r0, r6
    2c4a:	000d      	movs	r5, r1
    2c4c:	4798      	blx	r3
    2c4e:	0002      	movs	r2, r0
    2c50:	000b      	movs	r3, r1
    2c52:	0020      	movs	r0, r4
    2c54:	0029      	movs	r1, r5
    2c56:	4c3c      	ldr	r4, [pc, #240]	; (2d48 <i2c_master_init+0x290>)
    2c58:	47a0      	blx	r4
    2c5a:	4d40      	ldr	r5, [pc, #256]	; (2d5c <i2c_master_init+0x2a4>)
    2c5c:	0002      	movs	r2, r0
    2c5e:	000b      	movs	r3, r1
    2c60:	9802      	ldr	r0, [sp, #8]
    2c62:	9903      	ldr	r1, [sp, #12]
    2c64:	47a8      	blx	r5
    2c66:	9a04      	ldr	r2, [sp, #16]
    2c68:	9b05      	ldr	r3, [sp, #20]
    2c6a:	4c3a      	ldr	r4, [pc, #232]	; (2d54 <i2c_master_init+0x29c>)
    2c6c:	47a0      	blx	r4
    2c6e:	2200      	movs	r2, #0
    2c70:	4b3b      	ldr	r3, [pc, #236]	; (2d60 <i2c_master_init+0x2a8>)
    2c72:	47a8      	blx	r5
    2c74:	9a04      	ldr	r2, [sp, #16]
    2c76:	9b05      	ldr	r3, [sp, #20]
    2c78:	4c3a      	ldr	r4, [pc, #232]	; (2d64 <i2c_master_init+0x2ac>)
    2c7a:	47a0      	blx	r4
    2c7c:	4b3a      	ldr	r3, [pc, #232]	; (2d68 <i2c_master_init+0x2b0>)
    2c7e:	4798      	blx	r3
    2c80:	2380      	movs	r3, #128	; 0x80
    2c82:	9004      	str	r0, [sp, #16]
    2c84:	68ba      	ldr	r2, [r7, #8]
    2c86:	049b      	lsls	r3, r3, #18
    2c88:	429a      	cmp	r2, r3
    2c8a:	d145      	bne.n	2d18 <i2c_master_init+0x260>
    2c8c:	23fa      	movs	r3, #250	; 0xfa
    2c8e:	9c07      	ldr	r4, [sp, #28]
    2c90:	009b      	lsls	r3, r3, #2
    2c92:	435c      	muls	r4, r3
    2c94:	9a02      	ldr	r2, [sp, #8]
    2c96:	9b03      	ldr	r3, [sp, #12]
    2c98:	4e2e      	ldr	r6, [pc, #184]	; (2d54 <i2c_master_init+0x29c>)
    2c9a:	0010      	movs	r0, r2
    2c9c:	0019      	movs	r1, r3
    2c9e:	47b0      	blx	r6
    2ca0:	4b28      	ldr	r3, [pc, #160]	; (2d44 <i2c_master_init+0x28c>)
    2ca2:	9002      	str	r0, [sp, #8]
    2ca4:	9103      	str	r1, [sp, #12]
    2ca6:	0020      	movs	r0, r4
    2ca8:	4798      	blx	r3
    2caa:	2200      	movs	r2, #0
    2cac:	4b2f      	ldr	r3, [pc, #188]	; (2d6c <i2c_master_init+0x2b4>)
    2cae:	4e26      	ldr	r6, [pc, #152]	; (2d48 <i2c_master_init+0x290>)
    2cb0:	47b0      	blx	r6
    2cb2:	4e2c      	ldr	r6, [pc, #176]	; (2d64 <i2c_master_init+0x2ac>)
    2cb4:	0002      	movs	r2, r0
    2cb6:	000b      	movs	r3, r1
    2cb8:	9802      	ldr	r0, [sp, #8]
    2cba:	9903      	ldr	r1, [sp, #12]
    2cbc:	47b0      	blx	r6
    2cbe:	2200      	movs	r2, #0
    2cc0:	4b27      	ldr	r3, [pc, #156]	; (2d60 <i2c_master_init+0x2a8>)
    2cc2:	47a8      	blx	r5
    2cc4:	4b28      	ldr	r3, [pc, #160]	; (2d68 <i2c_master_init+0x2b0>)
    2cc6:	4798      	blx	r3
    2cc8:	4b29      	ldr	r3, [pc, #164]	; (2d70 <i2c_master_init+0x2b8>)
    2cca:	1e06      	subs	r6, r0, #0
    2ccc:	d01d      	beq.n	2d0a <i2c_master_init+0x252>
    2cce:	0021      	movs	r1, r4
    2cd0:	9806      	ldr	r0, [sp, #24]
    2cd2:	4798      	blx	r3
    2cd4:	3802      	subs	r0, #2
    2cd6:	1b83      	subs	r3, r0, r6
    2cd8:	9a04      	ldr	r2, [sp, #16]
    2cda:	2040      	movs	r0, #64	; 0x40
    2cdc:	2aff      	cmp	r2, #255	; 0xff
    2cde:	d80c      	bhi.n	2cfa <i2c_master_init+0x242>
    2ce0:	2bff      	cmp	r3, #255	; 0xff
    2ce2:	d80a      	bhi.n	2cfa <i2c_master_init+0x242>
    2ce4:	20ff      	movs	r0, #255	; 0xff
    2ce6:	0015      	movs	r5, r2
    2ce8:	0400      	lsls	r0, r0, #16
    2cea:	041b      	lsls	r3, r3, #16
    2cec:	4003      	ands	r3, r0
    2cee:	2000      	movs	r0, #0
    2cf0:	0636      	lsls	r6, r6, #24
    2cf2:	4335      	orrs	r5, r6
    2cf4:	431d      	orrs	r5, r3
    2cf6:	9b01      	ldr	r3, [sp, #4]
    2cf8:	60dd      	str	r5, [r3, #12]
    2cfa:	b00d      	add	sp, #52	; 0x34
    2cfc:	bdf0      	pop	{r4, r5, r6, r7, pc}
    2cfe:	2302      	movs	r3, #2
    2d00:	6a11      	ldr	r1, [r2, #32]
    2d02:	2418      	movs	r4, #24
    2d04:	430b      	orrs	r3, r1
    2d06:	6213      	str	r3, [r2, #32]
    2d08:	e6ea      	b.n	2ae0 <i2c_master_init+0x28>
    2d0a:	0061      	lsls	r1, r4, #1
    2d0c:	9a06      	ldr	r2, [sp, #24]
    2d0e:	1e48      	subs	r0, r1, #1
    2d10:	1880      	adds	r0, r0, r2
    2d12:	4798      	blx	r3
    2d14:	1e43      	subs	r3, r0, #1
    2d16:	e7df      	b.n	2cd8 <i2c_master_init+0x220>
    2d18:	2600      	movs	r6, #0
    2d1a:	0033      	movs	r3, r6
    2d1c:	e7dc      	b.n	2cd8 <i2c_master_init+0x220>
    2d1e:	46c0      	nop			; (mov r8, r8)
    2d20:	00003ed9 	.word	0x00003ed9
    2d24:	40000400 	.word	0x40000400
    2d28:	00004fd9 	.word	0x00004fd9
    2d2c:	00004f79 	.word	0x00004f79
    2d30:	00003d51 	.word	0x00003d51
    2d34:	00003d95 	.word	0x00003d95
    2d38:	000050b1 	.word	0x000050b1
    2d3c:	41002000 	.word	0x41002000
    2d40:	00004ffd 	.word	0x00004ffd
    2d44:	00007665 	.word	0x00007665
    2d48:	00006a0d 	.word	0x00006a0d
    2d4c:	e826d695 	.word	0xe826d695
    2d50:	3e112e0b 	.word	0x3e112e0b
    2d54:	00005b85 	.word	0x00005b85
    2d58:	40240000 	.word	0x40240000
    2d5c:	00006f0d 	.word	0x00006f0d
    2d60:	3ff00000 	.word	0x3ff00000
    2d64:	000061a5 	.word	0x000061a5
    2d68:	00007579 	.word	0x00007579
    2d6c:	40080000 	.word	0x40080000
    2d70:	000058f9 	.word	0x000058f9

00002d74 <_i2c_master_address_response>:
    2d74:	2202      	movs	r2, #2
    2d76:	6803      	ldr	r3, [r0, #0]
    2d78:	7e19      	ldrb	r1, [r3, #24]
    2d7a:	4211      	tst	r1, r2
    2d7c:	d006      	beq.n	2d8c <_i2c_master_address_response+0x18>
    2d7e:	761a      	strb	r2, [r3, #24]
    2d80:	8b5b      	ldrh	r3, [r3, #26]
    2d82:	2041      	movs	r0, #65	; 0x41
    2d84:	4213      	tst	r3, r2
    2d86:	d10a      	bne.n	2d9e <_i2c_master_address_response+0x2a>
    2d88:	2000      	movs	r0, #0
    2d8a:	e008      	b.n	2d9e <_i2c_master_address_response+0x2a>
    2d8c:	8b5a      	ldrh	r2, [r3, #26]
    2d8e:	0752      	lsls	r2, r2, #29
    2d90:	d5fa      	bpl.n	2d88 <_i2c_master_address_response+0x14>
    2d92:	22c0      	movs	r2, #192	; 0xc0
    2d94:	2018      	movs	r0, #24
    2d96:	6859      	ldr	r1, [r3, #4]
    2d98:	0292      	lsls	r2, r2, #10
    2d9a:	430a      	orrs	r2, r1
    2d9c:	605a      	str	r2, [r3, #4]
    2d9e:	4770      	bx	lr

00002da0 <_i2c_master_wait_for_bus>:
    2da0:	b570      	push	{r4, r5, r6, lr}
    2da2:	2200      	movs	r2, #0
    2da4:	2601      	movs	r6, #1
    2da6:	2402      	movs	r4, #2
    2da8:	6801      	ldr	r1, [r0, #0]
    2daa:	7e0b      	ldrb	r3, [r1, #24]
    2dac:	4033      	ands	r3, r6
    2dae:	d102      	bne.n	2db6 <_i2c_master_wait_for_bus+0x16>
    2db0:	7e0d      	ldrb	r5, [r1, #24]
    2db2:	4225      	tst	r5, r4
    2db4:	d001      	beq.n	2dba <_i2c_master_wait_for_bus+0x1a>
    2db6:	2000      	movs	r0, #0
    2db8:	e005      	b.n	2dc6 <_i2c_master_wait_for_bus+0x26>
    2dba:	3201      	adds	r2, #1
    2dbc:	8903      	ldrh	r3, [r0, #8]
    2dbe:	b292      	uxth	r2, r2
    2dc0:	4293      	cmp	r3, r2
    2dc2:	d8f2      	bhi.n	2daa <_i2c_master_wait_for_bus+0xa>
    2dc4:	2012      	movs	r0, #18
    2dc6:	bd70      	pop	{r4, r5, r6, pc}

00002dc8 <_i2c_master_send_hs_master_code>:
    2dc8:	2380      	movs	r3, #128	; 0x80
    2dca:	b510      	push	{r4, lr}
    2dcc:	6804      	ldr	r4, [r0, #0]
    2dce:	02db      	lsls	r3, r3, #11
    2dd0:	6862      	ldr	r2, [r4, #4]
    2dd2:	4313      	orrs	r3, r2
    2dd4:	6063      	str	r3, [r4, #4]
    2dd6:	6261      	str	r1, [r4, #36]	; 0x24
    2dd8:	4b02      	ldr	r3, [pc, #8]	; (2de4 <_i2c_master_send_hs_master_code+0x1c>)
    2dda:	4798      	blx	r3
    2ddc:	2301      	movs	r3, #1
    2dde:	7623      	strb	r3, [r4, #24]
    2de0:	bd10      	pop	{r4, pc}
    2de2:	46c0      	nop			; (mov r8, r8)
    2de4:	00002da1 	.word	0x00002da1

00002de8 <_i2c_master_read_packet>:
    2de8:	b5f0      	push	{r4, r5, r6, r7, lr}
    2dea:	6804      	ldr	r4, [r0, #0]
    2dec:	b085      	sub	sp, #20
    2dee:	6823      	ldr	r3, [r4, #0]
    2df0:	9001      	str	r0, [sp, #4]
    2df2:	011b      	lsls	r3, r3, #4
    2df4:	0fdb      	lsrs	r3, r3, #31
    2df6:	884d      	ldrh	r5, [r1, #2]
    2df8:	9303      	str	r3, [sp, #12]
    2dfa:	7a4b      	ldrb	r3, [r1, #9]
    2dfc:	000e      	movs	r6, r1
    2dfe:	2b00      	cmp	r3, #0
    2e00:	d002      	beq.n	2e08 <_i2c_master_read_packet+0x20>
    2e02:	7a89      	ldrb	r1, [r1, #10]
    2e04:	4b47      	ldr	r3, [pc, #284]	; (2f24 <_i2c_master_read_packet+0x13c>)
    2e06:	4798      	blx	r3
    2e08:	6863      	ldr	r3, [r4, #4]
    2e0a:	4f47      	ldr	r7, [pc, #284]	; (2f28 <_i2c_master_read_packet+0x140>)
    2e0c:	403b      	ands	r3, r7
    2e0e:	6063      	str	r3, [r4, #4]
    2e10:	7a72      	ldrb	r2, [r6, #9]
    2e12:	8833      	ldrh	r3, [r6, #0]
    2e14:	7a31      	ldrb	r1, [r6, #8]
    2e16:	0392      	lsls	r2, r2, #14
    2e18:	005b      	lsls	r3, r3, #1
    2e1a:	4313      	orrs	r3, r2
    2e1c:	2201      	movs	r2, #1
    2e1e:	2900      	cmp	r1, #0
    2e20:	d019      	beq.n	2e56 <_i2c_master_read_packet+0x6e>
    2e22:	2280      	movs	r2, #128	; 0x80
    2e24:	0212      	lsls	r2, r2, #8
    2e26:	4313      	orrs	r3, r2
    2e28:	6263      	str	r3, [r4, #36]	; 0x24
    2e2a:	9801      	ldr	r0, [sp, #4]
    2e2c:	4b3f      	ldr	r3, [pc, #252]	; (2f2c <_i2c_master_read_packet+0x144>)
    2e2e:	4798      	blx	r3
    2e30:	6863      	ldr	r3, [r4, #4]
    2e32:	403b      	ands	r3, r7
    2e34:	6063      	str	r3, [r4, #4]
    2e36:	2800      	cmp	r0, #0
    2e38:	d163      	bne.n	2f02 <_i2c_master_read_packet+0x11a>
    2e3a:	9801      	ldr	r0, [sp, #4]
    2e3c:	4b3c      	ldr	r3, [pc, #240]	; (2f30 <_i2c_master_read_packet+0x148>)
    2e3e:	4798      	blx	r3
    2e40:	2800      	cmp	r0, #0
    2e42:	d15e      	bne.n	2f02 <_i2c_master_read_packet+0x11a>
    2e44:	2378      	movs	r3, #120	; 0x78
    2e46:	8832      	ldrh	r2, [r6, #0]
    2e48:	7a71      	ldrb	r1, [r6, #9]
    2e4a:	0a12      	lsrs	r2, r2, #8
    2e4c:	4313      	orrs	r3, r2
    2e4e:	2201      	movs	r2, #1
    2e50:	0389      	lsls	r1, r1, #14
    2e52:	005b      	lsls	r3, r3, #1
    2e54:	430a      	orrs	r2, r1
    2e56:	4313      	orrs	r3, r2
    2e58:	6263      	str	r3, [r4, #36]	; 0x24
    2e5a:	9801      	ldr	r0, [sp, #4]
    2e5c:	4b33      	ldr	r3, [pc, #204]	; (2f2c <_i2c_master_read_packet+0x144>)
    2e5e:	4798      	blx	r3
    2e60:	9b03      	ldr	r3, [sp, #12]
    2e62:	0002      	movs	r2, r0
    2e64:	2b00      	cmp	r3, #0
    2e66:	d017      	beq.n	2e98 <_i2c_master_read_packet+0xb0>
    2e68:	8873      	ldrh	r3, [r6, #2]
    2e6a:	2b01      	cmp	r3, #1
    2e6c:	d114      	bne.n	2e98 <_i2c_master_read_packet+0xb0>
    2e6e:	2380      	movs	r3, #128	; 0x80
    2e70:	6861      	ldr	r1, [r4, #4]
    2e72:	02db      	lsls	r3, r3, #11
    2e74:	430b      	orrs	r3, r1
    2e76:	6063      	str	r3, [r4, #4]
    2e78:	2a00      	cmp	r2, #0
    2e7a:	d142      	bne.n	2f02 <_i2c_master_read_packet+0x11a>
    2e7c:	9801      	ldr	r0, [sp, #4]
    2e7e:	4b2c      	ldr	r3, [pc, #176]	; (2f30 <_i2c_master_read_packet+0x148>)
    2e80:	4798      	blx	r3
    2e82:	2800      	cmp	r0, #0
    2e84:	d13d      	bne.n	2f02 <_i2c_master_read_packet+0x11a>
    2e86:	3d01      	subs	r5, #1
    2e88:	b2af      	uxth	r7, r5
    2e8a:	0005      	movs	r5, r0
    2e8c:	4b29      	ldr	r3, [pc, #164]	; (2f34 <_i2c_master_read_packet+0x14c>)
    2e8e:	429f      	cmp	r7, r3
    2e90:	d106      	bne.n	2ea0 <_i2c_master_read_packet+0xb8>
    2e92:	9502      	str	r5, [sp, #8]
    2e94:	2500      	movs	r5, #0
    2e96:	e020      	b.n	2eda <_i2c_master_read_packet+0xf2>
    2e98:	6863      	ldr	r3, [r4, #4]
    2e9a:	401f      	ands	r7, r3
    2e9c:	6067      	str	r7, [r4, #4]
    2e9e:	e7eb      	b.n	2e78 <_i2c_master_read_packet+0x90>
    2ea0:	2220      	movs	r2, #32
    2ea2:	8b63      	ldrh	r3, [r4, #26]
    2ea4:	4213      	tst	r3, r2
    2ea6:	d03a      	beq.n	2f1e <_i2c_master_read_packet+0x136>
    2ea8:	9b01      	ldr	r3, [sp, #4]
    2eaa:	7adb      	ldrb	r3, [r3, #11]
    2eac:	2b00      	cmp	r3, #0
    2eae:	d004      	beq.n	2eba <_i2c_master_read_packet+0xd2>
    2eb0:	9b03      	ldr	r3, [sp, #12]
    2eb2:	2b00      	cmp	r3, #0
    2eb4:	d127      	bne.n	2f06 <_i2c_master_read_packet+0x11e>
    2eb6:	2f00      	cmp	r7, #0
    2eb8:	d027      	beq.n	2f0a <_i2c_master_read_packet+0x122>
    2eba:	9801      	ldr	r0, [sp, #4]
    2ebc:	4b1e      	ldr	r3, [pc, #120]	; (2f38 <_i2c_master_read_packet+0x150>)
    2ebe:	4798      	blx	r3
    2ec0:	1c6b      	adds	r3, r5, #1
    2ec2:	b29b      	uxth	r3, r3
    2ec4:	9302      	str	r3, [sp, #8]
    2ec6:	0023      	movs	r3, r4
    2ec8:	3328      	adds	r3, #40	; 0x28
    2eca:	781b      	ldrb	r3, [r3, #0]
    2ecc:	6872      	ldr	r2, [r6, #4]
    2ece:	9801      	ldr	r0, [sp, #4]
    2ed0:	5553      	strb	r3, [r2, r5]
    2ed2:	4b16      	ldr	r3, [pc, #88]	; (2f2c <_i2c_master_read_packet+0x144>)
    2ed4:	4798      	blx	r3
    2ed6:	1e05      	subs	r5, r0, #0
    2ed8:	d01d      	beq.n	2f16 <_i2c_master_read_packet+0x12e>
    2eda:	9b01      	ldr	r3, [sp, #4]
    2edc:	4f16      	ldr	r7, [pc, #88]	; (2f38 <_i2c_master_read_packet+0x150>)
    2ede:	7a9b      	ldrb	r3, [r3, #10]
    2ee0:	2b00      	cmp	r3, #0
    2ee2:	d006      	beq.n	2ef2 <_i2c_master_read_packet+0x10a>
    2ee4:	9801      	ldr	r0, [sp, #4]
    2ee6:	47b8      	blx	r7
    2ee8:	23c0      	movs	r3, #192	; 0xc0
    2eea:	6862      	ldr	r2, [r4, #4]
    2eec:	029b      	lsls	r3, r3, #10
    2eee:	4313      	orrs	r3, r2
    2ef0:	6063      	str	r3, [r4, #4]
    2ef2:	9801      	ldr	r0, [sp, #4]
    2ef4:	47b8      	blx	r7
    2ef6:	0028      	movs	r0, r5
    2ef8:	3428      	adds	r4, #40	; 0x28
    2efa:	7822      	ldrb	r2, [r4, #0]
    2efc:	6873      	ldr	r3, [r6, #4]
    2efe:	9902      	ldr	r1, [sp, #8]
    2f00:	545a      	strb	r2, [r3, r1]
    2f02:	b005      	add	sp, #20
    2f04:	bdf0      	pop	{r4, r5, r6, r7, pc}
    2f06:	2f01      	cmp	r7, #1
    2f08:	d1d7      	bne.n	2eba <_i2c_master_read_packet+0xd2>
    2f0a:	2280      	movs	r2, #128	; 0x80
    2f0c:	6863      	ldr	r3, [r4, #4]
    2f0e:	02d2      	lsls	r2, r2, #11
    2f10:	4313      	orrs	r3, r2
    2f12:	6063      	str	r3, [r4, #4]
    2f14:	9502      	str	r5, [sp, #8]
    2f16:	3f01      	subs	r7, #1
    2f18:	b2bf      	uxth	r7, r7
    2f1a:	9d02      	ldr	r5, [sp, #8]
    2f1c:	e7b6      	b.n	2e8c <_i2c_master_read_packet+0xa4>
    2f1e:	2041      	movs	r0, #65	; 0x41
    2f20:	e7ef      	b.n	2f02 <_i2c_master_read_packet+0x11a>
    2f22:	46c0      	nop			; (mov r8, r8)
    2f24:	00002dc9 	.word	0x00002dc9
    2f28:	fffbffff 	.word	0xfffbffff
    2f2c:	00002da1 	.word	0x00002da1
    2f30:	00002d75 	.word	0x00002d75
    2f34:	0000ffff 	.word	0x0000ffff
    2f38:	00002aad 	.word	0x00002aad

00002f3c <_i2c_master_write_packet>:
    2f3c:	b5f7      	push	{r0, r1, r2, r4, r5, r6, r7, lr}
    2f3e:	000f      	movs	r7, r1
    2f40:	884b      	ldrh	r3, [r1, #2]
    2f42:	0005      	movs	r5, r0
    2f44:	9301      	str	r3, [sp, #4]
    2f46:	4b2a      	ldr	r3, [pc, #168]	; (2ff0 <_i2c_master_write_packet+0xb4>)
    2f48:	6804      	ldr	r4, [r0, #0]
    2f4a:	4798      	blx	r3
    2f4c:	7a7b      	ldrb	r3, [r7, #9]
    2f4e:	2b00      	cmp	r3, #0
    2f50:	d003      	beq.n	2f5a <_i2c_master_write_packet+0x1e>
    2f52:	7ab9      	ldrb	r1, [r7, #10]
    2f54:	0028      	movs	r0, r5
    2f56:	4b27      	ldr	r3, [pc, #156]	; (2ff4 <_i2c_master_write_packet+0xb8>)
    2f58:	4798      	blx	r3
    2f5a:	6863      	ldr	r3, [r4, #4]
    2f5c:	4a26      	ldr	r2, [pc, #152]	; (2ff8 <_i2c_master_write_packet+0xbc>)
    2f5e:	4013      	ands	r3, r2
    2f60:	6063      	str	r3, [r4, #4]
    2f62:	7a7a      	ldrb	r2, [r7, #9]
    2f64:	883b      	ldrh	r3, [r7, #0]
    2f66:	7a39      	ldrb	r1, [r7, #8]
    2f68:	005b      	lsls	r3, r3, #1
    2f6a:	0392      	lsls	r2, r2, #14
    2f6c:	4313      	orrs	r3, r2
    2f6e:	2900      	cmp	r1, #0
    2f70:	d002      	beq.n	2f78 <_i2c_master_write_packet+0x3c>
    2f72:	2280      	movs	r2, #128	; 0x80
    2f74:	0212      	lsls	r2, r2, #8
    2f76:	4313      	orrs	r3, r2
    2f78:	6263      	str	r3, [r4, #36]	; 0x24
    2f7a:	0028      	movs	r0, r5
    2f7c:	4b1f      	ldr	r3, [pc, #124]	; (2ffc <_i2c_master_write_packet+0xc0>)
    2f7e:	4798      	blx	r3
    2f80:	1e06      	subs	r6, r0, #0
    2f82:	d115      	bne.n	2fb0 <_i2c_master_write_packet+0x74>
    2f84:	0028      	movs	r0, r5
    2f86:	4b1e      	ldr	r3, [pc, #120]	; (3000 <_i2c_master_write_packet+0xc4>)
    2f88:	4798      	blx	r3
    2f8a:	1e06      	subs	r6, r0, #0
    2f8c:	d110      	bne.n	2fb0 <_i2c_master_write_packet+0x74>
    2f8e:	9000      	str	r0, [sp, #0]
    2f90:	9b00      	ldr	r3, [sp, #0]
    2f92:	9a01      	ldr	r2, [sp, #4]
    2f94:	4293      	cmp	r3, r2
    2f96:	d10d      	bne.n	2fb4 <_i2c_master_write_packet+0x78>
    2f98:	2600      	movs	r6, #0
    2f9a:	7aab      	ldrb	r3, [r5, #10]
    2f9c:	2b00      	cmp	r3, #0
    2f9e:	d007      	beq.n	2fb0 <_i2c_master_write_packet+0x74>
    2fa0:	4b13      	ldr	r3, [pc, #76]	; (2ff0 <_i2c_master_write_packet+0xb4>)
    2fa2:	0028      	movs	r0, r5
    2fa4:	4798      	blx	r3
    2fa6:	23c0      	movs	r3, #192	; 0xc0
    2fa8:	6862      	ldr	r2, [r4, #4]
    2faa:	029b      	lsls	r3, r3, #10
    2fac:	4313      	orrs	r3, r2
    2fae:	6063      	str	r3, [r4, #4]
    2fb0:	0030      	movs	r0, r6
    2fb2:	bdfe      	pop	{r1, r2, r3, r4, r5, r6, r7, pc}
    2fb4:	2220      	movs	r2, #32
    2fb6:	8b63      	ldrh	r3, [r4, #26]
    2fb8:	4213      	tst	r3, r2
    2fba:	d016      	beq.n	2fea <_i2c_master_write_packet+0xae>
    2fbc:	0028      	movs	r0, r5
    2fbe:	4b0c      	ldr	r3, [pc, #48]	; (2ff0 <_i2c_master_write_packet+0xb4>)
    2fc0:	4798      	blx	r3
    2fc2:	687b      	ldr	r3, [r7, #4]
    2fc4:	9a00      	ldr	r2, [sp, #0]
    2fc6:	0028      	movs	r0, r5
    2fc8:	5c9a      	ldrb	r2, [r3, r2]
    2fca:	0023      	movs	r3, r4
    2fcc:	3328      	adds	r3, #40	; 0x28
    2fce:	701a      	strb	r2, [r3, #0]
    2fd0:	4b0a      	ldr	r3, [pc, #40]	; (2ffc <_i2c_master_write_packet+0xc0>)
    2fd2:	4798      	blx	r3
    2fd4:	1e06      	subs	r6, r0, #0
    2fd6:	d1e0      	bne.n	2f9a <_i2c_master_write_packet+0x5e>
    2fd8:	9a00      	ldr	r2, [sp, #0]
    2fda:	8b63      	ldrh	r3, [r4, #26]
    2fdc:	3201      	adds	r2, #1
    2fde:	9200      	str	r2, [sp, #0]
    2fe0:	2204      	movs	r2, #4
    2fe2:	4213      	tst	r3, r2
    2fe4:	d0d4      	beq.n	2f90 <_i2c_master_write_packet+0x54>
    2fe6:	261e      	movs	r6, #30
    2fe8:	e7d7      	b.n	2f9a <_i2c_master_write_packet+0x5e>
    2fea:	2641      	movs	r6, #65	; 0x41
    2fec:	e7e0      	b.n	2fb0 <_i2c_master_write_packet+0x74>
    2fee:	46c0      	nop			; (mov r8, r8)
    2ff0:	00002aad 	.word	0x00002aad
    2ff4:	00002dc9 	.word	0x00002dc9
    2ff8:	fffbffff 	.word	0xfffbffff
    2ffc:	00002da1 	.word	0x00002da1
    3000:	00002d75 	.word	0x00002d75

00003004 <i2c_master_read_packet_wait>:
    3004:	2301      	movs	r3, #1
    3006:	b510      	push	{r4, lr}
    3008:	7283      	strb	r3, [r0, #10]
    300a:	72c3      	strb	r3, [r0, #11]
    300c:	4b01      	ldr	r3, [pc, #4]	; (3014 <i2c_master_read_packet_wait+0x10>)
    300e:	4798      	blx	r3
    3010:	bd10      	pop	{r4, pc}
    3012:	46c0      	nop			; (mov r8, r8)
    3014:	00002de9 	.word	0x00002de9

00003018 <i2c_master_write_packet_wait>:
    3018:	2301      	movs	r3, #1
    301a:	b510      	push	{r4, lr}
    301c:	7283      	strb	r3, [r0, #10]
    301e:	72c3      	strb	r3, [r0, #11]
    3020:	4b01      	ldr	r3, [pc, #4]	; (3028 <i2c_master_write_packet_wait+0x10>)
    3022:	4798      	blx	r3
    3024:	bd10      	pop	{r4, pc}
    3026:	46c0      	nop			; (mov r8, r8)
    3028:	00002f3d 	.word	0x00002f3d

0000302c <i2c_master_write_packet_wait_no_stop>:
    302c:	2300      	movs	r3, #0
    302e:	b510      	push	{r4, lr}
    3030:	7283      	strb	r3, [r0, #10]
    3032:	3301      	adds	r3, #1
    3034:	72c3      	strb	r3, [r0, #11]
    3036:	4b01      	ldr	r3, [pc, #4]	; (303c <i2c_master_write_packet_wait_no_stop+0x10>)
    3038:	4798      	blx	r3
    303a:	bd10      	pop	{r4, pc}
    303c:	00002f3d 	.word	0x00002f3d

00003040 <system_apb_clock_set_mask>:
    3040:	b500      	push	{lr}
    3042:	2317      	movs	r3, #23
    3044:	2804      	cmp	r0, #4
    3046:	d809      	bhi.n	305c <system_apb_clock_set_mask+0x1c>
    3048:	4b0d      	ldr	r3, [pc, #52]	; (3080 <system_apb_clock_set_mask+0x40>)
    304a:	f002 fc4b 	bl	58e4 <__gnu_thumb1_case_uqi>
    304e:	0903      	.short	0x0903
    3050:	110d      	.short	0x110d
    3052:	15          	.byte	0x15
    3053:	00          	.byte	0x00
    3054:	695a      	ldr	r2, [r3, #20]
    3056:	4311      	orrs	r1, r2
    3058:	6159      	str	r1, [r3, #20]
    305a:	2300      	movs	r3, #0
    305c:	0018      	movs	r0, r3
    305e:	bd00      	pop	{pc}
    3060:	699a      	ldr	r2, [r3, #24]
    3062:	4311      	orrs	r1, r2
    3064:	6199      	str	r1, [r3, #24]
    3066:	e7f8      	b.n	305a <system_apb_clock_set_mask+0x1a>
    3068:	69da      	ldr	r2, [r3, #28]
    306a:	4311      	orrs	r1, r2
    306c:	61d9      	str	r1, [r3, #28]
    306e:	e7f4      	b.n	305a <system_apb_clock_set_mask+0x1a>
    3070:	6a1a      	ldr	r2, [r3, #32]
    3072:	4311      	orrs	r1, r2
    3074:	6219      	str	r1, [r3, #32]
    3076:	e7f0      	b.n	305a <system_apb_clock_set_mask+0x1a>
    3078:	6a5a      	ldr	r2, [r3, #36]	; 0x24
    307a:	4311      	orrs	r1, r2
    307c:	6259      	str	r1, [r3, #36]	; 0x24
    307e:	e7ec      	b.n	305a <system_apb_clock_set_mask+0x1a>
    3080:	40000400 	.word	0x40000400

00003084 <_tc_get_inst_index>:
    3084:	b57f      	push	{r0, r1, r2, r3, r4, r5, r6, lr}
    3086:	4b0c      	ldr	r3, [pc, #48]	; (30b8 <_tc_get_inst_index+0x34>)
    3088:	0001      	movs	r1, r0
    308a:	0018      	movs	r0, r3
    308c:	aa01      	add	r2, sp, #4
    308e:	c870      	ldmia	r0!, {r4, r5, r6}
    3090:	c270      	stmia	r2!, {r4, r5, r6}
    3092:	9a01      	ldr	r2, [sp, #4]
    3094:	4291      	cmp	r1, r2
    3096:	d00a      	beq.n	30ae <_tc_get_inst_index+0x2a>
    3098:	685a      	ldr	r2, [r3, #4]
    309a:	4291      	cmp	r1, r2
    309c:	d009      	beq.n	30b2 <_tc_get_inst_index+0x2e>
    309e:	689b      	ldr	r3, [r3, #8]
    30a0:	2000      	movs	r0, #0
    30a2:	428b      	cmp	r3, r1
    30a4:	d101      	bne.n	30aa <_tc_get_inst_index+0x26>
    30a6:	3002      	adds	r0, #2
    30a8:	b2c0      	uxtb	r0, r0
    30aa:	b004      	add	sp, #16
    30ac:	bd70      	pop	{r4, r5, r6, pc}
    30ae:	2000      	movs	r0, #0
    30b0:	e7fa      	b.n	30a8 <_tc_get_inst_index+0x24>
    30b2:	2001      	movs	r0, #1
    30b4:	e7f8      	b.n	30a8 <_tc_get_inst_index+0x24>
    30b6:	46c0      	nop			; (mov r8, r8)
    30b8:	0000d348 	.word	0x0000d348

000030bc <tc_init>:
    30bc:	b5f0      	push	{r4, r5, r6, r7, lr}
    30be:	4b92      	ldr	r3, [pc, #584]	; (3308 <tc_init+0x24c>)
    30c0:	0005      	movs	r5, r0
    30c2:	b08d      	sub	sp, #52	; 0x34
    30c4:	0008      	movs	r0, r1
    30c6:	000e      	movs	r6, r1
    30c8:	0014      	movs	r4, r2
    30ca:	4798      	blx	r3
    30cc:	231b      	movs	r3, #27
    30ce:	aa02      	add	r2, sp, #8
    30d0:	7213      	strb	r3, [r2, #8]
    30d2:	7253      	strb	r3, [r2, #9]
    30d4:	3302      	adds	r3, #2
    30d6:	7293      	strb	r3, [r2, #10]
    30d8:	4b8c      	ldr	r3, [pc, #560]	; (330c <tc_init+0x250>)
    30da:	9001      	str	r0, [sp, #4]
    30dc:	330c      	adds	r3, #12
    30de:	aa06      	add	r2, sp, #24
    30e0:	cb83      	ldmia	r3!, {r0, r1, r7}
    30e2:	c283      	stmia	r2!, {r0, r1, r7}
    30e4:	cb83      	ldmia	r3!, {r0, r1, r7}
    30e6:	c283      	stmia	r2!, {r0, r1, r7}
    30e8:	2300      	movs	r3, #0
    30ea:	60ab      	str	r3, [r5, #8]
    30ec:	60eb      	str	r3, [r5, #12]
    30ee:	612b      	str	r3, [r5, #16]
    30f0:	616b      	str	r3, [r5, #20]
    30f2:	762b      	strb	r3, [r5, #24]
    30f4:	766b      	strb	r3, [r5, #25]
    30f6:	9b01      	ldr	r3, [sp, #4]
    30f8:	009a      	lsls	r2, r3, #2
    30fa:	4b85      	ldr	r3, [pc, #532]	; (3310 <tc_init+0x254>)
    30fc:	50d5      	str	r5, [r2, r3]
    30fe:	0023      	movs	r3, r4
    3100:	602e      	str	r6, [r5, #0]
    3102:	3334      	adds	r3, #52	; 0x34
    3104:	781b      	ldrb	r3, [r3, #0]
    3106:	76ab      	strb	r3, [r5, #26]
    3108:	78e3      	ldrb	r3, [r4, #3]
    310a:	2b08      	cmp	r3, #8
    310c:	d104      	bne.n	3118 <tc_init+0x5c>
    310e:	9a01      	ldr	r2, [sp, #4]
    3110:	2017      	movs	r0, #23
    3112:	07d2      	lsls	r2, r2, #31
    3114:	d500      	bpl.n	3118 <tc_init+0x5c>
    3116:	e0e3      	b.n	32e0 <tc_init+0x224>
    3118:	2201      	movs	r2, #1
    311a:	712b      	strb	r3, [r5, #4]
    311c:	6833      	ldr	r3, [r6, #0]
    311e:	2005      	movs	r0, #5
    3120:	4213      	tst	r3, r2
    3122:	d000      	beq.n	3126 <tc_init+0x6a>
    3124:	e0dc      	b.n	32e0 <tc_init+0x224>
    3126:	2102      	movs	r1, #2
    3128:	7af3      	ldrb	r3, [r6, #11]
    312a:	3017      	adds	r0, #23
    312c:	420b      	tst	r3, r1
    312e:	d000      	beq.n	3132 <tc_init+0x76>
    3130:	e0d6      	b.n	32e0 <tc_init+0x224>
    3132:	6833      	ldr	r3, [r6, #0]
    3134:	400b      	ands	r3, r1
    3136:	d000      	beq.n	313a <tc_init+0x7e>
    3138:	e0d2      	b.n	32e0 <tc_init+0x224>
    313a:	7c21      	ldrb	r1, [r4, #16]
    313c:	2900      	cmp	r1, #0
    313e:	d008      	beq.n	3152 <tc_init+0x96>
    3140:	a905      	add	r1, sp, #20
    3142:	70cb      	strb	r3, [r1, #3]
    3144:	7e23      	ldrb	r3, [r4, #24]
    3146:	7d20      	ldrb	r0, [r4, #20]
    3148:	700b      	strb	r3, [r1, #0]
    314a:	4b72      	ldr	r3, [pc, #456]	; (3314 <tc_init+0x258>)
    314c:	708a      	strb	r2, [r1, #2]
    314e:	704a      	strb	r2, [r1, #1]
    3150:	4798      	blx	r3
    3152:	7f23      	ldrb	r3, [r4, #28]
    3154:	2b00      	cmp	r3, #0
    3156:	d00e      	beq.n	3176 <tc_init+0xba>
    3158:	2200      	movs	r2, #0
    315a:	2301      	movs	r3, #1
    315c:	a905      	add	r1, sp, #20
    315e:	70ca      	strb	r2, [r1, #3]
    3160:	3224      	adds	r2, #36	; 0x24
    3162:	708b      	strb	r3, [r1, #2]
    3164:	18a2      	adds	r2, r4, r2
    3166:	704b      	strb	r3, [r1, #1]
    3168:	331f      	adds	r3, #31
    316a:	18e3      	adds	r3, r4, r3
    316c:	7812      	ldrb	r2, [r2, #0]
    316e:	7818      	ldrb	r0, [r3, #0]
    3170:	4b68      	ldr	r3, [pc, #416]	; (3314 <tc_init+0x258>)
    3172:	700a      	strb	r2, [r1, #0]
    3174:	4798      	blx	r3
    3176:	2010      	movs	r0, #16
    3178:	9a01      	ldr	r2, [sp, #4]
    317a:	a902      	add	r1, sp, #8
    317c:	00d2      	lsls	r2, r2, #3
    317e:	1809      	adds	r1, r1, r0
    3180:	5888      	ldr	r0, [r1, r2]
    3182:	2110      	movs	r1, #16
    3184:	9b01      	ldr	r3, [sp, #4]
    3186:	aa02      	add	r2, sp, #8
    3188:	005f      	lsls	r7, r3, #1
    318a:	1c7b      	adds	r3, r7, #1
    318c:	009b      	lsls	r3, r3, #2
    318e:	1852      	adds	r2, r2, r1
    3190:	58d1      	ldr	r1, [r2, r3]
    3192:	b2c0      	uxtb	r0, r0
    3194:	4b60      	ldr	r3, [pc, #384]	; (3318 <tc_init+0x25c>)
    3196:	4798      	blx	r3
    3198:	78e3      	ldrb	r3, [r4, #3]
    319a:	2b08      	cmp	r3, #8
    319c:	d110      	bne.n	31c0 <tc_init+0x104>
    319e:	9b01      	ldr	r3, [sp, #4]
    31a0:	2b01      	cmp	r3, #1
    31a2:	dc0d      	bgt.n	31c0 <tc_init+0x104>
    31a4:	2110      	movs	r1, #16
    31a6:	1cfb      	adds	r3, r7, #3
    31a8:	aa02      	add	r2, sp, #8
    31aa:	3702      	adds	r7, #2
    31ac:	1852      	adds	r2, r2, r1
    31ae:	00bf      	lsls	r7, r7, #2
    31b0:	59d0      	ldr	r0, [r2, r7]
    31b2:	aa02      	add	r2, sp, #8
    31b4:	009b      	lsls	r3, r3, #2
    31b6:	1852      	adds	r2, r2, r1
    31b8:	58d1      	ldr	r1, [r2, r3]
    31ba:	b2c0      	uxtb	r0, r0
    31bc:	4b56      	ldr	r3, [pc, #344]	; (3318 <tc_init+0x25c>)
    31be:	4798      	blx	r3
    31c0:	2008      	movs	r0, #8
    31c2:	7823      	ldrb	r3, [r4, #0]
    31c4:	a903      	add	r1, sp, #12
    31c6:	9a01      	ldr	r2, [sp, #4]
    31c8:	700b      	strb	r3, [r1, #0]
    31ca:	ab02      	add	r3, sp, #8
    31cc:	181b      	adds	r3, r3, r0
    31ce:	5c9f      	ldrb	r7, [r3, r2]
    31d0:	4b52      	ldr	r3, [pc, #328]	; (331c <tc_init+0x260>)
    31d2:	0038      	movs	r0, r7
    31d4:	4798      	blx	r3
    31d6:	4b52      	ldr	r3, [pc, #328]	; (3320 <tc_init+0x264>)
    31d8:	0038      	movs	r0, r7
    31da:	4798      	blx	r3
    31dc:	79e2      	ldrb	r2, [r4, #7]
    31de:	78e3      	ldrb	r3, [r4, #3]
    31e0:	4313      	orrs	r3, r2
    31e2:	88a2      	ldrh	r2, [r4, #4]
    31e4:	4313      	orrs	r3, r2
    31e6:	7a62      	ldrb	r2, [r4, #9]
    31e8:	2a00      	cmp	r2, #0
    31ea:	d002      	beq.n	31f2 <tc_init+0x136>
    31ec:	2280      	movs	r2, #128	; 0x80
    31ee:	0252      	lsls	r2, r2, #9
    31f0:	4313      	orrs	r3, r2
    31f2:	7aa2      	ldrb	r2, [r4, #10]
    31f4:	2a00      	cmp	r2, #0
    31f6:	d002      	beq.n	31fe <tc_init+0x142>
    31f8:	2280      	movs	r2, #128	; 0x80
    31fa:	0292      	lsls	r2, r2, #10
    31fc:	4313      	orrs	r3, r2
    31fe:	7ae2      	ldrb	r2, [r4, #11]
    3200:	2a00      	cmp	r2, #0
    3202:	d002      	beq.n	320a <tc_init+0x14e>
    3204:	2280      	movs	r2, #128	; 0x80
    3206:	0352      	lsls	r2, r2, #13
    3208:	4313      	orrs	r3, r2
    320a:	7b22      	ldrb	r2, [r4, #12]
    320c:	2a00      	cmp	r2, #0
    320e:	d002      	beq.n	3216 <tc_init+0x15a>
    3210:	2280      	movs	r2, #128	; 0x80
    3212:	0392      	lsls	r2, r2, #14
    3214:	4313      	orrs	r3, r2
    3216:	7862      	ldrb	r2, [r4, #1]
    3218:	78a1      	ldrb	r1, [r4, #2]
    321a:	0192      	lsls	r2, r2, #6
    321c:	01c9      	lsls	r1, r1, #7
    321e:	430a      	orrs	r2, r1
    3220:	6829      	ldr	r1, [r5, #0]
    3222:	4313      	orrs	r3, r2
    3224:	690a      	ldr	r2, [r1, #16]
    3226:	2a00      	cmp	r2, #0
    3228:	d1fc      	bne.n	3224 <tc_init+0x168>
    322a:	6033      	str	r3, [r6, #0]
    322c:	682a      	ldr	r2, [r5, #0]
    322e:	6913      	ldr	r3, [r2, #16]
    3230:	2b00      	cmp	r3, #0
    3232:	d1fc      	bne.n	322e <tc_init+0x172>
    3234:	79a3      	ldrb	r3, [r4, #6]
    3236:	7333      	strb	r3, [r6, #12]
    3238:	7b63      	ldrb	r3, [r4, #13]
    323a:	1e5a      	subs	r2, r3, #1
    323c:	4193      	sbcs	r3, r2
    323e:	7ba2      	ldrb	r2, [r4, #14]
    3240:	009b      	lsls	r3, r3, #2
    3242:	2a00      	cmp	r2, #0
    3244:	d001      	beq.n	324a <tc_init+0x18e>
    3246:	2201      	movs	r2, #1
    3248:	4313      	orrs	r3, r2
    324a:	6829      	ldr	r1, [r5, #0]
    324c:	690a      	ldr	r2, [r1, #16]
    324e:	2a00      	cmp	r2, #0
    3250:	d1fc      	bne.n	324c <tc_init+0x190>
    3252:	32ff      	adds	r2, #255	; 0xff
    3254:	7132      	strb	r2, [r6, #4]
    3256:	2b00      	cmp	r3, #0
    3258:	d004      	beq.n	3264 <tc_init+0x1a8>
    325a:	6829      	ldr	r1, [r5, #0]
    325c:	690a      	ldr	r2, [r1, #16]
    325e:	2a00      	cmp	r2, #0
    3260:	d1fc      	bne.n	325c <tc_init+0x1a0>
    3262:	7173      	strb	r3, [r6, #5]
    3264:	7a23      	ldrb	r3, [r4, #8]
    3266:	7373      	strb	r3, [r6, #13]
    3268:	682b      	ldr	r3, [r5, #0]
    326a:	691a      	ldr	r2, [r3, #16]
    326c:	2a00      	cmp	r2, #0
    326e:	d1fc      	bne.n	326a <tc_init+0x1ae>
    3270:	792a      	ldrb	r2, [r5, #4]
    3272:	2a04      	cmp	r2, #4
    3274:	d016      	beq.n	32a4 <tc_init+0x1e8>
    3276:	2a08      	cmp	r2, #8
    3278:	d034      	beq.n	32e4 <tc_init+0x228>
    327a:	2017      	movs	r0, #23
    327c:	2a00      	cmp	r2, #0
    327e:	d12f      	bne.n	32e0 <tc_init+0x224>
    3280:	691a      	ldr	r2, [r3, #16]
    3282:	2a00      	cmp	r2, #0
    3284:	d1fc      	bne.n	3280 <tc_init+0x1c4>
    3286:	8d23      	ldrh	r3, [r4, #40]	; 0x28
    3288:	82b3      	strh	r3, [r6, #20]
    328a:	682a      	ldr	r2, [r5, #0]
    328c:	6913      	ldr	r3, [r2, #16]
    328e:	2b00      	cmp	r3, #0
    3290:	d1fc      	bne.n	328c <tc_init+0x1d0>
    3292:	8d63      	ldrh	r3, [r4, #42]	; 0x2a
    3294:	83b3      	strh	r3, [r6, #28]
    3296:	682b      	ldr	r3, [r5, #0]
    3298:	6918      	ldr	r0, [r3, #16]
    329a:	2800      	cmp	r0, #0
    329c:	d1fc      	bne.n	3298 <tc_init+0x1dc>
    329e:	8da3      	ldrh	r3, [r4, #44]	; 0x2c
    32a0:	83f3      	strh	r3, [r6, #30]
    32a2:	e01d      	b.n	32e0 <tc_init+0x224>
    32a4:	691a      	ldr	r2, [r3, #16]
    32a6:	2a00      	cmp	r2, #0
    32a8:	d1fc      	bne.n	32a4 <tc_init+0x1e8>
    32aa:	0023      	movs	r3, r4
    32ac:	3328      	adds	r3, #40	; 0x28
    32ae:	781b      	ldrb	r3, [r3, #0]
    32b0:	7533      	strb	r3, [r6, #20]
    32b2:	682a      	ldr	r2, [r5, #0]
    32b4:	6913      	ldr	r3, [r2, #16]
    32b6:	2b00      	cmp	r3, #0
    32b8:	d1fc      	bne.n	32b4 <tc_init+0x1f8>
    32ba:	0023      	movs	r3, r4
    32bc:	3329      	adds	r3, #41	; 0x29
    32be:	781b      	ldrb	r3, [r3, #0]
    32c0:	76f3      	strb	r3, [r6, #27]
    32c2:	682a      	ldr	r2, [r5, #0]
    32c4:	6913      	ldr	r3, [r2, #16]
    32c6:	2b00      	cmp	r3, #0
    32c8:	d1fc      	bne.n	32c4 <tc_init+0x208>
    32ca:	0023      	movs	r3, r4
    32cc:	332a      	adds	r3, #42	; 0x2a
    32ce:	781b      	ldrb	r3, [r3, #0]
    32d0:	7733      	strb	r3, [r6, #28]
    32d2:	682b      	ldr	r3, [r5, #0]
    32d4:	6918      	ldr	r0, [r3, #16]
    32d6:	2800      	cmp	r0, #0
    32d8:	d1fc      	bne.n	32d4 <tc_init+0x218>
    32da:	342b      	adds	r4, #43	; 0x2b
    32dc:	7823      	ldrb	r3, [r4, #0]
    32de:	7773      	strb	r3, [r6, #29]
    32e0:	b00d      	add	sp, #52	; 0x34
    32e2:	bdf0      	pop	{r4, r5, r6, r7, pc}
    32e4:	691a      	ldr	r2, [r3, #16]
    32e6:	2a00      	cmp	r2, #0
    32e8:	d1fc      	bne.n	32e4 <tc_init+0x228>
    32ea:	6aa3      	ldr	r3, [r4, #40]	; 0x28
    32ec:	6173      	str	r3, [r6, #20]
    32ee:	682a      	ldr	r2, [r5, #0]
    32f0:	6913      	ldr	r3, [r2, #16]
    32f2:	2b00      	cmp	r3, #0
    32f4:	d1fc      	bne.n	32f0 <tc_init+0x234>
    32f6:	6ae3      	ldr	r3, [r4, #44]	; 0x2c
    32f8:	61f3      	str	r3, [r6, #28]
    32fa:	682b      	ldr	r3, [r5, #0]
    32fc:	6918      	ldr	r0, [r3, #16]
    32fe:	2800      	cmp	r0, #0
    3300:	d1fc      	bne.n	32fc <tc_init+0x240>
    3302:	6b23      	ldr	r3, [r4, #48]	; 0x30
    3304:	6233      	str	r3, [r6, #32]
    3306:	e7eb      	b.n	32e0 <tc_init+0x224>
    3308:	00003085 	.word	0x00003085
    330c:	0000d348 	.word	0x0000d348
    3310:	20000cc4 	.word	0x20000cc4
    3314:	000050b1 	.word	0x000050b1
    3318:	00003041 	.word	0x00003041
    331c:	00004fd9 	.word	0x00004fd9
    3320:	00004f79 	.word	0x00004f79

00003324 <tc_set_count_value>:
    3324:	0002      	movs	r2, r0
    3326:	6803      	ldr	r3, [r0, #0]
    3328:	6918      	ldr	r0, [r3, #16]
    332a:	2800      	cmp	r0, #0
    332c:	d1fc      	bne.n	3328 <tc_set_count_value+0x4>
    332e:	7912      	ldrb	r2, [r2, #4]
    3330:	2a04      	cmp	r2, #4
    3332:	d008      	beq.n	3346 <tc_set_count_value+0x22>
    3334:	2a08      	cmp	r2, #8
    3336:	d009      	beq.n	334c <tc_set_count_value+0x28>
    3338:	2017      	movs	r0, #23
    333a:	2a00      	cmp	r2, #0
    333c:	d105      	bne.n	334a <tc_set_count_value+0x26>
    333e:	b289      	uxth	r1, r1
    3340:	8299      	strh	r1, [r3, #20]
    3342:	0010      	movs	r0, r2
    3344:	e001      	b.n	334a <tc_set_count_value+0x26>
    3346:	b2c9      	uxtb	r1, r1
    3348:	7519      	strb	r1, [r3, #20]
    334a:	4770      	bx	lr
    334c:	6159      	str	r1, [r3, #20]
    334e:	e7fc      	b.n	334a <tc_set_count_value+0x26>

00003350 <main>:
    3350:	b510      	push	{r4, lr}
    3352:	4b04      	ldr	r3, [pc, #16]	; (3364 <main+0x14>)
    3354:	4798      	blx	r3
    3356:	4b04      	ldr	r3, [pc, #16]	; (3368 <main+0x18>)
    3358:	4798      	blx	r3
    335a:	4b04      	ldr	r3, [pc, #16]	; (336c <main+0x1c>)
    335c:	4798      	blx	r3
    335e:	2000      	movs	r0, #0
    3360:	bd10      	pop	{r4, pc}
    3362:	46c0      	nop			; (mov r8, r8)
    3364:	000050e1 	.word	0x000050e1
    3368:	000001bd 	.word	0x000001bd
    336c:	00000221 	.word	0x00000221

00003370 <tc_register_callback>:
    3370:	1c93      	adds	r3, r2, #2
    3372:	009b      	lsls	r3, r3, #2
    3374:	5019      	str	r1, [r3, r0]
    3376:	7e03      	ldrb	r3, [r0, #24]
    3378:	2a02      	cmp	r2, #2
    337a:	d104      	bne.n	3386 <tc_register_callback+0x16>
    337c:	320e      	adds	r2, #14
    337e:	4313      	orrs	r3, r2
    3380:	7603      	strb	r3, [r0, #24]
    3382:	2000      	movs	r0, #0
    3384:	4770      	bx	lr
    3386:	2a03      	cmp	r2, #3
    3388:	d101      	bne.n	338e <tc_register_callback+0x1e>
    338a:	321d      	adds	r2, #29
    338c:	e7f7      	b.n	337e <tc_register_callback+0xe>
    338e:	2101      	movs	r1, #1
    3390:	4091      	lsls	r1, r2
    3392:	430b      	orrs	r3, r1
    3394:	e7f4      	b.n	3380 <tc_register_callback+0x10>
	...

00003398 <_tc_interrupt_handler>:
    3398:	b570      	push	{r4, r5, r6, lr}
    339a:	2601      	movs	r6, #1
    339c:	4b14      	ldr	r3, [pc, #80]	; (33f0 <_tc_interrupt_handler+0x58>)
    339e:	0080      	lsls	r0, r0, #2
    33a0:	58c4      	ldr	r4, [r0, r3]
    33a2:	6823      	ldr	r3, [r4, #0]
    33a4:	7e22      	ldrb	r2, [r4, #24]
    33a6:	7e65      	ldrb	r5, [r4, #25]
    33a8:	7a9b      	ldrb	r3, [r3, #10]
    33aa:	4015      	ands	r5, r2
    33ac:	401d      	ands	r5, r3
    33ae:	4235      	tst	r5, r6
    33b0:	d004      	beq.n	33bc <_tc_interrupt_handler+0x24>
    33b2:	68a3      	ldr	r3, [r4, #8]
    33b4:	0020      	movs	r0, r4
    33b6:	4798      	blx	r3
    33b8:	6823      	ldr	r3, [r4, #0]
    33ba:	729e      	strb	r6, [r3, #10]
    33bc:	2602      	movs	r6, #2
    33be:	4235      	tst	r5, r6
    33c0:	d004      	beq.n	33cc <_tc_interrupt_handler+0x34>
    33c2:	68e3      	ldr	r3, [r4, #12]
    33c4:	0020      	movs	r0, r4
    33c6:	4798      	blx	r3
    33c8:	6823      	ldr	r3, [r4, #0]
    33ca:	729e      	strb	r6, [r3, #10]
    33cc:	2610      	movs	r6, #16
    33ce:	4235      	tst	r5, r6
    33d0:	d004      	beq.n	33dc <_tc_interrupt_handler+0x44>
    33d2:	6923      	ldr	r3, [r4, #16]
    33d4:	0020      	movs	r0, r4
    33d6:	4798      	blx	r3
    33d8:	6823      	ldr	r3, [r4, #0]
    33da:	729e      	strb	r6, [r3, #10]
    33dc:	2620      	movs	r6, #32
    33de:	4235      	tst	r5, r6
    33e0:	d004      	beq.n	33ec <_tc_interrupt_handler+0x54>
    33e2:	6963      	ldr	r3, [r4, #20]
    33e4:	0020      	movs	r0, r4
    33e6:	4798      	blx	r3
    33e8:	6823      	ldr	r3, [r4, #0]
    33ea:	729e      	strb	r6, [r3, #10]
    33ec:	bd70      	pop	{r4, r5, r6, pc}
    33ee:	46c0      	nop			; (mov r8, r8)
    33f0:	20000cc4 	.word	0x20000cc4

000033f4 <TC0_Handler>:
    33f4:	b510      	push	{r4, lr}
    33f6:	2000      	movs	r0, #0
    33f8:	4b01      	ldr	r3, [pc, #4]	; (3400 <TC0_Handler+0xc>)
    33fa:	4798      	blx	r3
    33fc:	bd10      	pop	{r4, pc}
    33fe:	46c0      	nop			; (mov r8, r8)
    3400:	00003399 	.word	0x00003399

00003404 <TC1_Handler>:
    3404:	b510      	push	{r4, lr}
    3406:	2001      	movs	r0, #1
    3408:	4b01      	ldr	r3, [pc, #4]	; (3410 <TC1_Handler+0xc>)
    340a:	4798      	blx	r3
    340c:	bd10      	pop	{r4, pc}
    340e:	46c0      	nop			; (mov r8, r8)
    3410:	00003399 	.word	0x00003399

00003414 <TC4_Handler>:
    3414:	b510      	push	{r4, lr}
    3416:	2002      	movs	r0, #2
    3418:	4b01      	ldr	r3, [pc, #4]	; (3420 <TC4_Handler+0xc>)
    341a:	4798      	blx	r3
    341c:	bd10      	pop	{r4, pc}
    341e:	46c0      	nop			; (mov r8, r8)
    3420:	00003399 	.word	0x00003399

00003424 <usart_init>:
    3424:	b5f0      	push	{r4, r5, r6, r7, lr}
    3426:	0006      	movs	r6, r0
    3428:	b093      	sub	sp, #76	; 0x4c
    342a:	4b99      	ldr	r3, [pc, #612]	; (3690 <usart_init+0x26c>)
    342c:	6031      	str	r1, [r6, #0]
    342e:	0008      	movs	r0, r1
    3430:	0014      	movs	r4, r2
    3432:	9104      	str	r1, [sp, #16]
    3434:	4798      	blx	r3
    3436:	2301      	movs	r3, #1
    3438:	0002      	movs	r2, r0
    343a:	2805      	cmp	r0, #5
    343c:	d100      	bne.n	3440 <usart_init+0x1c>
    343e:	e0ea      	b.n	3616 <usart_init+0x1f2>
    3440:	0005      	movs	r5, r0
    3442:	0001      	movs	r1, r0
    3444:	3512      	adds	r5, #18
    3446:	9804      	ldr	r0, [sp, #16]
    3448:	6807      	ldr	r7, [r0, #0]
    344a:	2005      	movs	r0, #5
    344c:	421f      	tst	r7, r3
    344e:	d000      	beq.n	3452 <usart_init+0x2e>
    3450:	e0df      	b.n	3612 <usart_init+0x1ee>
    3452:	9804      	ldr	r0, [sp, #16]
    3454:	6807      	ldr	r7, [r0, #0]
    3456:	201c      	movs	r0, #28
    3458:	07bf      	lsls	r7, r7, #30
    345a:	d500      	bpl.n	345e <usart_init+0x3a>
    345c:	e0d9      	b.n	3612 <usart_init+0x1ee>
    345e:	488d      	ldr	r0, [pc, #564]	; (3694 <usart_init+0x270>)
    3460:	408b      	lsls	r3, r1
    3462:	2a05      	cmp	r2, #5
    3464:	d000      	beq.n	3468 <usart_init+0x44>
    3466:	e0d9      	b.n	361c <usart_init+0x1f8>
    3468:	6a02      	ldr	r2, [r0, #32]
    346a:	4313      	orrs	r3, r2
    346c:	6203      	str	r3, [r0, #32]
    346e:	0027      	movs	r7, r4
    3470:	372d      	adds	r7, #45	; 0x2d
    3472:	783b      	ldrb	r3, [r7, #0]
    3474:	a90c      	add	r1, sp, #48	; 0x30
    3476:	b2ed      	uxtb	r5, r5
    3478:	700b      	strb	r3, [r1, #0]
    347a:	0028      	movs	r0, r5
    347c:	4b86      	ldr	r3, [pc, #536]	; (3698 <usart_init+0x274>)
    347e:	4798      	blx	r3
    3480:	0028      	movs	r0, r5
    3482:	4b86      	ldr	r3, [pc, #536]	; (369c <usart_init+0x278>)
    3484:	4798      	blx	r3
    3486:	7838      	ldrb	r0, [r7, #0]
    3488:	2100      	movs	r1, #0
    348a:	4b85      	ldr	r3, [pc, #532]	; (36a0 <usart_init+0x27c>)
    348c:	4798      	blx	r3
    348e:	7ae3      	ldrb	r3, [r4, #11]
    3490:	6837      	ldr	r7, [r6, #0]
    3492:	7173      	strb	r3, [r6, #5]
    3494:	1d63      	adds	r3, r4, #5
    3496:	7fdb      	ldrb	r3, [r3, #31]
    3498:	0038      	movs	r0, r7
    349a:	71b3      	strb	r3, [r6, #6]
    349c:	1da3      	adds	r3, r4, #6
    349e:	7fdb      	ldrb	r3, [r3, #31]
    34a0:	71f3      	strb	r3, [r6, #7]
    34a2:	7ee3      	ldrb	r3, [r4, #27]
    34a4:	7233      	strb	r3, [r6, #8]
    34a6:	7f23      	ldrb	r3, [r4, #28]
    34a8:	7273      	strb	r3, [r6, #9]
    34aa:	4b79      	ldr	r3, [pc, #484]	; (3690 <usart_init+0x26c>)
    34ac:	4798      	blx	r3
    34ae:	2318      	movs	r3, #24
    34b0:	2805      	cmp	r0, #5
    34b2:	d001      	beq.n	34b8 <usart_init+0x94>
    34b4:	0003      	movs	r3, r0
    34b6:	3312      	adds	r3, #18
    34b8:	2500      	movs	r5, #0
    34ba:	aa0e      	add	r2, sp, #56	; 0x38
    34bc:	8015      	strh	r5, [r2, #0]
    34be:	8a22      	ldrh	r2, [r4, #16]
    34c0:	9202      	str	r2, [sp, #8]
    34c2:	2280      	movs	r2, #128	; 0x80
    34c4:	9902      	ldr	r1, [sp, #8]
    34c6:	01d2      	lsls	r2, r2, #7
    34c8:	4291      	cmp	r1, r2
    34ca:	d100      	bne.n	34ce <usart_init+0xaa>
    34cc:	e0bd      	b.n	364a <usart_init+0x226>
    34ce:	d900      	bls.n	34d2 <usart_init+0xae>
    34d0:	e0a8      	b.n	3624 <usart_init+0x200>
    34d2:	2280      	movs	r2, #128	; 0x80
    34d4:	0192      	lsls	r2, r2, #6
    34d6:	4291      	cmp	r1, r2
    34d8:	d100      	bne.n	34dc <usart_init+0xb8>
    34da:	e0b0      	b.n	363e <usart_init+0x21a>
    34dc:	2210      	movs	r2, #16
    34de:	2500      	movs	r5, #0
    34e0:	9203      	str	r2, [sp, #12]
    34e2:	6822      	ldr	r2, [r4, #0]
    34e4:	9206      	str	r2, [sp, #24]
    34e6:	68e2      	ldr	r2, [r4, #12]
    34e8:	9207      	str	r2, [sp, #28]
    34ea:	6962      	ldr	r2, [r4, #20]
    34ec:	9208      	str	r2, [sp, #32]
    34ee:	7e22      	ldrb	r2, [r4, #24]
    34f0:	9209      	str	r2, [sp, #36]	; 0x24
    34f2:	1de2      	adds	r2, r4, #7
    34f4:	7fd2      	ldrb	r2, [r2, #31]
    34f6:	920a      	str	r2, [sp, #40]	; 0x28
    34f8:	6862      	ldr	r2, [r4, #4]
    34fa:	9205      	str	r2, [sp, #20]
    34fc:	0022      	movs	r2, r4
    34fe:	9905      	ldr	r1, [sp, #20]
    3500:	3208      	adds	r2, #8
    3502:	2900      	cmp	r1, #0
    3504:	d100      	bne.n	3508 <usart_init+0xe4>
    3506:	e0a2      	b.n	364e <usart_init+0x22a>
    3508:	2180      	movs	r1, #128	; 0x80
    350a:	9805      	ldr	r0, [sp, #20]
    350c:	0549      	lsls	r1, r1, #21
    350e:	4288      	cmp	r0, r1
    3510:	d10d      	bne.n	352e <usart_init+0x10a>
    3512:	7fd2      	ldrb	r2, [r2, #31]
    3514:	2a00      	cmp	r2, #0
    3516:	d10a      	bne.n	352e <usart_init+0x10a>
    3518:	b2d8      	uxtb	r0, r3
    351a:	4b62      	ldr	r3, [pc, #392]	; (36a4 <usart_init+0x280>)
    351c:	6a25      	ldr	r5, [r4, #32]
    351e:	4798      	blx	r3
    3520:	aa0e      	add	r2, sp, #56	; 0x38
    3522:	0001      	movs	r1, r0
    3524:	4b60      	ldr	r3, [pc, #384]	; (36a8 <usart_init+0x284>)
    3526:	0028      	movs	r0, r5
    3528:	4798      	blx	r3
    352a:	2800      	cmp	r0, #0
    352c:	d171      	bne.n	3612 <usart_init+0x1ee>
    352e:	7e63      	ldrb	r3, [r4, #25]
    3530:	2b00      	cmp	r3, #0
    3532:	d001      	beq.n	3538 <usart_init+0x114>
    3534:	7ea3      	ldrb	r3, [r4, #26]
    3536:	73bb      	strb	r3, [r7, #14]
    3538:	ad0e      	add	r5, sp, #56	; 0x38
    353a:	882b      	ldrh	r3, [r5, #0]
    353c:	9a07      	ldr	r2, [sp, #28]
    353e:	81bb      	strh	r3, [r7, #12]
    3540:	9b06      	ldr	r3, [sp, #24]
    3542:	4313      	orrs	r3, r2
    3544:	9a08      	ldr	r2, [sp, #32]
    3546:	4313      	orrs	r3, r2
    3548:	9a05      	ldr	r2, [sp, #20]
    354a:	4313      	orrs	r3, r2
    354c:	9a02      	ldr	r2, [sp, #8]
    354e:	4313      	orrs	r3, r2
    3550:	9a09      	ldr	r2, [sp, #36]	; 0x24
    3552:	0212      	lsls	r2, r2, #8
    3554:	4313      	orrs	r3, r2
    3556:	9a0a      	ldr	r2, [sp, #40]	; 0x28
    3558:	0752      	lsls	r2, r2, #29
    355a:	4313      	orrs	r3, r2
    355c:	0022      	movs	r2, r4
    355e:	3208      	adds	r2, #8
    3560:	7fd2      	ldrb	r2, [r2, #31]
    3562:	2a00      	cmp	r2, #0
    3564:	d101      	bne.n	356a <usart_init+0x146>
    3566:	3204      	adds	r2, #4
    3568:	4313      	orrs	r3, r2
    356a:	7e62      	ldrb	r2, [r4, #25]
    356c:	7f21      	ldrb	r1, [r4, #28]
    356e:	0292      	lsls	r2, r2, #10
    3570:	0249      	lsls	r1, r1, #9
    3572:	430a      	orrs	r2, r1
    3574:	7f61      	ldrb	r1, [r4, #29]
    3576:	7ae0      	ldrb	r0, [r4, #11]
    3578:	0209      	lsls	r1, r1, #8
    357a:	430a      	orrs	r2, r1
    357c:	1d61      	adds	r1, r4, #5
    357e:	7fc9      	ldrb	r1, [r1, #31]
    3580:	0449      	lsls	r1, r1, #17
    3582:	430a      	orrs	r2, r1
    3584:	1da1      	adds	r1, r4, #6
    3586:	7fc9      	ldrb	r1, [r1, #31]
    3588:	0409      	lsls	r1, r1, #16
    358a:	430a      	orrs	r2, r1
    358c:	7aa1      	ldrb	r1, [r4, #10]
    358e:	4301      	orrs	r1, r0
    3590:	430a      	orrs	r2, r1
    3592:	8921      	ldrh	r1, [r4, #8]
    3594:	29ff      	cmp	r1, #255	; 0xff
    3596:	d100      	bne.n	359a <usart_init+0x176>
    3598:	e071      	b.n	367e <usart_init+0x25a>
    359a:	2080      	movs	r0, #128	; 0x80
    359c:	0440      	lsls	r0, r0, #17
    359e:	4303      	orrs	r3, r0
    35a0:	430a      	orrs	r2, r1
    35a2:	0021      	movs	r1, r4
    35a4:	312c      	adds	r1, #44	; 0x2c
    35a6:	7809      	ldrb	r1, [r1, #0]
    35a8:	2900      	cmp	r1, #0
    35aa:	d103      	bne.n	35b4 <usart_init+0x190>
    35ac:	493f      	ldr	r1, [pc, #252]	; (36ac <usart_init+0x288>)
    35ae:	7889      	ldrb	r1, [r1, #2]
    35b0:	0789      	lsls	r1, r1, #30
    35b2:	d501      	bpl.n	35b8 <usart_init+0x194>
    35b4:	2180      	movs	r1, #128	; 0x80
    35b6:	430b      	orrs	r3, r1
    35b8:	6830      	ldr	r0, [r6, #0]
    35ba:	69c1      	ldr	r1, [r0, #28]
    35bc:	2900      	cmp	r1, #0
    35be:	d1fc      	bne.n	35ba <usart_init+0x196>
    35c0:	607a      	str	r2, [r7, #4]
    35c2:	6831      	ldr	r1, [r6, #0]
    35c4:	69ca      	ldr	r2, [r1, #28]
    35c6:	2a00      	cmp	r2, #0
    35c8:	d1fc      	bne.n	35c4 <usart_init+0x1a0>
    35ca:	603b      	str	r3, [r7, #0]
    35cc:	2380      	movs	r3, #128	; 0x80
    35ce:	ae0d      	add	r6, sp, #52	; 0x34
    35d0:	7033      	strb	r3, [r6, #0]
    35d2:	6b23      	ldr	r3, [r4, #48]	; 0x30
    35d4:	7072      	strb	r2, [r6, #1]
    35d6:	930e      	str	r3, [sp, #56]	; 0x38
    35d8:	6b63      	ldr	r3, [r4, #52]	; 0x34
    35da:	70f2      	strb	r2, [r6, #3]
    35dc:	606b      	str	r3, [r5, #4]
    35de:	6ba3      	ldr	r3, [r4, #56]	; 0x38
    35e0:	70b2      	strb	r2, [r6, #2]
    35e2:	60ab      	str	r3, [r5, #8]
    35e4:	6be3      	ldr	r3, [r4, #60]	; 0x3c
    35e6:	0014      	movs	r4, r2
    35e8:	60eb      	str	r3, [r5, #12]
    35ea:	00a3      	lsls	r3, r4, #2
    35ec:	58e8      	ldr	r0, [r5, r3]
    35ee:	b2e1      	uxtb	r1, r4
    35f0:	2800      	cmp	r0, #0
    35f2:	d102      	bne.n	35fa <usart_init+0x1d6>
    35f4:	9804      	ldr	r0, [sp, #16]
    35f6:	4b2e      	ldr	r3, [pc, #184]	; (36b0 <usart_init+0x28c>)
    35f8:	4798      	blx	r3
    35fa:	1c43      	adds	r3, r0, #1
    35fc:	d005      	beq.n	360a <usart_init+0x1e6>
    35fe:	7030      	strb	r0, [r6, #0]
    3600:	0c00      	lsrs	r0, r0, #16
    3602:	b2c0      	uxtb	r0, r0
    3604:	0031      	movs	r1, r6
    3606:	4b2b      	ldr	r3, [pc, #172]	; (36b4 <usart_init+0x290>)
    3608:	4798      	blx	r3
    360a:	3401      	adds	r4, #1
    360c:	2c04      	cmp	r4, #4
    360e:	d1ec      	bne.n	35ea <usart_init+0x1c6>
    3610:	2000      	movs	r0, #0
    3612:	b013      	add	sp, #76	; 0x4c
    3614:	bdf0      	pop	{r4, r5, r6, r7, pc}
    3616:	2518      	movs	r5, #24
    3618:	0019      	movs	r1, r3
    361a:	e714      	b.n	3446 <usart_init+0x22>
    361c:	69c2      	ldr	r2, [r0, #28]
    361e:	4313      	orrs	r3, r2
    3620:	61c3      	str	r3, [r0, #28]
    3622:	e724      	b.n	346e <usart_init+0x4a>
    3624:	22c0      	movs	r2, #192	; 0xc0
    3626:	9902      	ldr	r1, [sp, #8]
    3628:	01d2      	lsls	r2, r2, #7
    362a:	4291      	cmp	r1, r2
    362c:	d00b      	beq.n	3646 <usart_init+0x222>
    362e:	2280      	movs	r2, #128	; 0x80
    3630:	0212      	lsls	r2, r2, #8
    3632:	4291      	cmp	r1, r2
    3634:	d000      	beq.n	3638 <usart_init+0x214>
    3636:	e751      	b.n	34dc <usart_init+0xb8>
    3638:	2203      	movs	r2, #3
    363a:	9203      	str	r2, [sp, #12]
    363c:	e751      	b.n	34e2 <usart_init+0xbe>
    363e:	2210      	movs	r2, #16
    3640:	9203      	str	r2, [sp, #12]
    3642:	2501      	movs	r5, #1
    3644:	e74d      	b.n	34e2 <usart_init+0xbe>
    3646:	2208      	movs	r2, #8
    3648:	e7fa      	b.n	3640 <usart_init+0x21c>
    364a:	2208      	movs	r2, #8
    364c:	e7f5      	b.n	363a <usart_init+0x216>
    364e:	7fd2      	ldrb	r2, [r2, #31]
    3650:	2a00      	cmp	r2, #0
    3652:	d008      	beq.n	3666 <usart_init+0x242>
    3654:	9b03      	ldr	r3, [sp, #12]
    3656:	aa0e      	add	r2, sp, #56	; 0x38
    3658:	9300      	str	r3, [sp, #0]
    365a:	002b      	movs	r3, r5
    365c:	6aa1      	ldr	r1, [r4, #40]	; 0x28
    365e:	6a20      	ldr	r0, [r4, #32]
    3660:	4d15      	ldr	r5, [pc, #84]	; (36b8 <usart_init+0x294>)
    3662:	47a8      	blx	r5
    3664:	e761      	b.n	352a <usart_init+0x106>
    3666:	6a22      	ldr	r2, [r4, #32]
    3668:	b2d8      	uxtb	r0, r3
    366a:	4b0e      	ldr	r3, [pc, #56]	; (36a4 <usart_init+0x280>)
    366c:	920b      	str	r2, [sp, #44]	; 0x2c
    366e:	4798      	blx	r3
    3670:	9b03      	ldr	r3, [sp, #12]
    3672:	0001      	movs	r1, r0
    3674:	9300      	str	r3, [sp, #0]
    3676:	aa0e      	add	r2, sp, #56	; 0x38
    3678:	002b      	movs	r3, r5
    367a:	980b      	ldr	r0, [sp, #44]	; 0x2c
    367c:	e7f0      	b.n	3660 <usart_init+0x23c>
    367e:	7ee1      	ldrb	r1, [r4, #27]
    3680:	2900      	cmp	r1, #0
    3682:	d100      	bne.n	3686 <usart_init+0x262>
    3684:	e78d      	b.n	35a2 <usart_init+0x17e>
    3686:	2180      	movs	r1, #128	; 0x80
    3688:	04c9      	lsls	r1, r1, #19
    368a:	430b      	orrs	r3, r1
    368c:	e789      	b.n	35a2 <usart_init+0x17e>
    368e:	46c0      	nop			; (mov r8, r8)
    3690:	00003ed9 	.word	0x00003ed9
    3694:	40000400 	.word	0x40000400
    3698:	00004fd9 	.word	0x00004fd9
    369c:	00004f79 	.word	0x00004f79
    36a0:	00003d51 	.word	0x00003d51
    36a4:	00004ffd 	.word	0x00004ffd
    36a8:	00003c91 	.word	0x00003c91
    36ac:	41002000 	.word	0x41002000
    36b0:	00003d95 	.word	0x00003d95
    36b4:	000050b1 	.word	0x000050b1
    36b8:	00003cb9 	.word	0x00003cb9

000036bc <usart_write_wait>:
    36bc:	79c2      	ldrb	r2, [r0, #7]
    36be:	231c      	movs	r3, #28
    36c0:	2a00      	cmp	r2, #0
    36c2:	d00a      	beq.n	36da <usart_write_wait+0x1e>
    36c4:	6802      	ldr	r2, [r0, #0]
    36c6:	3b17      	subs	r3, #23
    36c8:	7e10      	ldrb	r0, [r2, #24]
    36ca:	07c0      	lsls	r0, r0, #31
    36cc:	d505      	bpl.n	36da <usart_write_wait+0x1e>
    36ce:	8511      	strh	r1, [r2, #40]	; 0x28
    36d0:	3b03      	subs	r3, #3
    36d2:	7e11      	ldrb	r1, [r2, #24]
    36d4:	4219      	tst	r1, r3
    36d6:	d0fc      	beq.n	36d2 <usart_write_wait+0x16>
    36d8:	2300      	movs	r3, #0
    36da:	0018      	movs	r0, r3
    36dc:	4770      	bx	lr

000036de <usart_read_wait>:
    36de:	b510      	push	{r4, lr}
    36e0:	7982      	ldrb	r2, [r0, #6]
    36e2:	231c      	movs	r3, #28
    36e4:	2a00      	cmp	r2, #0
    36e6:	d00e      	beq.n	3706 <usart_read_wait+0x28>
    36e8:	6802      	ldr	r2, [r0, #0]
    36ea:	2004      	movs	r0, #4
    36ec:	7e14      	ldrb	r4, [r2, #24]
    36ee:	3b17      	subs	r3, #23
    36f0:	4204      	tst	r4, r0
    36f2:	d008      	beq.n	3706 <usart_read_wait+0x28>
    36f4:	8b53      	ldrh	r3, [r2, #26]
    36f6:	b2db      	uxtb	r3, r3
    36f8:	069c      	lsls	r4, r3, #26
    36fa:	d01d      	beq.n	3738 <usart_read_wait+0x5a>
    36fc:	2402      	movs	r4, #2
    36fe:	4223      	tst	r3, r4
    3700:	d003      	beq.n	370a <usart_read_wait+0x2c>
    3702:	231a      	movs	r3, #26
    3704:	8354      	strh	r4, [r2, #26]
    3706:	0018      	movs	r0, r3
    3708:	bd10      	pop	{r4, pc}
    370a:	4203      	tst	r3, r0
    370c:	d002      	beq.n	3714 <usart_read_wait+0x36>
    370e:	8350      	strh	r0, [r2, #26]
    3710:	231e      	movs	r3, #30
    3712:	e7f8      	b.n	3706 <usart_read_wait+0x28>
    3714:	2001      	movs	r0, #1
    3716:	4203      	tst	r3, r0
    3718:	d002      	beq.n	3720 <usart_read_wait+0x42>
    371a:	8350      	strh	r0, [r2, #26]
    371c:	2313      	movs	r3, #19
    371e:	e7f2      	b.n	3706 <usart_read_wait+0x28>
    3720:	2010      	movs	r0, #16
    3722:	4203      	tst	r3, r0
    3724:	d002      	beq.n	372c <usart_read_wait+0x4e>
    3726:	8350      	strh	r0, [r2, #26]
    3728:	2342      	movs	r3, #66	; 0x42
    372a:	e7ec      	b.n	3706 <usart_read_wait+0x28>
    372c:	2020      	movs	r0, #32
    372e:	4203      	tst	r3, r0
    3730:	d002      	beq.n	3738 <usart_read_wait+0x5a>
    3732:	8350      	strh	r0, [r2, #26]
    3734:	2341      	movs	r3, #65	; 0x41
    3736:	e7e6      	b.n	3706 <usart_read_wait+0x28>
    3738:	8d13      	ldrh	r3, [r2, #40]	; 0x28
    373a:	800b      	strh	r3, [r1, #0]
    373c:	2300      	movs	r3, #0
    373e:	e7e2      	b.n	3706 <usart_read_wait+0x28>

00003740 <usart_write_buffer_wait>:
    3740:	b5f7      	push	{r0, r1, r2, r4, r5, r6, r7, lr}
    3742:	0006      	movs	r6, r0
    3744:	000f      	movs	r7, r1
    3746:	0015      	movs	r5, r2
    3748:	2017      	movs	r0, #23
    374a:	2a00      	cmp	r2, #0
    374c:	d024      	beq.n	3798 <usart_write_buffer_wait+0x58>
    374e:	79f3      	ldrb	r3, [r6, #7]
    3750:	3005      	adds	r0, #5
    3752:	2b00      	cmp	r3, #0
    3754:	d020      	beq.n	3798 <usart_write_buffer_wait+0x58>
    3756:	2400      	movs	r4, #0
    3758:	6833      	ldr	r3, [r6, #0]
    375a:	9301      	str	r3, [sp, #4]
    375c:	2380      	movs	r3, #128	; 0x80
    375e:	025b      	lsls	r3, r3, #9
    3760:	2101      	movs	r1, #1
    3762:	9a01      	ldr	r2, [sp, #4]
    3764:	7e12      	ldrb	r2, [r2, #24]
    3766:	420a      	tst	r2, r1
    3768:	d017      	beq.n	379a <usart_write_buffer_wait+0x5a>
    376a:	7972      	ldrb	r2, [r6, #5]
    376c:	1863      	adds	r3, r4, r1
    376e:	b29b      	uxth	r3, r3
    3770:	5d39      	ldrb	r1, [r7, r4]
    3772:	2a01      	cmp	r2, #1
    3774:	d016      	beq.n	37a4 <usart_write_buffer_wait+0x64>
    3776:	001c      	movs	r4, r3
    3778:	b289      	uxth	r1, r1
    377a:	3d01      	subs	r5, #1
    377c:	0030      	movs	r0, r6
    377e:	4b0e      	ldr	r3, [pc, #56]	; (37b8 <usart_write_buffer_wait+0x78>)
    3780:	b2ad      	uxth	r5, r5
    3782:	4798      	blx	r3
    3784:	2d00      	cmp	r5, #0
    3786:	d1e9      	bne.n	375c <usart_write_buffer_wait+0x1c>
    3788:	2380      	movs	r3, #128	; 0x80
    378a:	2202      	movs	r2, #2
    378c:	025b      	lsls	r3, r3, #9
    378e:	9901      	ldr	r1, [sp, #4]
    3790:	7e09      	ldrb	r1, [r1, #24]
    3792:	4211      	tst	r1, r2
    3794:	d00c      	beq.n	37b0 <usart_write_buffer_wait+0x70>
    3796:	2000      	movs	r0, #0
    3798:	bdfe      	pop	{r1, r2, r3, r4, r5, r6, r7, pc}
    379a:	3b01      	subs	r3, #1
    379c:	2b00      	cmp	r3, #0
    379e:	d1df      	bne.n	3760 <usart_write_buffer_wait+0x20>
    37a0:	2012      	movs	r0, #18
    37a2:	e7f9      	b.n	3798 <usart_write_buffer_wait+0x58>
    37a4:	5cfb      	ldrb	r3, [r7, r3]
    37a6:	3402      	adds	r4, #2
    37a8:	021b      	lsls	r3, r3, #8
    37aa:	b2a4      	uxth	r4, r4
    37ac:	4319      	orrs	r1, r3
    37ae:	e7e4      	b.n	377a <usart_write_buffer_wait+0x3a>
    37b0:	3b01      	subs	r3, #1
    37b2:	2b00      	cmp	r3, #0
    37b4:	d1eb      	bne.n	378e <usart_write_buffer_wait+0x4e>
    37b6:	e7f3      	b.n	37a0 <usart_write_buffer_wait+0x60>
    37b8:	000036bd 	.word	0x000036bd

000037bc <spi_init>:
    37bc:	b5f0      	push	{r4, r5, r6, r7, lr}
    37be:	0005      	movs	r5, r0
    37c0:	6029      	str	r1, [r5, #0]
    37c2:	000e      	movs	r6, r1
    37c4:	0014      	movs	r4, r2
    37c6:	680a      	ldr	r2, [r1, #0]
    37c8:	2102      	movs	r1, #2
    37ca:	b087      	sub	sp, #28
    37cc:	231c      	movs	r3, #28
    37ce:	420a      	tst	r2, r1
    37d0:	d000      	beq.n	37d4 <spi_init+0x18>
    37d2:	e0d3      	b.n	397c <spi_init+0x1c0>
    37d4:	2701      	movs	r7, #1
    37d6:	6832      	ldr	r2, [r6, #0]
    37d8:	3b17      	subs	r3, #23
    37da:	423a      	tst	r2, r7
    37dc:	d000      	beq.n	37e0 <spi_init+0x24>
    37de:	e0cd      	b.n	397c <spi_init+0x1c0>
    37e0:	4b6e      	ldr	r3, [pc, #440]	; (399c <spi_init+0x1e0>)
    37e2:	0030      	movs	r0, r6
    37e4:	4798      	blx	r3
    37e6:	4b6e      	ldr	r3, [pc, #440]	; (39a0 <spi_init+0x1e4>)
    37e8:	2805      	cmp	r0, #5
    37ea:	d100      	bne.n	37ee <spi_init+0x32>
    37ec:	e0c9      	b.n	3982 <spi_init+0x1c6>
    37ee:	4087      	lsls	r7, r0
    37f0:	0002      	movs	r2, r0
    37f2:	69d9      	ldr	r1, [r3, #28]
    37f4:	3212      	adds	r2, #18
    37f6:	430f      	orrs	r7, r1
    37f8:	61df      	str	r7, [r3, #28]
    37fa:	4669      	mov	r1, sp
    37fc:	1d63      	adds	r3, r4, #5
    37fe:	7fdb      	ldrb	r3, [r3, #31]
    3800:	b2d7      	uxtb	r7, r2
    3802:	700b      	strb	r3, [r1, #0]
    3804:	0038      	movs	r0, r7
    3806:	4b67      	ldr	r3, [pc, #412]	; (39a4 <spi_init+0x1e8>)
    3808:	4798      	blx	r3
    380a:	0038      	movs	r0, r7
    380c:	4b66      	ldr	r3, [pc, #408]	; (39a8 <spi_init+0x1ec>)
    380e:	4798      	blx	r3
    3810:	1d63      	adds	r3, r4, #5
    3812:	7fd8      	ldrb	r0, [r3, #31]
    3814:	2100      	movs	r1, #0
    3816:	4b65      	ldr	r3, [pc, #404]	; (39ac <spi_init+0x1f0>)
    3818:	4798      	blx	r3
    381a:	7823      	ldrb	r3, [r4, #0]
    381c:	2b01      	cmp	r3, #1
    381e:	d103      	bne.n	3828 <spi_init+0x6c>
    3820:	6832      	ldr	r2, [r6, #0]
    3822:	330b      	adds	r3, #11
    3824:	4313      	orrs	r3, r2
    3826:	6033      	str	r3, [r6, #0]
    3828:	7823      	ldrb	r3, [r4, #0]
    382a:	2b00      	cmp	r3, #0
    382c:	d103      	bne.n	3836 <spi_init+0x7a>
    382e:	6832      	ldr	r2, [r6, #0]
    3830:	3308      	adds	r3, #8
    3832:	4313      	orrs	r3, r2
    3834:	6033      	str	r3, [r6, #0]
    3836:	002b      	movs	r3, r5
    3838:	002a      	movs	r2, r5
    383a:	2600      	movs	r6, #0
    383c:	330c      	adds	r3, #12
    383e:	3228      	adds	r2, #40	; 0x28
    3840:	c340      	stmia	r3!, {r6}
    3842:	429a      	cmp	r2, r3
    3844:	d1fc      	bne.n	3840 <spi_init+0x84>
    3846:	002b      	movs	r3, r5
    3848:	3336      	adds	r3, #54	; 0x36
    384a:	86ae      	strh	r6, [r5, #52]	; 0x34
    384c:	62ee      	str	r6, [r5, #44]	; 0x2c
    384e:	862e      	strh	r6, [r5, #48]	; 0x30
    3850:	62ae      	str	r6, [r5, #40]	; 0x28
    3852:	701e      	strb	r6, [r3, #0]
    3854:	705e      	strb	r6, [r3, #1]
    3856:	709e      	strb	r6, [r3, #2]
    3858:	2303      	movs	r3, #3
    385a:	6828      	ldr	r0, [r5, #0]
    385c:	726b      	strb	r3, [r5, #9]
    385e:	4b4f      	ldr	r3, [pc, #316]	; (399c <spi_init+0x1e0>)
    3860:	712e      	strb	r6, [r5, #4]
    3862:	4798      	blx	r3
    3864:	0007      	movs	r7, r0
    3866:	4b52      	ldr	r3, [pc, #328]	; (39b0 <spi_init+0x1f4>)
    3868:	4952      	ldr	r1, [pc, #328]	; (39b4 <spi_init+0x1f8>)
    386a:	4798      	blx	r3
    386c:	4b52      	ldr	r3, [pc, #328]	; (39b8 <spi_init+0x1fc>)
    386e:	00bf      	lsls	r7, r7, #2
    3870:	466a      	mov	r2, sp
    3872:	50fd      	str	r5, [r7, r3]
    3874:	2380      	movs	r3, #128	; 0x80
    3876:	7113      	strb	r3, [r2, #4]
    3878:	2301      	movs	r3, #1
    387a:	7193      	strb	r3, [r2, #6]
    387c:	7823      	ldrb	r3, [r4, #0]
    387e:	682f      	ldr	r7, [r5, #0]
    3880:	7156      	strb	r6, [r2, #5]
    3882:	71d6      	strb	r6, [r2, #7]
    3884:	2b00      	cmp	r3, #0
    3886:	d100      	bne.n	388a <spi_init+0xce>
    3888:	7196      	strb	r6, [r2, #6]
    388a:	2600      	movs	r6, #0
    388c:	6aa3      	ldr	r3, [r4, #40]	; 0x28
    388e:	9302      	str	r3, [sp, #8]
    3890:	6ae3      	ldr	r3, [r4, #44]	; 0x2c
    3892:	9303      	str	r3, [sp, #12]
    3894:	6b23      	ldr	r3, [r4, #48]	; 0x30
    3896:	9304      	str	r3, [sp, #16]
    3898:	6b63      	ldr	r3, [r4, #52]	; 0x34
    389a:	9305      	str	r3, [sp, #20]
    389c:	00b3      	lsls	r3, r6, #2
    389e:	aa02      	add	r2, sp, #8
    38a0:	5898      	ldr	r0, [r3, r2]
    38a2:	b2f1      	uxtb	r1, r6
    38a4:	2800      	cmp	r0, #0
    38a6:	d102      	bne.n	38ae <spi_init+0xf2>
    38a8:	0038      	movs	r0, r7
    38aa:	4b44      	ldr	r3, [pc, #272]	; (39bc <spi_init+0x200>)
    38ac:	4798      	blx	r3
    38ae:	1c43      	adds	r3, r0, #1
    38b0:	d006      	beq.n	38c0 <spi_init+0x104>
    38b2:	466b      	mov	r3, sp
    38b4:	7118      	strb	r0, [r3, #4]
    38b6:	0c00      	lsrs	r0, r0, #16
    38b8:	b2c0      	uxtb	r0, r0
    38ba:	a901      	add	r1, sp, #4
    38bc:	4b40      	ldr	r3, [pc, #256]	; (39c0 <spi_init+0x204>)
    38be:	4798      	blx	r3
    38c0:	3601      	adds	r6, #1
    38c2:	2e04      	cmp	r6, #4
    38c4:	d1ea      	bne.n	389c <spi_init+0xe0>
    38c6:	7823      	ldrb	r3, [r4, #0]
    38c8:	716b      	strb	r3, [r5, #5]
    38ca:	7c23      	ldrb	r3, [r4, #16]
    38cc:	71ab      	strb	r3, [r5, #6]
    38ce:	7ca3      	ldrb	r3, [r4, #18]
    38d0:	71eb      	strb	r3, [r5, #7]
    38d2:	7d23      	ldrb	r3, [r4, #20]
    38d4:	722b      	strb	r3, [r5, #8]
    38d6:	466b      	mov	r3, sp
    38d8:	1c9e      	adds	r6, r3, #2
    38da:	2300      	movs	r3, #0
    38dc:	8033      	strh	r3, [r6, #0]
    38de:	7823      	ldrb	r3, [r4, #0]
    38e0:	2b01      	cmp	r3, #1
    38e2:	d110      	bne.n	3906 <spi_init+0x14a>
    38e4:	4b2d      	ldr	r3, [pc, #180]	; (399c <spi_init+0x1e0>)
    38e6:	6828      	ldr	r0, [r5, #0]
    38e8:	4798      	blx	r3
    38ea:	3012      	adds	r0, #18
    38ec:	4b35      	ldr	r3, [pc, #212]	; (39c4 <spi_init+0x208>)
    38ee:	b2c0      	uxtb	r0, r0
    38f0:	4798      	blx	r3
    38f2:	4b35      	ldr	r3, [pc, #212]	; (39c8 <spi_init+0x20c>)
    38f4:	0001      	movs	r1, r0
    38f6:	0032      	movs	r2, r6
    38f8:	69a0      	ldr	r0, [r4, #24]
    38fa:	4798      	blx	r3
    38fc:	2317      	movs	r3, #23
    38fe:	2800      	cmp	r0, #0
    3900:	d13c      	bne.n	397c <spi_init+0x1c0>
    3902:	7833      	ldrb	r3, [r6, #0]
    3904:	733b      	strb	r3, [r7, #12]
    3906:	7823      	ldrb	r3, [r4, #0]
    3908:	2b00      	cmp	r3, #0
    390a:	d143      	bne.n	3994 <spi_init+0x1d8>
    390c:	7fe1      	ldrb	r1, [r4, #31]
    390e:	7fa5      	ldrb	r5, [r4, #30]
    3910:	6a7b      	ldr	r3, [r7, #36]	; 0x24
    3912:	0409      	lsls	r1, r1, #16
    3914:	4329      	orrs	r1, r5
    3916:	4319      	orrs	r1, r3
    3918:	69a0      	ldr	r0, [r4, #24]
    391a:	8ba2      	ldrh	r2, [r4, #28]
    391c:	1c63      	adds	r3, r4, #1
    391e:	6279      	str	r1, [r7, #36]	; 0x24
    3920:	7fdb      	ldrb	r3, [r3, #31]
    3922:	2b00      	cmp	r3, #0
    3924:	d133      	bne.n	398e <spi_init+0x1d2>
    3926:	0013      	movs	r3, r2
    3928:	68a1      	ldr	r1, [r4, #8]
    392a:	6862      	ldr	r2, [r4, #4]
    392c:	430a      	orrs	r2, r1
    392e:	68e1      	ldr	r1, [r4, #12]
    3930:	430a      	orrs	r2, r1
    3932:	7c21      	ldrb	r1, [r4, #16]
    3934:	4302      	orrs	r2, r0
    3936:	430b      	orrs	r3, r1
    3938:	7c61      	ldrb	r1, [r4, #17]
    393a:	2900      	cmp	r1, #0
    393c:	d103      	bne.n	3946 <spi_init+0x18a>
    393e:	4923      	ldr	r1, [pc, #140]	; (39cc <spi_init+0x210>)
    3940:	7889      	ldrb	r1, [r1, #2]
    3942:	0789      	lsls	r1, r1, #30
    3944:	d501      	bpl.n	394a <spi_init+0x18e>
    3946:	2180      	movs	r1, #128	; 0x80
    3948:	430a      	orrs	r2, r1
    394a:	7ca1      	ldrb	r1, [r4, #18]
    394c:	2900      	cmp	r1, #0
    394e:	d002      	beq.n	3956 <spi_init+0x19a>
    3950:	2180      	movs	r1, #128	; 0x80
    3952:	0289      	lsls	r1, r1, #10
    3954:	430b      	orrs	r3, r1
    3956:	7ce1      	ldrb	r1, [r4, #19]
    3958:	2900      	cmp	r1, #0
    395a:	d002      	beq.n	3962 <spi_init+0x1a6>
    395c:	2180      	movs	r1, #128	; 0x80
    395e:	0089      	lsls	r1, r1, #2
    3960:	430b      	orrs	r3, r1
    3962:	7d21      	ldrb	r1, [r4, #20]
    3964:	2900      	cmp	r1, #0
    3966:	d002      	beq.n	396e <spi_init+0x1b2>
    3968:	2180      	movs	r1, #128	; 0x80
    396a:	0189      	lsls	r1, r1, #6
    396c:	430b      	orrs	r3, r1
    396e:	6839      	ldr	r1, [r7, #0]
    3970:	430a      	orrs	r2, r1
    3972:	603a      	str	r2, [r7, #0]
    3974:	687a      	ldr	r2, [r7, #4]
    3976:	4313      	orrs	r3, r2
    3978:	607b      	str	r3, [r7, #4]
    397a:	2300      	movs	r3, #0
    397c:	0018      	movs	r0, r3
    397e:	b007      	add	sp, #28
    3980:	bdf0      	pop	{r4, r5, r6, r7, pc}
    3982:	2102      	movs	r1, #2
    3984:	6a1a      	ldr	r2, [r3, #32]
    3986:	430a      	orrs	r2, r1
    3988:	621a      	str	r2, [r3, #32]
    398a:	2218      	movs	r2, #24
    398c:	e735      	b.n	37fa <spi_init+0x3e>
    398e:	2340      	movs	r3, #64	; 0x40
    3990:	4313      	orrs	r3, r2
    3992:	e7c9      	b.n	3928 <spi_init+0x16c>
    3994:	2300      	movs	r3, #0
    3996:	0018      	movs	r0, r3
    3998:	e7c6      	b.n	3928 <spi_init+0x16c>
    399a:	46c0      	nop			; (mov r8, r8)
    399c:	00003ed9 	.word	0x00003ed9
    39a0:	40000400 	.word	0x40000400
    39a4:	00004fd9 	.word	0x00004fd9
    39a8:	00004f79 	.word	0x00004f79
    39ac:	00003d51 	.word	0x00003d51
    39b0:	00003f0d 	.word	0x00003f0d
    39b4:	00003a29 	.word	0x00003a29
    39b8:	20000cd4 	.word	0x20000cd4
    39bc:	00003d95 	.word	0x00003d95
    39c0:	000050b1 	.word	0x000050b1
    39c4:	00004ffd 	.word	0x00004ffd
    39c8:	00003c91 	.word	0x00003c91
    39cc:	41002000 	.word	0x41002000

000039d0 <spi_register_callback>:
    39d0:	1c93      	adds	r3, r2, #2
    39d2:	009b      	lsls	r3, r3, #2
    39d4:	18c3      	adds	r3, r0, r3
    39d6:	6059      	str	r1, [r3, #4]
    39d8:	2301      	movs	r3, #1
    39da:	4093      	lsls	r3, r2
    39dc:	001a      	movs	r2, r3
    39de:	3036      	adds	r0, #54	; 0x36
    39e0:	7803      	ldrb	r3, [r0, #0]
    39e2:	4313      	orrs	r3, r2
    39e4:	7003      	strb	r3, [r0, #0]
    39e6:	4770      	bx	lr

000039e8 <spi_transceive_buffer_job>:
    39e8:	b570      	push	{r4, r5, r6, lr}
    39ea:	2417      	movs	r4, #23
    39ec:	2b00      	cmp	r3, #0
    39ee:	d018      	beq.n	3a22 <spi_transceive_buffer_job+0x3a>
    39f0:	79c5      	ldrb	r5, [r0, #7]
    39f2:	3405      	adds	r4, #5
    39f4:	2d00      	cmp	r5, #0
    39f6:	d014      	beq.n	3a22 <spi_transceive_buffer_job+0x3a>
    39f8:	0005      	movs	r5, r0
    39fa:	3538      	adds	r5, #56	; 0x38
    39fc:	782e      	ldrb	r6, [r5, #0]
    39fe:	3c17      	subs	r4, #23
    3a00:	42a6      	cmp	r6, r4
    3a02:	d00e      	beq.n	3a22 <spi_transceive_buffer_job+0x3a>
    3a04:	6282      	str	r2, [r0, #40]	; 0x28
    3a06:	2202      	movs	r2, #2
    3a08:	8683      	strh	r3, [r0, #52]	; 0x34
    3a0a:	62c1      	str	r1, [r0, #44]	; 0x2c
    3a0c:	8603      	strh	r3, [r0, #48]	; 0x30
    3a0e:	702c      	strb	r4, [r5, #0]
    3a10:	6803      	ldr	r3, [r0, #0]
    3a12:	7242      	strb	r2, [r0, #9]
    3a14:	759c      	strb	r4, [r3, #22]
    3a16:	2400      	movs	r4, #0
    3a18:	7941      	ldrb	r1, [r0, #5]
    3a1a:	42a1      	cmp	r1, r4
    3a1c:	d101      	bne.n	3a22 <spi_transceive_buffer_job+0x3a>
    3a1e:	761a      	strb	r2, [r3, #24]
    3a20:	759a      	strb	r2, [r3, #22]
    3a22:	0020      	movs	r0, r4
    3a24:	bd70      	pop	{r4, r5, r6, pc}
	...

00003a28 <_spi_interrupt_handler>:
    3a28:	b5f8      	push	{r3, r4, r5, r6, r7, lr}
    3a2a:	4b7c      	ldr	r3, [pc, #496]	; (3c1c <_spi_interrupt_handler+0x1f4>)
    3a2c:	0080      	lsls	r0, r0, #2
    3a2e:	58c4      	ldr	r4, [r0, r3]
    3a30:	0023      	movs	r3, r4
    3a32:	0022      	movs	r2, r4
    3a34:	3337      	adds	r3, #55	; 0x37
    3a36:	3236      	adds	r2, #54	; 0x36
    3a38:	6825      	ldr	r5, [r4, #0]
    3a3a:	781b      	ldrb	r3, [r3, #0]
    3a3c:	7816      	ldrb	r6, [r2, #0]
    3a3e:	401e      	ands	r6, r3
    3a40:	7e2b      	ldrb	r3, [r5, #24]
    3a42:	7daf      	ldrb	r7, [r5, #22]
    3a44:	401f      	ands	r7, r3
    3a46:	07fb      	lsls	r3, r7, #31
    3a48:	d539      	bpl.n	3abe <_spi_interrupt_handler+0x96>
    3a4a:	7962      	ldrb	r2, [r4, #5]
    3a4c:	0013      	movs	r3, r2
    3a4e:	2a01      	cmp	r2, #1
    3a50:	d133      	bne.n	3aba <_spi_interrupt_handler+0x92>
    3a52:	7a63      	ldrb	r3, [r4, #9]
    3a54:	2b00      	cmp	r3, #0
    3a56:	d10d      	bne.n	3a74 <_spi_interrupt_handler+0x4c>
    3a58:	4b71      	ldr	r3, [pc, #452]	; (3c20 <_spi_interrupt_handler+0x1f8>)
    3a5a:	881b      	ldrh	r3, [r3, #0]
    3a5c:	62ab      	str	r3, [r5, #40]	; 0x28
    3a5e:	8e63      	ldrh	r3, [r4, #50]	; 0x32
    3a60:	3b01      	subs	r3, #1
    3a62:	b29b      	uxth	r3, r3
    3a64:	8663      	strh	r3, [r4, #50]	; 0x32
    3a66:	8e63      	ldrh	r3, [r4, #50]	; 0x32
    3a68:	2b00      	cmp	r3, #0
    3a6a:	d100      	bne.n	3a6e <_spi_interrupt_handler+0x46>
    3a6c:	752a      	strb	r2, [r5, #20]
    3a6e:	7963      	ldrb	r3, [r4, #5]
    3a70:	2b01      	cmp	r3, #1
    3a72:	d122      	bne.n	3aba <_spi_interrupt_handler+0x92>
    3a74:	7a63      	ldrb	r3, [r4, #9]
    3a76:	2b00      	cmp	r3, #0
    3a78:	d021      	beq.n	3abe <_spi_interrupt_handler+0x96>
    3a7a:	6ae1      	ldr	r1, [r4, #44]	; 0x2c
    3a7c:	6822      	ldr	r2, [r4, #0]
    3a7e:	1c48      	adds	r0, r1, #1
    3a80:	780b      	ldrb	r3, [r1, #0]
    3a82:	62e0      	str	r0, [r4, #44]	; 0x2c
    3a84:	79a0      	ldrb	r0, [r4, #6]
    3a86:	b2db      	uxtb	r3, r3
    3a88:	2801      	cmp	r0, #1
    3a8a:	d100      	bne.n	3a8e <_spi_interrupt_handler+0x66>
    3a8c:	e074      	b.n	3b78 <_spi_interrupt_handler+0x150>
    3a8e:	b29b      	uxth	r3, r3
    3a90:	05db      	lsls	r3, r3, #23
    3a92:	0ddb      	lsrs	r3, r3, #23
    3a94:	6293      	str	r3, [r2, #40]	; 0x28
    3a96:	8ea3      	ldrh	r3, [r4, #52]	; 0x34
    3a98:	3b01      	subs	r3, #1
    3a9a:	b29b      	uxth	r3, r3
    3a9c:	86a3      	strh	r3, [r4, #52]	; 0x34
    3a9e:	8ea3      	ldrh	r3, [r4, #52]	; 0x34
    3aa0:	2b00      	cmp	r3, #0
    3aa2:	d10c      	bne.n	3abe <_spi_interrupt_handler+0x96>
    3aa4:	3301      	adds	r3, #1
    3aa6:	752b      	strb	r3, [r5, #20]
    3aa8:	7a63      	ldrb	r3, [r4, #9]
    3aaa:	2b01      	cmp	r3, #1
    3aac:	d107      	bne.n	3abe <_spi_interrupt_handler+0x96>
    3aae:	79e3      	ldrb	r3, [r4, #7]
    3ab0:	2b00      	cmp	r3, #0
    3ab2:	d104      	bne.n	3abe <_spi_interrupt_handler+0x96>
    3ab4:	3302      	adds	r3, #2
    3ab6:	75ab      	strb	r3, [r5, #22]
    3ab8:	e001      	b.n	3abe <_spi_interrupt_handler+0x96>
    3aba:	2b00      	cmp	r3, #0
    3abc:	d0da      	beq.n	3a74 <_spi_interrupt_handler+0x4c>
    3abe:	2104      	movs	r1, #4
    3ac0:	420f      	tst	r7, r1
    3ac2:	d015      	beq.n	3af0 <_spi_interrupt_handler+0xc8>
    3ac4:	8b6b      	ldrh	r3, [r5, #26]
    3ac6:	420b      	tst	r3, r1
    3ac8:	d05c      	beq.n	3b84 <_spi_interrupt_handler+0x15c>
    3aca:	7a63      	ldrb	r3, [r4, #9]
    3acc:	2b01      	cmp	r3, #1
    3ace:	d00c      	beq.n	3aea <_spi_interrupt_handler+0xc2>
    3ad0:	0023      	movs	r3, r4
    3ad2:	221e      	movs	r2, #30
    3ad4:	3338      	adds	r3, #56	; 0x38
    3ad6:	701a      	strb	r2, [r3, #0]
    3ad8:	2303      	movs	r3, #3
    3ada:	7263      	strb	r3, [r4, #9]
    3adc:	3302      	adds	r3, #2
    3ade:	752b      	strb	r3, [r5, #20]
    3ae0:	0733      	lsls	r3, r6, #28
    3ae2:	d502      	bpl.n	3aea <_spi_interrupt_handler+0xc2>
    3ae4:	0020      	movs	r0, r4
    3ae6:	69a3      	ldr	r3, [r4, #24]
    3ae8:	4798      	blx	r3
    3aea:	6aab      	ldr	r3, [r5, #40]	; 0x28
    3aec:	2304      	movs	r3, #4
    3aee:	836b      	strh	r3, [r5, #26]
    3af0:	2202      	movs	r2, #2
    3af2:	4217      	tst	r7, r2
    3af4:	d027      	beq.n	3b46 <_spi_interrupt_handler+0x11e>
    3af6:	7963      	ldrb	r3, [r4, #5]
    3af8:	2b00      	cmp	r3, #0
    3afa:	d10e      	bne.n	3b1a <_spi_interrupt_handler+0xf2>
    3afc:	2107      	movs	r1, #7
    3afe:	7529      	strb	r1, [r5, #20]
    3b00:	762a      	strb	r2, [r5, #24]
    3b02:	3201      	adds	r2, #1
    3b04:	7262      	strb	r2, [r4, #9]
    3b06:	0022      	movs	r2, r4
    3b08:	3238      	adds	r2, #56	; 0x38
    3b0a:	86a3      	strh	r3, [r4, #52]	; 0x34
    3b0c:	8623      	strh	r3, [r4, #48]	; 0x30
    3b0e:	7013      	strb	r3, [r2, #0]
    3b10:	06f3      	lsls	r3, r6, #27
    3b12:	d502      	bpl.n	3b1a <_spi_interrupt_handler+0xf2>
    3b14:	0020      	movs	r0, r4
    3b16:	69e3      	ldr	r3, [r4, #28]
    3b18:	4798      	blx	r3
    3b1a:	7963      	ldrb	r3, [r4, #5]
    3b1c:	2b01      	cmp	r3, #1
    3b1e:	d112      	bne.n	3b46 <_spi_interrupt_handler+0x11e>
    3b20:	7a63      	ldrb	r3, [r4, #9]
    3b22:	b2db      	uxtb	r3, r3
    3b24:	2b01      	cmp	r3, #1
    3b26:	d10e      	bne.n	3b46 <_spi_interrupt_handler+0x11e>
    3b28:	79e2      	ldrb	r2, [r4, #7]
    3b2a:	2a00      	cmp	r2, #0
    3b2c:	d10b      	bne.n	3b46 <_spi_interrupt_handler+0x11e>
    3b2e:	2102      	movs	r1, #2
    3b30:	7529      	strb	r1, [r5, #20]
    3b32:	3101      	adds	r1, #1
    3b34:	7261      	strb	r1, [r4, #9]
    3b36:	0021      	movs	r1, r4
    3b38:	3138      	adds	r1, #56	; 0x38
    3b3a:	700a      	strb	r2, [r1, #0]
    3b3c:	421e      	tst	r6, r3
    3b3e:	d002      	beq.n	3b46 <_spi_interrupt_handler+0x11e>
    3b40:	0020      	movs	r0, r4
    3b42:	68e3      	ldr	r3, [r4, #12]
    3b44:	4798      	blx	r3
    3b46:	2308      	movs	r3, #8
    3b48:	421f      	tst	r7, r3
    3b4a:	d009      	beq.n	3b60 <_spi_interrupt_handler+0x138>
    3b4c:	7962      	ldrb	r2, [r4, #5]
    3b4e:	2a00      	cmp	r2, #0
    3b50:	d106      	bne.n	3b60 <_spi_interrupt_handler+0x138>
    3b52:	752b      	strb	r3, [r5, #20]
    3b54:	762b      	strb	r3, [r5, #24]
    3b56:	06b3      	lsls	r3, r6, #26
    3b58:	d502      	bpl.n	3b60 <_spi_interrupt_handler+0x138>
    3b5a:	0020      	movs	r0, r4
    3b5c:	6a23      	ldr	r3, [r4, #32]
    3b5e:	4798      	blx	r3
    3b60:	b27f      	sxtb	r7, r7
    3b62:	2f00      	cmp	r7, #0
    3b64:	da07      	bge.n	3b76 <_spi_interrupt_handler+0x14e>
    3b66:	2380      	movs	r3, #128	; 0x80
    3b68:	752b      	strb	r3, [r5, #20]
    3b6a:	762b      	strb	r3, [r5, #24]
    3b6c:	0673      	lsls	r3, r6, #25
    3b6e:	d502      	bpl.n	3b76 <_spi_interrupt_handler+0x14e>
    3b70:	6a63      	ldr	r3, [r4, #36]	; 0x24
    3b72:	0020      	movs	r0, r4
    3b74:	4798      	blx	r3
    3b76:	bdf8      	pop	{r3, r4, r5, r6, r7, pc}
    3b78:	7848      	ldrb	r0, [r1, #1]
    3b7a:	3102      	adds	r1, #2
    3b7c:	0200      	lsls	r0, r0, #8
    3b7e:	4303      	orrs	r3, r0
    3b80:	62e1      	str	r1, [r4, #44]	; 0x2c
    3b82:	e785      	b.n	3a90 <_spi_interrupt_handler+0x68>
    3b84:	7a62      	ldrb	r2, [r4, #9]
    3b86:	6823      	ldr	r3, [r4, #0]
    3b88:	b2d2      	uxtb	r2, r2
    3b8a:	6a9b      	ldr	r3, [r3, #40]	; 0x28
    3b8c:	2a01      	cmp	r2, #1
    3b8e:	d113      	bne.n	3bb8 <_spi_interrupt_handler+0x190>
    3b90:	8e63      	ldrh	r3, [r4, #50]	; 0x32
    3b92:	3b01      	subs	r3, #1
    3b94:	b29b      	uxth	r3, r3
    3b96:	8663      	strh	r3, [r4, #50]	; 0x32
    3b98:	8e63      	ldrh	r3, [r4, #50]	; 0x32
    3b9a:	b29b      	uxth	r3, r3
    3b9c:	2b00      	cmp	r3, #0
    3b9e:	d1a7      	bne.n	3af0 <_spi_interrupt_handler+0xc8>
    3ba0:	7529      	strb	r1, [r5, #20]
    3ba2:	0021      	movs	r1, r4
    3ba4:	3138      	adds	r1, #56	; 0x38
    3ba6:	700b      	strb	r3, [r1, #0]
    3ba8:	3303      	adds	r3, #3
    3baa:	7263      	strb	r3, [r4, #9]
    3bac:	4216      	tst	r6, r2
    3bae:	d09f      	beq.n	3af0 <_spi_interrupt_handler+0xc8>
    3bb0:	0020      	movs	r0, r4
    3bb2:	68e3      	ldr	r3, [r4, #12]
    3bb4:	4798      	blx	r3
    3bb6:	e79b      	b.n	3af0 <_spi_interrupt_handler+0xc8>
    3bb8:	05db      	lsls	r3, r3, #23
    3bba:	6aa1      	ldr	r1, [r4, #40]	; 0x28
    3bbc:	0ddb      	lsrs	r3, r3, #23
    3bbe:	b2da      	uxtb	r2, r3
    3bc0:	700a      	strb	r2, [r1, #0]
    3bc2:	6aa2      	ldr	r2, [r4, #40]	; 0x28
    3bc4:	1c51      	adds	r1, r2, #1
    3bc6:	62a1      	str	r1, [r4, #40]	; 0x28
    3bc8:	79a1      	ldrb	r1, [r4, #6]
    3bca:	2901      	cmp	r1, #1
    3bcc:	d104      	bne.n	3bd8 <_spi_interrupt_handler+0x1b0>
    3bce:	0a1b      	lsrs	r3, r3, #8
    3bd0:	7053      	strb	r3, [r2, #1]
    3bd2:	6aa3      	ldr	r3, [r4, #40]	; 0x28
    3bd4:	3301      	adds	r3, #1
    3bd6:	62a3      	str	r3, [r4, #40]	; 0x28
    3bd8:	8e23      	ldrh	r3, [r4, #48]	; 0x30
    3bda:	3b01      	subs	r3, #1
    3bdc:	b29b      	uxth	r3, r3
    3bde:	8623      	strh	r3, [r4, #48]	; 0x30
    3be0:	8e23      	ldrh	r3, [r4, #48]	; 0x30
    3be2:	b29b      	uxth	r3, r3
    3be4:	2b00      	cmp	r3, #0
    3be6:	d000      	beq.n	3bea <_spi_interrupt_handler+0x1c2>
    3be8:	e782      	b.n	3af0 <_spi_interrupt_handler+0xc8>
    3bea:	0022      	movs	r2, r4
    3bec:	3238      	adds	r2, #56	; 0x38
    3bee:	7013      	strb	r3, [r2, #0]
    3bf0:	3304      	adds	r3, #4
    3bf2:	752b      	strb	r3, [r5, #20]
    3bf4:	7a62      	ldrb	r2, [r4, #9]
    3bf6:	2a02      	cmp	r2, #2
    3bf8:	d105      	bne.n	3c06 <_spi_interrupt_handler+0x1de>
    3bfa:	421e      	tst	r6, r3
    3bfc:	d100      	bne.n	3c00 <_spi_interrupt_handler+0x1d8>
    3bfe:	e777      	b.n	3af0 <_spi_interrupt_handler+0xc8>
    3c00:	0020      	movs	r0, r4
    3c02:	6963      	ldr	r3, [r4, #20]
    3c04:	e7d6      	b.n	3bb4 <_spi_interrupt_handler+0x18c>
    3c06:	7a63      	ldrb	r3, [r4, #9]
    3c08:	2b00      	cmp	r3, #0
    3c0a:	d000      	beq.n	3c0e <_spi_interrupt_handler+0x1e6>
    3c0c:	e770      	b.n	3af0 <_spi_interrupt_handler+0xc8>
    3c0e:	07b3      	lsls	r3, r6, #30
    3c10:	d400      	bmi.n	3c14 <_spi_interrupt_handler+0x1ec>
    3c12:	e76d      	b.n	3af0 <_spi_interrupt_handler+0xc8>
    3c14:	0020      	movs	r0, r4
    3c16:	6923      	ldr	r3, [r4, #16]
    3c18:	e7cc      	b.n	3bb4 <_spi_interrupt_handler+0x18c>
    3c1a:	46c0      	nop			; (mov r8, r8)
    3c1c:	20000cd4 	.word	0x20000cd4
    3c20:	20000cd0 	.word	0x20000cd0

00003c24 <long_division>:
    3c24:	b5f0      	push	{r4, r5, r6, r7, lr}
    3c26:	2400      	movs	r4, #0
    3c28:	b089      	sub	sp, #36	; 0x24
    3c2a:	9200      	str	r2, [sp, #0]
    3c2c:	9301      	str	r3, [sp, #4]
    3c2e:	233f      	movs	r3, #63	; 0x3f
    3c30:	2600      	movs	r6, #0
    3c32:	2700      	movs	r7, #0
    3c34:	0025      	movs	r5, r4
    3c36:	9006      	str	r0, [sp, #24]
    3c38:	9107      	str	r1, [sp, #28]
    3c3a:	9303      	str	r3, [sp, #12]
    3c3c:	9a03      	ldr	r2, [sp, #12]
    3c3e:	4b13      	ldr	r3, [pc, #76]	; (3c8c <long_division+0x68>)
    3c40:	2001      	movs	r0, #1
    3c42:	2100      	movs	r1, #0
    3c44:	4798      	blx	r3
    3c46:	19b6      	adds	r6, r6, r6
    3c48:	417f      	adcs	r7, r7
    3c4a:	9b06      	ldr	r3, [sp, #24]
    3c4c:	9a07      	ldr	r2, [sp, #28]
    3c4e:	4003      	ands	r3, r0
    3c50:	400a      	ands	r2, r1
    3c52:	9604      	str	r6, [sp, #16]
    3c54:	9705      	str	r7, [sp, #20]
    3c56:	4313      	orrs	r3, r2
    3c58:	d003      	beq.n	3c62 <long_division+0x3e>
    3c5a:	2301      	movs	r3, #1
    3c5c:	4333      	orrs	r3, r6
    3c5e:	001e      	movs	r6, r3
    3c60:	9f05      	ldr	r7, [sp, #20]
    3c62:	9b01      	ldr	r3, [sp, #4]
    3c64:	42bb      	cmp	r3, r7
    3c66:	d809      	bhi.n	3c7c <long_division+0x58>
    3c68:	d102      	bne.n	3c70 <long_division+0x4c>
    3c6a:	9b00      	ldr	r3, [sp, #0]
    3c6c:	42b3      	cmp	r3, r6
    3c6e:	d805      	bhi.n	3c7c <long_division+0x58>
    3c70:	9a00      	ldr	r2, [sp, #0]
    3c72:	9b01      	ldr	r3, [sp, #4]
    3c74:	1ab6      	subs	r6, r6, r2
    3c76:	419f      	sbcs	r7, r3
    3c78:	4304      	orrs	r4, r0
    3c7a:	430d      	orrs	r5, r1
    3c7c:	9b03      	ldr	r3, [sp, #12]
    3c7e:	1e5a      	subs	r2, r3, #1
    3c80:	9203      	str	r2, [sp, #12]
    3c82:	d2db      	bcs.n	3c3c <long_division+0x18>
    3c84:	0020      	movs	r0, r4
    3c86:	0029      	movs	r1, r5
    3c88:	b009      	add	sp, #36	; 0x24
    3c8a:	bdf0      	pop	{r4, r5, r6, r7, pc}
    3c8c:	00005a11 	.word	0x00005a11

00003c90 <_sercom_get_sync_baud_val>:
    3c90:	b510      	push	{r4, lr}
    3c92:	0849      	lsrs	r1, r1, #1
    3c94:	0004      	movs	r4, r0
    3c96:	2300      	movs	r3, #0
    3c98:	2040      	movs	r0, #64	; 0x40
    3c9a:	42a1      	cmp	r1, r4
    3c9c:	d201      	bcs.n	3ca2 <_sercom_get_sync_baud_val+0x12>
    3c9e:	bd10      	pop	{r4, pc}
    3ca0:	0003      	movs	r3, r0
    3ca2:	1c58      	adds	r0, r3, #1
    3ca4:	1b09      	subs	r1, r1, r4
    3ca6:	b280      	uxth	r0, r0
    3ca8:	428c      	cmp	r4, r1
    3caa:	d9f9      	bls.n	3ca0 <_sercom_get_sync_baud_val+0x10>
    3cac:	2040      	movs	r0, #64	; 0x40
    3cae:	2bff      	cmp	r3, #255	; 0xff
    3cb0:	d8f5      	bhi.n	3c9e <_sercom_get_sync_baud_val+0xe>
    3cb2:	8013      	strh	r3, [r2, #0]
    3cb4:	2000      	movs	r0, #0
    3cb6:	e7f2      	b.n	3c9e <_sercom_get_sync_baud_val+0xe>

00003cb8 <_sercom_get_async_baud_val>:
    3cb8:	b5f0      	push	{r4, r5, r6, r7, lr}
    3cba:	b085      	sub	sp, #20
    3cbc:	001e      	movs	r6, r3
    3cbe:	ab0a      	add	r3, sp, #40	; 0x28
    3cc0:	000d      	movs	r5, r1
    3cc2:	7819      	ldrb	r1, [r3, #0]
    3cc4:	0003      	movs	r3, r0
    3cc6:	434b      	muls	r3, r1
    3cc8:	9203      	str	r2, [sp, #12]
    3cca:	2740      	movs	r7, #64	; 0x40
    3ccc:	42ab      	cmp	r3, r5
    3cce:	d817      	bhi.n	3d00 <_sercom_get_async_baud_val+0x48>
    3cd0:	2e00      	cmp	r6, #0
    3cd2:	d118      	bne.n	3d06 <_sercom_get_async_baud_val+0x4e>
    3cd4:	0002      	movs	r2, r0
    3cd6:	0033      	movs	r3, r6
    3cd8:	0008      	movs	r0, r1
    3cda:	4c1b      	ldr	r4, [pc, #108]	; (3d48 <_sercom_get_async_baud_val+0x90>)
    3cdc:	0031      	movs	r1, r6
    3cde:	47a0      	blx	r4
    3ce0:	002a      	movs	r2, r5
    3ce2:	0001      	movs	r1, r0
    3ce4:	0033      	movs	r3, r6
    3ce6:	4c19      	ldr	r4, [pc, #100]	; (3d4c <_sercom_get_async_baud_val+0x94>)
    3ce8:	0030      	movs	r0, r6
    3cea:	47a0      	blx	r4
    3cec:	2200      	movs	r2, #0
    3cee:	2301      	movs	r3, #1
    3cf0:	1a12      	subs	r2, r2, r0
    3cf2:	418b      	sbcs	r3, r1
    3cf4:	0c14      	lsrs	r4, r2, #16
    3cf6:	0418      	lsls	r0, r3, #16
    3cf8:	4304      	orrs	r4, r0
    3cfa:	2700      	movs	r7, #0
    3cfc:	9b03      	ldr	r3, [sp, #12]
    3cfe:	801c      	strh	r4, [r3, #0]
    3d00:	0038      	movs	r0, r7
    3d02:	b005      	add	sp, #20
    3d04:	bdf0      	pop	{r4, r5, r6, r7, pc}
    3d06:	2400      	movs	r4, #0
    3d08:	2e01      	cmp	r6, #1
    3d0a:	d1f6      	bne.n	3cfa <_sercom_get_async_baud_val+0x42>
    3d0c:	000a      	movs	r2, r1
    3d0e:	0023      	movs	r3, r4
    3d10:	0021      	movs	r1, r4
    3d12:	4e0d      	ldr	r6, [pc, #52]	; (3d48 <_sercom_get_async_baud_val+0x90>)
    3d14:	47b0      	blx	r6
    3d16:	9000      	str	r0, [sp, #0]
    3d18:	9101      	str	r1, [sp, #4]
    3d1a:	000b      	movs	r3, r1
    3d1c:	0002      	movs	r2, r0
    3d1e:	0021      	movs	r1, r4
    3d20:	0028      	movs	r0, r5
    3d22:	4c0a      	ldr	r4, [pc, #40]	; (3d4c <_sercom_get_async_baud_val+0x94>)
    3d24:	47a0      	blx	r4
    3d26:	2380      	movs	r3, #128	; 0x80
    3d28:	0006      	movs	r6, r0
    3d2a:	019b      	lsls	r3, r3, #6
    3d2c:	4298      	cmp	r0, r3
    3d2e:	d8e7      	bhi.n	3d00 <_sercom_get_async_baud_val+0x48>
    3d30:	9a00      	ldr	r2, [sp, #0]
    3d32:	9b01      	ldr	r3, [sp, #4]
    3d34:	0f69      	lsrs	r1, r5, #29
    3d36:	00e8      	lsls	r0, r5, #3
    3d38:	47a0      	blx	r4
    3d3a:	00f4      	lsls	r4, r6, #3
    3d3c:	1b04      	subs	r4, r0, r4
    3d3e:	b2e4      	uxtb	r4, r4
    3d40:	0364      	lsls	r4, r4, #13
    3d42:	4334      	orrs	r4, r6
    3d44:	e7d9      	b.n	3cfa <_sercom_get_async_baud_val+0x42>
    3d46:	46c0      	nop			; (mov r8, r8)
    3d48:	00005aa5 	.word	0x00005aa5
    3d4c:	00003c25 	.word	0x00003c25

00003d50 <sercom_set_gclk_generator>:
    3d50:	b537      	push	{r0, r1, r2, r4, r5, lr}
    3d52:	4c0d      	ldr	r4, [pc, #52]	; (3d88 <sercom_set_gclk_generator+0x38>)
    3d54:	0005      	movs	r5, r0
    3d56:	7823      	ldrb	r3, [r4, #0]
    3d58:	2b00      	cmp	r3, #0
    3d5a:	d001      	beq.n	3d60 <sercom_set_gclk_generator+0x10>
    3d5c:	2900      	cmp	r1, #0
    3d5e:	d00c      	beq.n	3d7a <sercom_set_gclk_generator+0x2a>
    3d60:	a901      	add	r1, sp, #4
    3d62:	2011      	movs	r0, #17
    3d64:	4b09      	ldr	r3, [pc, #36]	; (3d8c <sercom_set_gclk_generator+0x3c>)
    3d66:	700d      	strb	r5, [r1, #0]
    3d68:	4798      	blx	r3
    3d6a:	2011      	movs	r0, #17
    3d6c:	4b08      	ldr	r3, [pc, #32]	; (3d90 <sercom_set_gclk_generator+0x40>)
    3d6e:	4798      	blx	r3
    3d70:	2301      	movs	r3, #1
    3d72:	2000      	movs	r0, #0
    3d74:	7065      	strb	r5, [r4, #1]
    3d76:	7023      	strb	r3, [r4, #0]
    3d78:	bd3e      	pop	{r1, r2, r3, r4, r5, pc}
    3d7a:	7863      	ldrb	r3, [r4, #1]
    3d7c:	0008      	movs	r0, r1
    3d7e:	42ab      	cmp	r3, r5
    3d80:	d0fa      	beq.n	3d78 <sercom_set_gclk_generator+0x28>
    3d82:	201d      	movs	r0, #29
    3d84:	e7f8      	b.n	3d78 <sercom_set_gclk_generator+0x28>
    3d86:	46c0      	nop			; (mov r8, r8)
    3d88:	20000b20 	.word	0x20000b20
    3d8c:	00004fd9 	.word	0x00004fd9
    3d90:	00004f79 	.word	0x00004f79

00003d94 <_sercom_get_default_pad>:
    3d94:	4a36      	ldr	r2, [pc, #216]	; (3e70 <_sercom_get_default_pad+0xdc>)
    3d96:	0003      	movs	r3, r0
    3d98:	b500      	push	{lr}
    3d9a:	0008      	movs	r0, r1
    3d9c:	4293      	cmp	r3, r2
    3d9e:	d034      	beq.n	3e0a <_sercom_get_default_pad+0x76>
    3da0:	d808      	bhi.n	3db4 <_sercom_get_default_pad+0x20>
    3da2:	2284      	movs	r2, #132	; 0x84
    3da4:	05d2      	lsls	r2, r2, #23
    3da6:	4293      	cmp	r3, r2
    3da8:	d014      	beq.n	3dd4 <_sercom_get_default_pad+0x40>
    3daa:	4a32      	ldr	r2, [pc, #200]	; (3e74 <_sercom_get_default_pad+0xe0>)
    3dac:	4293      	cmp	r3, r2
    3dae:	d01f      	beq.n	3df0 <_sercom_get_default_pad+0x5c>
    3db0:	2300      	movs	r3, #0
    3db2:	e017      	b.n	3de4 <_sercom_get_default_pad+0x50>
    3db4:	4a30      	ldr	r2, [pc, #192]	; (3e78 <_sercom_get_default_pad+0xe4>)
    3db6:	4293      	cmp	r3, r2
    3db8:	d03a      	beq.n	3e30 <_sercom_get_default_pad+0x9c>
    3dba:	4a30      	ldr	r2, [pc, #192]	; (3e7c <_sercom_get_default_pad+0xe8>)
    3dbc:	4293      	cmp	r3, r2
    3dbe:	d03f      	beq.n	3e40 <_sercom_get_default_pad+0xac>
    3dc0:	4a2f      	ldr	r2, [pc, #188]	; (3e80 <_sercom_get_default_pad+0xec>)
    3dc2:	4293      	cmp	r3, r2
    3dc4:	d1f4      	bne.n	3db0 <_sercom_get_default_pad+0x1c>
    3dc6:	2300      	movs	r3, #0
    3dc8:	2903      	cmp	r1, #3
    3dca:	d80b      	bhi.n	3de4 <_sercom_get_default_pad+0x50>
    3dcc:	f001 fd8a 	bl	58e4 <__gnu_thumb1_case_uqi>
    3dd0:	2e2c2a4b 	.word	0x2e2c2a4b
    3dd4:	2300      	movs	r3, #0
    3dd6:	2903      	cmp	r1, #3
    3dd8:	d804      	bhi.n	3de4 <_sercom_get_default_pad+0x50>
    3dda:	f001 fd83 	bl	58e4 <__gnu_thumb1_case_uqi>
    3dde:	023e      	.short	0x023e
    3de0:	0705      	.short	0x0705
    3de2:	4b28      	ldr	r3, [pc, #160]	; (3e84 <_sercom_get_default_pad+0xf0>)
    3de4:	0018      	movs	r0, r3
    3de6:	bd00      	pop	{pc}
    3de8:	4b27      	ldr	r3, [pc, #156]	; (3e88 <_sercom_get_default_pad+0xf4>)
    3dea:	e7fb      	b.n	3de4 <_sercom_get_default_pad+0x50>
    3dec:	4b27      	ldr	r3, [pc, #156]	; (3e8c <_sercom_get_default_pad+0xf8>)
    3dee:	e7f9      	b.n	3de4 <_sercom_get_default_pad+0x50>
    3df0:	2300      	movs	r3, #0
    3df2:	2903      	cmp	r1, #3
    3df4:	d8f6      	bhi.n	3de4 <_sercom_get_default_pad+0x50>
    3df6:	f001 fd75 	bl	58e4 <__gnu_thumb1_case_uqi>
    3dfa:	0232      	.short	0x0232
    3dfc:	0604      	.short	0x0604
    3dfe:	4b24      	ldr	r3, [pc, #144]	; (3e90 <_sercom_get_default_pad+0xfc>)
    3e00:	e7f0      	b.n	3de4 <_sercom_get_default_pad+0x50>
    3e02:	4b24      	ldr	r3, [pc, #144]	; (3e94 <_sercom_get_default_pad+0x100>)
    3e04:	e7ee      	b.n	3de4 <_sercom_get_default_pad+0x50>
    3e06:	4b24      	ldr	r3, [pc, #144]	; (3e98 <_sercom_get_default_pad+0x104>)
    3e08:	e7ec      	b.n	3de4 <_sercom_get_default_pad+0x50>
    3e0a:	2300      	movs	r3, #0
    3e0c:	2903      	cmp	r1, #3
    3e0e:	d8e9      	bhi.n	3de4 <_sercom_get_default_pad+0x50>
    3e10:	f001 fd68 	bl	58e4 <__gnu_thumb1_case_uqi>
    3e14:	06040227 	.word	0x06040227
    3e18:	4b20      	ldr	r3, [pc, #128]	; (3e9c <_sercom_get_default_pad+0x108>)
    3e1a:	e7e3      	b.n	3de4 <_sercom_get_default_pad+0x50>
    3e1c:	4b20      	ldr	r3, [pc, #128]	; (3ea0 <_sercom_get_default_pad+0x10c>)
    3e1e:	e7e1      	b.n	3de4 <_sercom_get_default_pad+0x50>
    3e20:	4b20      	ldr	r3, [pc, #128]	; (3ea4 <_sercom_get_default_pad+0x110>)
    3e22:	e7df      	b.n	3de4 <_sercom_get_default_pad+0x50>
    3e24:	4b20      	ldr	r3, [pc, #128]	; (3ea8 <_sercom_get_default_pad+0x114>)
    3e26:	e7dd      	b.n	3de4 <_sercom_get_default_pad+0x50>
    3e28:	4b20      	ldr	r3, [pc, #128]	; (3eac <_sercom_get_default_pad+0x118>)
    3e2a:	e7db      	b.n	3de4 <_sercom_get_default_pad+0x50>
    3e2c:	4b20      	ldr	r3, [pc, #128]	; (3eb0 <_sercom_get_default_pad+0x11c>)
    3e2e:	e7d9      	b.n	3de4 <_sercom_get_default_pad+0x50>
    3e30:	2902      	cmp	r1, #2
    3e32:	d003      	beq.n	3e3c <_sercom_get_default_pad+0xa8>
    3e34:	2903      	cmp	r1, #3
    3e36:	d1bb      	bne.n	3db0 <_sercom_get_default_pad+0x1c>
    3e38:	4b1e      	ldr	r3, [pc, #120]	; (3eb4 <_sercom_get_default_pad+0x120>)
    3e3a:	e7d3      	b.n	3de4 <_sercom_get_default_pad+0x50>
    3e3c:	4b1e      	ldr	r3, [pc, #120]	; (3eb8 <_sercom_get_default_pad+0x124>)
    3e3e:	e7d1      	b.n	3de4 <_sercom_get_default_pad+0x50>
    3e40:	2300      	movs	r3, #0
    3e42:	2903      	cmp	r1, #3
    3e44:	d8ce      	bhi.n	3de4 <_sercom_get_default_pad+0x50>
    3e46:	f001 fd4d 	bl	58e4 <__gnu_thumb1_case_uqi>
    3e4a:	0210      	.short	0x0210
    3e4c:	0604      	.short	0x0604
    3e4e:	4b1b      	ldr	r3, [pc, #108]	; (3ebc <_sercom_get_default_pad+0x128>)
    3e50:	e7c8      	b.n	3de4 <_sercom_get_default_pad+0x50>
    3e52:	4b1b      	ldr	r3, [pc, #108]	; (3ec0 <_sercom_get_default_pad+0x12c>)
    3e54:	e7c6      	b.n	3de4 <_sercom_get_default_pad+0x50>
    3e56:	4b1b      	ldr	r3, [pc, #108]	; (3ec4 <_sercom_get_default_pad+0x130>)
    3e58:	e7c4      	b.n	3de4 <_sercom_get_default_pad+0x50>
    3e5a:	4b1b      	ldr	r3, [pc, #108]	; (3ec8 <_sercom_get_default_pad+0x134>)
    3e5c:	e7c2      	b.n	3de4 <_sercom_get_default_pad+0x50>
    3e5e:	2303      	movs	r3, #3
    3e60:	e7c0      	b.n	3de4 <_sercom_get_default_pad+0x50>
    3e62:	4b1a      	ldr	r3, [pc, #104]	; (3ecc <_sercom_get_default_pad+0x138>)
    3e64:	e7be      	b.n	3de4 <_sercom_get_default_pad+0x50>
    3e66:	4b1a      	ldr	r3, [pc, #104]	; (3ed0 <_sercom_get_default_pad+0x13c>)
    3e68:	e7bc      	b.n	3de4 <_sercom_get_default_pad+0x50>
    3e6a:	4b1a      	ldr	r3, [pc, #104]	; (3ed4 <_sercom_get_default_pad+0x140>)
    3e6c:	e7ba      	b.n	3de4 <_sercom_get_default_pad+0x50>
    3e6e:	46c0      	nop			; (mov r8, r8)
    3e70:	42000800 	.word	0x42000800
    3e74:	42000400 	.word	0x42000400
    3e78:	42001000 	.word	0x42001000
    3e7c:	43000400 	.word	0x43000400
    3e80:	42000c00 	.word	0x42000c00
    3e84:	00050003 	.word	0x00050003
    3e88:	00060003 	.word	0x00060003
    3e8c:	00070003 	.word	0x00070003
    3e90:	00010003 	.word	0x00010003
    3e94:	001e0003 	.word	0x001e0003
    3e98:	001f0003 	.word	0x001f0003
    3e9c:	00090003 	.word	0x00090003
    3ea0:	000a0003 	.word	0x000a0003
    3ea4:	000b0003 	.word	0x000b0003
    3ea8:	00110003 	.word	0x00110003
    3eac:	00120003 	.word	0x00120003
    3eb0:	00130003 	.word	0x00130003
    3eb4:	000f0003 	.word	0x000f0003
    3eb8:	000e0003 	.word	0x000e0003
    3ebc:	00170003 	.word	0x00170003
    3ec0:	00180003 	.word	0x00180003
    3ec4:	00190003 	.word	0x00190003
    3ec8:	00040003 	.word	0x00040003
    3ecc:	00080003 	.word	0x00080003
    3ed0:	00100003 	.word	0x00100003
    3ed4:	00160003 	.word	0x00160003

00003ed8 <_sercom_get_sercom_inst_index>:
    3ed8:	b570      	push	{r4, r5, r6, lr}
    3eda:	b086      	sub	sp, #24
    3edc:	4669      	mov	r1, sp
    3ede:	4b09      	ldr	r3, [pc, #36]	; (3f04 <_sercom_get_sercom_inst_index+0x2c>)
    3ee0:	466a      	mov	r2, sp
    3ee2:	cb70      	ldmia	r3!, {r4, r5, r6}
    3ee4:	c170      	stmia	r1!, {r4, r5, r6}
    3ee6:	cb70      	ldmia	r3!, {r4, r5, r6}
    3ee8:	c170      	stmia	r1!, {r4, r5, r6}
    3eea:	2300      	movs	r3, #0
    3eec:	0099      	lsls	r1, r3, #2
    3eee:	5851      	ldr	r1, [r2, r1]
    3ef0:	4281      	cmp	r1, r0
    3ef2:	d102      	bne.n	3efa <_sercom_get_sercom_inst_index+0x22>
    3ef4:	b2d8      	uxtb	r0, r3
    3ef6:	b006      	add	sp, #24
    3ef8:	bd70      	pop	{r4, r5, r6, pc}
    3efa:	3301      	adds	r3, #1
    3efc:	2b06      	cmp	r3, #6
    3efe:	d1f5      	bne.n	3eec <_sercom_get_sercom_inst_index+0x14>
    3f00:	2000      	movs	r0, #0
    3f02:	e7f8      	b.n	3ef6 <_sercom_get_sercom_inst_index+0x1e>
    3f04:	0000d36c 	.word	0x0000d36c

00003f08 <_sercom_default_handler>:
    3f08:	4770      	bx	lr
	...

00003f0c <_sercom_set_handler>:
    3f0c:	b5f0      	push	{r4, r5, r6, r7, lr}
    3f0e:	4c09      	ldr	r4, [pc, #36]	; (3f34 <_sercom_set_handler+0x28>)
    3f10:	4a09      	ldr	r2, [pc, #36]	; (3f38 <_sercom_set_handler+0x2c>)
    3f12:	7823      	ldrb	r3, [r4, #0]
    3f14:	2b00      	cmp	r3, #0
    3f16:	d109      	bne.n	3f2c <_sercom_set_handler+0x20>
    3f18:	001e      	movs	r6, r3
    3f1a:	4f08      	ldr	r7, [pc, #32]	; (3f3c <_sercom_set_handler+0x30>)
    3f1c:	4d08      	ldr	r5, [pc, #32]	; (3f40 <_sercom_set_handler+0x34>)
    3f1e:	50d7      	str	r7, [r2, r3]
    3f20:	50ee      	str	r6, [r5, r3]
    3f22:	3304      	adds	r3, #4
    3f24:	2b18      	cmp	r3, #24
    3f26:	d1fa      	bne.n	3f1e <_sercom_set_handler+0x12>
    3f28:	3b17      	subs	r3, #23
    3f2a:	7023      	strb	r3, [r4, #0]
    3f2c:	0080      	lsls	r0, r0, #2
    3f2e:	5011      	str	r1, [r2, r0]
    3f30:	bdf0      	pop	{r4, r5, r6, r7, pc}
    3f32:	46c0      	nop			; (mov r8, r8)
    3f34:	20000b22 	.word	0x20000b22
    3f38:	20000b24 	.word	0x20000b24
    3f3c:	00003f09 	.word	0x00003f09
    3f40:	20000cd4 	.word	0x20000cd4

00003f44 <_sercom_get_interrupt_vector>:
    3f44:	b507      	push	{r0, r1, r2, lr}
    3f46:	2308      	movs	r3, #8
    3f48:	466a      	mov	r2, sp
    3f4a:	7013      	strb	r3, [r2, #0]
    3f4c:	3301      	adds	r3, #1
    3f4e:	7053      	strb	r3, [r2, #1]
    3f50:	3301      	adds	r3, #1
    3f52:	7093      	strb	r3, [r2, #2]
    3f54:	3301      	adds	r3, #1
    3f56:	70d3      	strb	r3, [r2, #3]
    3f58:	3301      	adds	r3, #1
    3f5a:	7113      	strb	r3, [r2, #4]
    3f5c:	3301      	adds	r3, #1
    3f5e:	7153      	strb	r3, [r2, #5]
    3f60:	4b02      	ldr	r3, [pc, #8]	; (3f6c <_sercom_get_interrupt_vector+0x28>)
    3f62:	4798      	blx	r3
    3f64:	466b      	mov	r3, sp
    3f66:	5618      	ldrsb	r0, [r3, r0]
    3f68:	bd0e      	pop	{r1, r2, r3, pc}
    3f6a:	46c0      	nop			; (mov r8, r8)
    3f6c:	00003ed9 	.word	0x00003ed9

00003f70 <SERCOM0_Handler>:
    3f70:	b510      	push	{r4, lr}
    3f72:	4b02      	ldr	r3, [pc, #8]	; (3f7c <SERCOM0_Handler+0xc>)
    3f74:	2000      	movs	r0, #0
    3f76:	681b      	ldr	r3, [r3, #0]
    3f78:	4798      	blx	r3
    3f7a:	bd10      	pop	{r4, pc}
    3f7c:	20000b24 	.word	0x20000b24

00003f80 <SERCOM1_Handler>:
    3f80:	b510      	push	{r4, lr}
    3f82:	4b02      	ldr	r3, [pc, #8]	; (3f8c <SERCOM1_Handler+0xc>)
    3f84:	2001      	movs	r0, #1
    3f86:	685b      	ldr	r3, [r3, #4]
    3f88:	4798      	blx	r3
    3f8a:	bd10      	pop	{r4, pc}
    3f8c:	20000b24 	.word	0x20000b24

00003f90 <SERCOM2_Handler>:
    3f90:	b510      	push	{r4, lr}
    3f92:	4b02      	ldr	r3, [pc, #8]	; (3f9c <SERCOM2_Handler+0xc>)
    3f94:	2002      	movs	r0, #2
    3f96:	689b      	ldr	r3, [r3, #8]
    3f98:	4798      	blx	r3
    3f9a:	bd10      	pop	{r4, pc}
    3f9c:	20000b24 	.word	0x20000b24

00003fa0 <SERCOM3_Handler>:
    3fa0:	b510      	push	{r4, lr}
    3fa2:	4b02      	ldr	r3, [pc, #8]	; (3fac <SERCOM3_Handler+0xc>)
    3fa4:	2003      	movs	r0, #3
    3fa6:	68db      	ldr	r3, [r3, #12]
    3fa8:	4798      	blx	r3
    3faa:	bd10      	pop	{r4, pc}
    3fac:	20000b24 	.word	0x20000b24

00003fb0 <SERCOM4_Handler>:
    3fb0:	b510      	push	{r4, lr}
    3fb2:	4b02      	ldr	r3, [pc, #8]	; (3fbc <SERCOM4_Handler+0xc>)
    3fb4:	2004      	movs	r0, #4
    3fb6:	691b      	ldr	r3, [r3, #16]
    3fb8:	4798      	blx	r3
    3fba:	bd10      	pop	{r4, pc}
    3fbc:	20000b24 	.word	0x20000b24

00003fc0 <SERCOM5_Handler>:
    3fc0:	b510      	push	{r4, lr}
    3fc2:	4b02      	ldr	r3, [pc, #8]	; (3fcc <SERCOM5_Handler+0xc>)
    3fc4:	2005      	movs	r0, #5
    3fc6:	695b      	ldr	r3, [r3, #20]
    3fc8:	4798      	blx	r3
    3fca:	bd10      	pop	{r4, pc}
    3fcc:	20000b24 	.word	0x20000b24

00003fd0 <EIC_Handler>:
    3fd0:	2300      	movs	r3, #0
    3fd2:	b570      	push	{r4, r5, r6, lr}
    3fd4:	2501      	movs	r5, #1
    3fd6:	4c0b      	ldr	r4, [pc, #44]	; (4004 <EIC_Handler+0x34>)
    3fd8:	7023      	strb	r3, [r4, #0]
    3fda:	7823      	ldrb	r3, [r4, #0]
    3fdc:	2b0f      	cmp	r3, #15
    3fde:	d900      	bls.n	3fe2 <EIC_Handler+0x12>
    3fe0:	bd70      	pop	{r4, r5, r6, pc}
    3fe2:	0029      	movs	r1, r5
    3fe4:	4099      	lsls	r1, r3
    3fe6:	4a08      	ldr	r2, [pc, #32]	; (4008 <EIC_Handler+0x38>)
    3fe8:	6950      	ldr	r0, [r2, #20]
    3fea:	4208      	tst	r0, r1
    3fec:	d006      	beq.n	3ffc <EIC_Handler+0x2c>
    3fee:	6151      	str	r1, [r2, #20]
    3ff0:	4a06      	ldr	r2, [pc, #24]	; (400c <EIC_Handler+0x3c>)
    3ff2:	009b      	lsls	r3, r3, #2
    3ff4:	589b      	ldr	r3, [r3, r2]
    3ff6:	2b00      	cmp	r3, #0
    3ff8:	d000      	beq.n	3ffc <EIC_Handler+0x2c>
    3ffa:	4798      	blx	r3
    3ffc:	7823      	ldrb	r3, [r4, #0]
    3ffe:	3301      	adds	r3, #1
    4000:	7023      	strb	r3, [r4, #0]
    4002:	e7ea      	b.n	3fda <EIC_Handler+0xa>
    4004:	20000cec 	.word	0x20000cec
    4008:	40002400 	.word	0x40002400
    400c:	20000c84 	.word	0x20000c84

00004010 <delay_init>:
    4010:	b570      	push	{r4, r5, r6, lr}
    4012:	4b09      	ldr	r3, [pc, #36]	; (4038 <delay_init+0x28>)
    4014:	2000      	movs	r0, #0
    4016:	4798      	blx	r3
    4018:	21fa      	movs	r1, #250	; 0xfa
    401a:	4c08      	ldr	r4, [pc, #32]	; (403c <delay_init+0x2c>)
    401c:	0089      	lsls	r1, r1, #2
    401e:	0005      	movs	r5, r0
    4020:	47a0      	blx	r4
    4022:	4b07      	ldr	r3, [pc, #28]	; (4040 <delay_init+0x30>)
    4024:	4907      	ldr	r1, [pc, #28]	; (4044 <delay_init+0x34>)
    4026:	6018      	str	r0, [r3, #0]
    4028:	0028      	movs	r0, r5
    402a:	47a0      	blx	r4
    402c:	2205      	movs	r2, #5
    402e:	4b06      	ldr	r3, [pc, #24]	; (4048 <delay_init+0x38>)
    4030:	6018      	str	r0, [r3, #0]
    4032:	4b06      	ldr	r3, [pc, #24]	; (404c <delay_init+0x3c>)
    4034:	601a      	str	r2, [r3, #0]
    4036:	bd70      	pop	{r4, r5, r6, pc}
    4038:	00004f11 	.word	0x00004f11
    403c:	000058f9 	.word	0x000058f9
    4040:	20000008 	.word	0x20000008
    4044:	000f4240 	.word	0x000f4240
    4048:	2000000c 	.word	0x2000000c
    404c:	e000e010 	.word	0xe000e010

00004050 <delay_cycles_us>:
    4050:	b530      	push	{r4, r5, lr}
    4052:	2480      	movs	r4, #128	; 0x80
    4054:	2100      	movs	r1, #0
    4056:	4b07      	ldr	r3, [pc, #28]	; (4074 <delay_cycles_us+0x24>)
    4058:	0264      	lsls	r4, r4, #9
    405a:	681a      	ldr	r2, [r3, #0]
    405c:	4b06      	ldr	r3, [pc, #24]	; (4078 <delay_cycles_us+0x28>)
    405e:	3801      	subs	r0, #1
    4060:	d200      	bcs.n	4064 <delay_cycles_us+0x14>
    4062:	bd30      	pop	{r4, r5, pc}
    4064:	2a00      	cmp	r2, #0
    4066:	d0fa      	beq.n	405e <delay_cycles_us+0xe>
    4068:	605a      	str	r2, [r3, #4]
    406a:	6099      	str	r1, [r3, #8]
    406c:	681d      	ldr	r5, [r3, #0]
    406e:	4225      	tst	r5, r4
    4070:	d0fc      	beq.n	406c <delay_cycles_us+0x1c>
    4072:	e7f4      	b.n	405e <delay_cycles_us+0xe>
    4074:	2000000c 	.word	0x2000000c
    4078:	e000e010 	.word	0xe000e010

0000407c <delay_cycles_ms>:
    407c:	b530      	push	{r4, r5, lr}
    407e:	2480      	movs	r4, #128	; 0x80
    4080:	2100      	movs	r1, #0
    4082:	4b07      	ldr	r3, [pc, #28]	; (40a0 <delay_cycles_ms+0x24>)
    4084:	0264      	lsls	r4, r4, #9
    4086:	681a      	ldr	r2, [r3, #0]
    4088:	4b06      	ldr	r3, [pc, #24]	; (40a4 <delay_cycles_ms+0x28>)
    408a:	3801      	subs	r0, #1
    408c:	d200      	bcs.n	4090 <delay_cycles_ms+0x14>
    408e:	bd30      	pop	{r4, r5, pc}
    4090:	2a00      	cmp	r2, #0
    4092:	d0fa      	beq.n	408a <delay_cycles_ms+0xe>
    4094:	605a      	str	r2, [r3, #4]
    4096:	6099      	str	r1, [r3, #8]
    4098:	681d      	ldr	r5, [r3, #0]
    409a:	4225      	tst	r5, r4
    409c:	d0fc      	beq.n	4098 <delay_cycles_ms+0x1c>
    409e:	e7f4      	b.n	408a <delay_cycles_ms+0xe>
    40a0:	20000008 	.word	0x20000008
    40a4:	e000e010 	.word	0xe000e010

000040a8 <nvm_is_ready>:
    40a8:	4b02      	ldr	r3, [pc, #8]	; (40b4 <nvm_is_ready+0xc>)
    40aa:	7d18      	ldrb	r0, [r3, #20]
    40ac:	2301      	movs	r3, #1
    40ae:	4018      	ands	r0, r3
    40b0:	4770      	bx	lr
    40b2:	46c0      	nop			; (mov r8, r8)
    40b4:	41004000 	.word	0x41004000

000040b8 <nvm_set_config>:
    40b8:	2304      	movs	r3, #4
    40ba:	b570      	push	{r4, r5, r6, lr}
    40bc:	4a1c      	ldr	r2, [pc, #112]	; (4130 <nvm_set_config+0x78>)
    40be:	4d1d      	ldr	r5, [pc, #116]	; (4134 <nvm_set_config+0x7c>)
    40c0:	6991      	ldr	r1, [r2, #24]
    40c2:	0004      	movs	r4, r0
    40c4:	430b      	orrs	r3, r1
    40c6:	6193      	str	r3, [r2, #24]
    40c8:	2320      	movs	r3, #32
    40ca:	33ff      	adds	r3, #255	; 0xff
    40cc:	832b      	strh	r3, [r5, #24]
    40ce:	4b1a      	ldr	r3, [pc, #104]	; (4138 <nvm_set_config+0x80>)
    40d0:	4798      	blx	r3
    40d2:	0003      	movs	r3, r0
    40d4:	2005      	movs	r0, #5
    40d6:	2b00      	cmp	r3, #0
    40d8:	d028      	beq.n	412c <nvm_set_config+0x74>
    40da:	22c0      	movs	r2, #192	; 0xc0
    40dc:	211e      	movs	r1, #30
    40de:	7823      	ldrb	r3, [r4, #0]
    40e0:	0092      	lsls	r2, r2, #2
    40e2:	021b      	lsls	r3, r3, #8
    40e4:	4013      	ands	r3, r2
    40e6:	78a2      	ldrb	r2, [r4, #2]
    40e8:	0052      	lsls	r2, r2, #1
    40ea:	400a      	ands	r2, r1
    40ec:	2180      	movs	r1, #128	; 0x80
    40ee:	4313      	orrs	r3, r2
    40f0:	7862      	ldrb	r2, [r4, #1]
    40f2:	02c9      	lsls	r1, r1, #11
    40f4:	01d2      	lsls	r2, r2, #7
    40f6:	4313      	orrs	r3, r2
    40f8:	78e2      	ldrb	r2, [r4, #3]
    40fa:	0492      	lsls	r2, r2, #18
    40fc:	400a      	ands	r2, r1
    40fe:	21c0      	movs	r1, #192	; 0xc0
    4100:	4313      	orrs	r3, r2
    4102:	7922      	ldrb	r2, [r4, #4]
    4104:	0289      	lsls	r1, r1, #10
    4106:	0412      	lsls	r2, r2, #16
    4108:	400a      	ands	r2, r1
    410a:	2108      	movs	r1, #8
    410c:	4313      	orrs	r3, r2
    410e:	606b      	str	r3, [r5, #4]
    4110:	68ab      	ldr	r3, [r5, #8]
    4112:	4a0a      	ldr	r2, [pc, #40]	; (413c <nvm_set_config+0x84>)
    4114:	035b      	lsls	r3, r3, #13
    4116:	0f5b      	lsrs	r3, r3, #29
    4118:	4099      	lsls	r1, r3
    411a:	8011      	strh	r1, [r2, #0]
    411c:	68ab      	ldr	r3, [r5, #8]
    411e:	8053      	strh	r3, [r2, #2]
    4120:	7863      	ldrb	r3, [r4, #1]
    4122:	7113      	strb	r3, [r2, #4]
    4124:	8b28      	ldrh	r0, [r5, #24]
    4126:	05c0      	lsls	r0, r0, #23
    4128:	0fc0      	lsrs	r0, r0, #31
    412a:	0100      	lsls	r0, r0, #4
    412c:	bd70      	pop	{r4, r5, r6, pc}
    412e:	46c0      	nop			; (mov r8, r8)
    4130:	40000400 	.word	0x40000400
    4134:	41004000 	.word	0x41004000
    4138:	000040a9 	.word	0x000040a9
    413c:	20000b3c 	.word	0x20000b3c

00004140 <nvm_execute_command>:
    4140:	b5f7      	push	{r0, r1, r2, r4, r5, r6, r7, lr}
    4142:	4a34      	ldr	r2, [pc, #208]	; (4214 <nvm_execute_command+0xd4>)
    4144:	000d      	movs	r5, r1
    4146:	8853      	ldrh	r3, [r2, #2]
    4148:	8811      	ldrh	r1, [r2, #0]
    414a:	0004      	movs	r4, r0
    414c:	434b      	muls	r3, r1
    414e:	42ab      	cmp	r3, r5
    4150:	d20b      	bcs.n	416a <nvm_execute_command+0x2a>
    4152:	2280      	movs	r2, #128	; 0x80
    4154:	4b30      	ldr	r3, [pc, #192]	; (4218 <nvm_execute_command+0xd8>)
    4156:	0192      	lsls	r2, r2, #6
    4158:	18eb      	adds	r3, r5, r3
    415a:	4293      	cmp	r3, r2
    415c:	d905      	bls.n	416a <nvm_execute_command+0x2a>
    415e:	4b2f      	ldr	r3, [pc, #188]	; (421c <nvm_execute_command+0xdc>)
    4160:	4a2f      	ldr	r2, [pc, #188]	; (4220 <nvm_execute_command+0xe0>)
    4162:	18eb      	adds	r3, r5, r3
    4164:	2018      	movs	r0, #24
    4166:	4293      	cmp	r3, r2
    4168:	d812      	bhi.n	4190 <nvm_execute_command+0x50>
    416a:	4f2e      	ldr	r7, [pc, #184]	; (4224 <nvm_execute_command+0xe4>)
    416c:	687b      	ldr	r3, [r7, #4]
    416e:	003e      	movs	r6, r7
    4170:	9301      	str	r3, [sp, #4]
    4172:	2380      	movs	r3, #128	; 0x80
    4174:	9a01      	ldr	r2, [sp, #4]
    4176:	02db      	lsls	r3, r3, #11
    4178:	4313      	orrs	r3, r2
    417a:	607b      	str	r3, [r7, #4]
    417c:	2320      	movs	r3, #32
    417e:	33ff      	adds	r3, #255	; 0xff
    4180:	833b      	strh	r3, [r7, #24]
    4182:	4b29      	ldr	r3, [pc, #164]	; (4228 <nvm_execute_command+0xe8>)
    4184:	4798      	blx	r3
    4186:	2800      	cmp	r0, #0
    4188:	d103      	bne.n	4192 <nvm_execute_command+0x52>
    418a:	9b01      	ldr	r3, [sp, #4]
    418c:	3005      	adds	r0, #5
    418e:	607b      	str	r3, [r7, #4]
    4190:	bdfe      	pop	{r1, r2, r3, r4, r5, r6, r7, pc}
    4192:	2c1a      	cmp	r4, #26
    4194:	d005      	beq.n	41a2 <nvm_execute_command+0x62>
    4196:	d816      	bhi.n	41c6 <nvm_execute_command+0x86>
    4198:	2c04      	cmp	r4, #4
    419a:	d002      	beq.n	41a2 <nvm_execute_command+0x62>
    419c:	d80d      	bhi.n	41ba <nvm_execute_command+0x7a>
    419e:	2c02      	cmp	r4, #2
    41a0:	d10d      	bne.n	41be <nvm_execute_command+0x7e>
    41a2:	08ad      	lsrs	r5, r5, #2
    41a4:	006d      	lsls	r5, r5, #1
    41a6:	61f5      	str	r5, [r6, #28]
    41a8:	2c1a      	cmp	r4, #26
    41aa:	d130      	bne.n	420e <nvm_execute_command+0xce>
    41ac:	2380      	movs	r3, #128	; 0x80
    41ae:	6872      	ldr	r2, [r6, #4]
    41b0:	02db      	lsls	r3, r3, #11
    41b2:	4313      	orrs	r3, r2
    41b4:	6073      	str	r3, [r6, #4]
    41b6:	6873      	ldr	r3, [r6, #4]
    41b8:	e00e      	b.n	41d8 <nvm_execute_command+0x98>
    41ba:	2c06      	cmp	r4, #6
    41bc:	d920      	bls.n	4200 <nvm_execute_command+0xc0>
    41be:	9b01      	ldr	r3, [sp, #4]
    41c0:	2017      	movs	r0, #23
    41c2:	6073      	str	r3, [r6, #4]
    41c4:	e7e4      	b.n	4190 <nvm_execute_command+0x50>
    41c6:	2c41      	cmp	r4, #65	; 0x41
    41c8:	d804      	bhi.n	41d4 <nvm_execute_command+0x94>
    41ca:	2c40      	cmp	r4, #64	; 0x40
    41cc:	d2e9      	bcs.n	41a2 <nvm_execute_command+0x62>
    41ce:	2c1c      	cmp	r4, #28
    41d0:	d1f5      	bne.n	41be <nvm_execute_command+0x7e>
    41d2:	e7e6      	b.n	41a2 <nvm_execute_command+0x62>
    41d4:	2c45      	cmp	r4, #69	; 0x45
    41d6:	d8f2      	bhi.n	41be <nvm_execute_command+0x7e>
    41d8:	23a5      	movs	r3, #165	; 0xa5
    41da:	021b      	lsls	r3, r3, #8
    41dc:	4323      	orrs	r3, r4
    41de:	8033      	strh	r3, [r6, #0]
    41e0:	4b11      	ldr	r3, [pc, #68]	; (4228 <nvm_execute_command+0xe8>)
    41e2:	4798      	blx	r3
    41e4:	2800      	cmp	r0, #0
    41e6:	d0fb      	beq.n	41e0 <nvm_execute_command+0xa0>
    41e8:	23fd      	movs	r3, #253	; 0xfd
    41ea:	3c1a      	subs	r4, #26
    41ec:	421c      	tst	r4, r3
    41ee:	d103      	bne.n	41f8 <nvm_execute_command+0xb8>
    41f0:	6873      	ldr	r3, [r6, #4]
    41f2:	4a0e      	ldr	r2, [pc, #56]	; (422c <nvm_execute_command+0xec>)
    41f4:	4013      	ands	r3, r2
    41f6:	6073      	str	r3, [r6, #4]
    41f8:	9b01      	ldr	r3, [sp, #4]
    41fa:	2000      	movs	r0, #0
    41fc:	6073      	str	r3, [r6, #4]
    41fe:	e7c7      	b.n	4190 <nvm_execute_command+0x50>
    4200:	8b3b      	ldrh	r3, [r7, #24]
    4202:	05db      	lsls	r3, r3, #23
    4204:	d5cd      	bpl.n	41a2 <nvm_execute_command+0x62>
    4206:	9b01      	ldr	r3, [sp, #4]
    4208:	2010      	movs	r0, #16
    420a:	607b      	str	r3, [r7, #4]
    420c:	e7c0      	b.n	4190 <nvm_execute_command+0x50>
    420e:	2c1c      	cmp	r4, #28
    4210:	d0cc      	beq.n	41ac <nvm_execute_command+0x6c>
    4212:	e7e1      	b.n	41d8 <nvm_execute_command+0x98>
    4214:	20000b3c 	.word	0x20000b3c
    4218:	ff7fc000 	.word	0xff7fc000
    421c:	ffc00000 	.word	0xffc00000
    4220:	00000fff 	.word	0x00000fff
    4224:	41004000 	.word	0x41004000
    4228:	000040a9 	.word	0x000040a9
    422c:	fffbffff 	.word	0xfffbffff

00004230 <nvm_write_buffer>:
    4230:	b5f7      	push	{r0, r1, r2, r4, r5, r6, r7, lr}
    4232:	4f29      	ldr	r7, [pc, #164]	; (42d8 <nvm_write_buffer+0xa8>)
    4234:	9101      	str	r1, [sp, #4]
    4236:	0015      	movs	r5, r2
    4238:	883b      	ldrh	r3, [r7, #0]
    423a:	887a      	ldrh	r2, [r7, #2]
    423c:	0004      	movs	r4, r0
    423e:	435a      	muls	r2, r3
    4240:	4282      	cmp	r2, r0
    4242:	d233      	bcs.n	42ac <nvm_write_buffer+0x7c>
    4244:	4925      	ldr	r1, [pc, #148]	; (42dc <nvm_write_buffer+0xac>)
    4246:	4826      	ldr	r0, [pc, #152]	; (42e0 <nvm_write_buffer+0xb0>)
    4248:	1861      	adds	r1, r4, r1
    424a:	2218      	movs	r2, #24
    424c:	4281      	cmp	r1, r0
    424e:	d82b      	bhi.n	42a8 <nvm_write_buffer+0x78>
    4250:	3a17      	subs	r2, #23
    4252:	1e59      	subs	r1, r3, #1
    4254:	9200      	str	r2, [sp, #0]
    4256:	2218      	movs	r2, #24
    4258:	420c      	tst	r4, r1
    425a:	d125      	bne.n	42a8 <nvm_write_buffer+0x78>
    425c:	3a01      	subs	r2, #1
    425e:	42ab      	cmp	r3, r5
    4260:	d322      	bcc.n	42a8 <nvm_write_buffer+0x78>
    4262:	4b20      	ldr	r3, [pc, #128]	; (42e4 <nvm_write_buffer+0xb4>)
    4264:	4798      	blx	r3
    4266:	2205      	movs	r2, #5
    4268:	2800      	cmp	r0, #0
    426a:	d01d      	beq.n	42a8 <nvm_write_buffer+0x78>
    426c:	4e1e      	ldr	r6, [pc, #120]	; (42e8 <nvm_write_buffer+0xb8>)
    426e:	4b1f      	ldr	r3, [pc, #124]	; (42ec <nvm_write_buffer+0xbc>)
    4270:	8033      	strh	r3, [r6, #0]
    4272:	4b1c      	ldr	r3, [pc, #112]	; (42e4 <nvm_write_buffer+0xb4>)
    4274:	4798      	blx	r3
    4276:	2800      	cmp	r0, #0
    4278:	d0fb      	beq.n	4272 <nvm_write_buffer+0x42>
    427a:	2320      	movs	r3, #32
    427c:	33ff      	adds	r3, #255	; 0xff
    427e:	8333      	strh	r3, [r6, #24]
    4280:	2300      	movs	r3, #0
    4282:	0862      	lsrs	r2, r4, #1
    4284:	0052      	lsls	r2, r2, #1
    4286:	1e68      	subs	r0, r5, #1
    4288:	42ab      	cmp	r3, r5
    428a:	d311      	bcc.n	42b0 <nvm_write_buffer+0x80>
    428c:	2200      	movs	r2, #0
    428e:	793b      	ldrb	r3, [r7, #4]
    4290:	4293      	cmp	r3, r2
    4292:	d109      	bne.n	42a8 <nvm_write_buffer+0x78>
    4294:	2d3f      	cmp	r5, #63	; 0x3f
    4296:	d807      	bhi.n	42a8 <nvm_write_buffer+0x78>
    4298:	9900      	ldr	r1, [sp, #0]
    429a:	4b15      	ldr	r3, [pc, #84]	; (42f0 <nvm_write_buffer+0xc0>)
    429c:	4291      	cmp	r1, r2
    429e:	d017      	beq.n	42d0 <nvm_write_buffer+0xa0>
    42a0:	0021      	movs	r1, r4
    42a2:	201c      	movs	r0, #28
    42a4:	4798      	blx	r3
    42a6:	0002      	movs	r2, r0
    42a8:	0010      	movs	r0, r2
    42aa:	bdfe      	pop	{r1, r2, r3, r4, r5, r6, r7, pc}
    42ac:	2200      	movs	r2, #0
    42ae:	e7d0      	b.n	4252 <nvm_write_buffer+0x22>
    42b0:	9901      	ldr	r1, [sp, #4]
    42b2:	5cc9      	ldrb	r1, [r1, r3]
    42b4:	4283      	cmp	r3, r0
    42b6:	db05      	blt.n	42c4 <nvm_write_buffer+0x94>
    42b8:	b289      	uxth	r1, r1
    42ba:	3302      	adds	r3, #2
    42bc:	8011      	strh	r1, [r2, #0]
    42be:	b29b      	uxth	r3, r3
    42c0:	3202      	adds	r2, #2
    42c2:	e7e1      	b.n	4288 <nvm_write_buffer+0x58>
    42c4:	9e01      	ldr	r6, [sp, #4]
    42c6:	18f6      	adds	r6, r6, r3
    42c8:	7876      	ldrb	r6, [r6, #1]
    42ca:	0236      	lsls	r6, r6, #8
    42cc:	4331      	orrs	r1, r6
    42ce:	e7f4      	b.n	42ba <nvm_write_buffer+0x8a>
    42d0:	0021      	movs	r1, r4
    42d2:	2004      	movs	r0, #4
    42d4:	e7e6      	b.n	42a4 <nvm_write_buffer+0x74>
    42d6:	46c0      	nop			; (mov r8, r8)
    42d8:	20000b3c 	.word	0x20000b3c
    42dc:	ffc00000 	.word	0xffc00000
    42e0:	00000fff 	.word	0x00000fff
    42e4:	000040a9 	.word	0x000040a9
    42e8:	41004000 	.word	0x41004000
    42ec:	ffffa544 	.word	0xffffa544
    42f0:	00004141 	.word	0x00004141

000042f4 <nvm_read_buffer>:
    42f4:	b5f8      	push	{r3, r4, r5, r6, r7, lr}
    42f6:	4b1a      	ldr	r3, [pc, #104]	; (4360 <nvm_read_buffer+0x6c>)
    42f8:	0016      	movs	r6, r2
    42fa:	881a      	ldrh	r2, [r3, #0]
    42fc:	885b      	ldrh	r3, [r3, #2]
    42fe:	0005      	movs	r5, r0
    4300:	4353      	muls	r3, r2
    4302:	000f      	movs	r7, r1
    4304:	4283      	cmp	r3, r0
    4306:	d205      	bcs.n	4314 <nvm_read_buffer+0x20>
    4308:	4916      	ldr	r1, [pc, #88]	; (4364 <nvm_read_buffer+0x70>)
    430a:	4817      	ldr	r0, [pc, #92]	; (4368 <nvm_read_buffer+0x74>)
    430c:	1869      	adds	r1, r5, r1
    430e:	2318      	movs	r3, #24
    4310:	4281      	cmp	r1, r0
    4312:	d816      	bhi.n	4342 <nvm_read_buffer+0x4e>
    4314:	1e54      	subs	r4, r2, #1
    4316:	402c      	ands	r4, r5
    4318:	2318      	movs	r3, #24
    431a:	2c00      	cmp	r4, #0
    431c:	d111      	bne.n	4342 <nvm_read_buffer+0x4e>
    431e:	3b01      	subs	r3, #1
    4320:	42b2      	cmp	r2, r6
    4322:	d30e      	bcc.n	4342 <nvm_read_buffer+0x4e>
    4324:	4b11      	ldr	r3, [pc, #68]	; (436c <nvm_read_buffer+0x78>)
    4326:	4798      	blx	r3
    4328:	2305      	movs	r3, #5
    432a:	2800      	cmp	r0, #0
    432c:	d009      	beq.n	4342 <nvm_read_buffer+0x4e>
    432e:	2220      	movs	r2, #32
    4330:	4b0f      	ldr	r3, [pc, #60]	; (4370 <nvm_read_buffer+0x7c>)
    4332:	32ff      	adds	r2, #255	; 0xff
    4334:	086d      	lsrs	r5, r5, #1
    4336:	831a      	strh	r2, [r3, #24]
    4338:	006d      	lsls	r5, r5, #1
    433a:	1e71      	subs	r1, r6, #1
    433c:	42a6      	cmp	r6, r4
    433e:	d802      	bhi.n	4346 <nvm_read_buffer+0x52>
    4340:	2300      	movs	r3, #0
    4342:	0018      	movs	r0, r3
    4344:	bdf8      	pop	{r3, r4, r5, r6, r7, pc}
    4346:	882b      	ldrh	r3, [r5, #0]
    4348:	b29b      	uxth	r3, r3
    434a:	553b      	strb	r3, [r7, r4]
    434c:	428c      	cmp	r4, r1
    434e:	da02      	bge.n	4356 <nvm_read_buffer+0x62>
    4350:	193a      	adds	r2, r7, r4
    4352:	0a1b      	lsrs	r3, r3, #8
    4354:	7053      	strb	r3, [r2, #1]
    4356:	3402      	adds	r4, #2
    4358:	b2a4      	uxth	r4, r4
    435a:	3502      	adds	r5, #2
    435c:	e7ee      	b.n	433c <nvm_read_buffer+0x48>
    435e:	46c0      	nop			; (mov r8, r8)
    4360:	20000b3c 	.word	0x20000b3c
    4364:	ffc00000 	.word	0xffc00000
    4368:	00000fff 	.word	0x00000fff
    436c:	000040a9 	.word	0x000040a9
    4370:	41004000 	.word	0x41004000

00004374 <nvm_erase_row>:
    4374:	b5f8      	push	{r3, r4, r5, r6, r7, lr}
    4376:	4a1f      	ldr	r2, [pc, #124]	; (43f4 <nvm_erase_row+0x80>)
    4378:	0007      	movs	r7, r0
    437a:	8813      	ldrh	r3, [r2, #0]
    437c:	8852      	ldrh	r2, [r2, #2]
    437e:	435a      	muls	r2, r3
    4380:	4282      	cmp	r2, r0
    4382:	d207      	bcs.n	4394 <nvm_erase_row+0x20>
    4384:	4a1c      	ldr	r2, [pc, #112]	; (43f8 <nvm_erase_row+0x84>)
    4386:	491d      	ldr	r1, [pc, #116]	; (43fc <nvm_erase_row+0x88>)
    4388:	18ba      	adds	r2, r7, r2
    438a:	2018      	movs	r0, #24
    438c:	2501      	movs	r5, #1
    438e:	428a      	cmp	r2, r1
    4390:	d901      	bls.n	4396 <nvm_erase_row+0x22>
    4392:	bdf8      	pop	{r3, r4, r5, r6, r7, pc}
    4394:	2500      	movs	r5, #0
    4396:	009b      	lsls	r3, r3, #2
    4398:	3b01      	subs	r3, #1
    439a:	2018      	movs	r0, #24
    439c:	421f      	tst	r7, r3
    439e:	d1f8      	bne.n	4392 <nvm_erase_row+0x1e>
    43a0:	4e17      	ldr	r6, [pc, #92]	; (4400 <nvm_erase_row+0x8c>)
    43a2:	47b0      	blx	r6
    43a4:	0003      	movs	r3, r0
    43a6:	2005      	movs	r0, #5
    43a8:	2b00      	cmp	r3, #0
    43aa:	d0f2      	beq.n	4392 <nvm_erase_row+0x1e>
    43ac:	2320      	movs	r3, #32
    43ae:	4c15      	ldr	r4, [pc, #84]	; (4404 <nvm_erase_row+0x90>)
    43b0:	08bf      	lsrs	r7, r7, #2
    43b2:	33ff      	adds	r3, #255	; 0xff
    43b4:	007f      	lsls	r7, r7, #1
    43b6:	8323      	strh	r3, [r4, #24]
    43b8:	61e7      	str	r7, [r4, #28]
    43ba:	2d00      	cmp	r5, #0
    43bc:	d017      	beq.n	43ee <nvm_erase_row+0x7a>
    43be:	2380      	movs	r3, #128	; 0x80
    43c0:	6862      	ldr	r2, [r4, #4]
    43c2:	02db      	lsls	r3, r3, #11
    43c4:	4313      	orrs	r3, r2
    43c6:	6063      	str	r3, [r4, #4]
    43c8:	6863      	ldr	r3, [r4, #4]
    43ca:	4b0f      	ldr	r3, [pc, #60]	; (4408 <nvm_erase_row+0x94>)
    43cc:	8023      	strh	r3, [r4, #0]
    43ce:	47b0      	blx	r6
    43d0:	2800      	cmp	r0, #0
    43d2:	d0fc      	beq.n	43ce <nvm_erase_row+0x5a>
    43d4:	2d00      	cmp	r5, #0
    43d6:	d003      	beq.n	43e0 <nvm_erase_row+0x6c>
    43d8:	6863      	ldr	r3, [r4, #4]
    43da:	4a0c      	ldr	r2, [pc, #48]	; (440c <nvm_erase_row+0x98>)
    43dc:	4013      	ands	r3, r2
    43de:	6063      	str	r3, [r4, #4]
    43e0:	231c      	movs	r3, #28
    43e2:	8b20      	ldrh	r0, [r4, #24]
    43e4:	4018      	ands	r0, r3
    43e6:	1e43      	subs	r3, r0, #1
    43e8:	4198      	sbcs	r0, r3
    43ea:	0080      	lsls	r0, r0, #2
    43ec:	e7d1      	b.n	4392 <nvm_erase_row+0x1e>
    43ee:	4b08      	ldr	r3, [pc, #32]	; (4410 <nvm_erase_row+0x9c>)
    43f0:	e7ec      	b.n	43cc <nvm_erase_row+0x58>
    43f2:	46c0      	nop			; (mov r8, r8)
    43f4:	20000b3c 	.word	0x20000b3c
    43f8:	ffc00000 	.word	0xffc00000
    43fc:	00000fff 	.word	0x00000fff
    4400:	000040a9 	.word	0x000040a9
    4404:	41004000 	.word	0x41004000
    4408:	ffffa51a 	.word	0xffffa51a
    440c:	fffbffff 	.word	0xfffbffff
    4410:	ffffa502 	.word	0xffffa502

00004414 <nvm_get_parameters>:
    4414:	2220      	movs	r2, #32
    4416:	b510      	push	{r4, lr}
    4418:	2407      	movs	r4, #7
    441a:	2108      	movs	r1, #8
    441c:	4b12      	ldr	r3, [pc, #72]	; (4468 <nvm_get_parameters+0x54>)
    441e:	32ff      	adds	r2, #255	; 0xff
    4420:	831a      	strh	r2, [r3, #24]
    4422:	689a      	ldr	r2, [r3, #8]
    4424:	0c13      	lsrs	r3, r2, #16
    4426:	4023      	ands	r3, r4
    4428:	4099      	lsls	r1, r3
    442a:	8042      	strh	r2, [r0, #2]
    442c:	0d12      	lsrs	r2, r2, #20
    442e:	8182      	strh	r2, [r0, #12]
    4430:	4a0e      	ldr	r2, [pc, #56]	; (446c <nvm_get_parameters+0x58>)
    4432:	7001      	strb	r1, [r0, #0]
    4434:	8813      	ldrh	r3, [r2, #0]
    4436:	091b      	lsrs	r3, r3, #4
    4438:	4023      	ands	r3, r4
    443a:	42a3      	cmp	r3, r4
    443c:	d109      	bne.n	4452 <nvm_get_parameters+0x3e>
    443e:	2300      	movs	r3, #0
    4440:	6043      	str	r3, [r0, #4]
    4442:	2307      	movs	r3, #7
    4444:	8812      	ldrh	r2, [r2, #0]
    4446:	401a      	ands	r2, r3
    4448:	429a      	cmp	r2, r3
    444a:	d107      	bne.n	445c <nvm_get_parameters+0x48>
    444c:	2300      	movs	r3, #0
    444e:	6083      	str	r3, [r0, #8]
    4450:	bd10      	pop	{r4, pc}
    4452:	2106      	movs	r1, #6
    4454:	1ac9      	subs	r1, r1, r3
    4456:	2304      	movs	r3, #4
    4458:	408b      	lsls	r3, r1
    445a:	e7f1      	b.n	4440 <nvm_get_parameters+0x2c>
    445c:	1a9b      	subs	r3, r3, r2
    445e:	2204      	movs	r2, #4
    4460:	409a      	lsls	r2, r3
    4462:	6082      	str	r2, [r0, #8]
    4464:	e7f4      	b.n	4450 <nvm_get_parameters+0x3c>
    4466:	46c0      	nop			; (mov r8, r8)
    4468:	41004000 	.word	0x41004000
    446c:	00804000 	.word	0x00804000

00004470 <port_pin_set_config>:
    4470:	b507      	push	{r0, r1, r2, lr}
    4472:	2280      	movs	r2, #128	; 0x80
    4474:	ab01      	add	r3, sp, #4
    4476:	701a      	strb	r2, [r3, #0]
    4478:	780a      	ldrb	r2, [r1, #0]
    447a:	705a      	strb	r2, [r3, #1]
    447c:	784a      	ldrb	r2, [r1, #1]
    447e:	709a      	strb	r2, [r3, #2]
    4480:	788a      	ldrb	r2, [r1, #2]
    4482:	0019      	movs	r1, r3
    4484:	70da      	strb	r2, [r3, #3]
    4486:	4b01      	ldr	r3, [pc, #4]	; (448c <port_pin_set_config+0x1c>)
    4488:	4798      	blx	r3
    448a:	bd07      	pop	{r0, r1, r2, pc}
    448c:	000050b1 	.word	0x000050b1

00004490 <_eeprom_emulator_nvm_erase_row>:
    4490:	b510      	push	{r4, lr}
    4492:	0204      	lsls	r4, r0, #8
    4494:	4b03      	ldr	r3, [pc, #12]	; (44a4 <_eeprom_emulator_nvm_erase_row+0x14>)
    4496:	6858      	ldr	r0, [r3, #4]
    4498:	4b03      	ldr	r3, [pc, #12]	; (44a8 <_eeprom_emulator_nvm_erase_row+0x18>)
    449a:	1900      	adds	r0, r0, r4
    449c:	4798      	blx	r3
    449e:	2805      	cmp	r0, #5
    44a0:	d0f8      	beq.n	4494 <_eeprom_emulator_nvm_erase_row+0x4>
    44a2:	bd10      	pop	{r4, pc}
    44a4:	20000b44 	.word	0x20000b44
    44a8:	00004375 	.word	0x00004375

000044ac <_eeprom_emulator_update_page_mapping>:
    44ac:	b5f0      	push	{r4, r5, r6, r7, lr}
    44ae:	2500      	movs	r5, #0
    44b0:	b085      	sub	sp, #20
    44b2:	4a38      	ldr	r2, [pc, #224]	; (4594 <_eeprom_emulator_update_page_mapping+0xe8>)
    44b4:	8911      	ldrh	r1, [r2, #8]
    44b6:	428d      	cmp	r5, r1
    44b8:	d32b      	bcc.n	4512 <_eeprom_emulator_update_page_mapping+0x66>
    44ba:	2300      	movs	r3, #0
    44bc:	6856      	ldr	r6, [r2, #4]
    44be:	7a95      	ldrb	r5, [r2, #10]
    44c0:	1e4f      	subs	r7, r1, #1
    44c2:	b298      	uxth	r0, r3
    44c4:	4281      	cmp	r1, r0
    44c6:	d855      	bhi.n	4574 <_eeprom_emulator_update_page_mapping+0xc8>
    44c8:	0013      	movs	r3, r2
    44ca:	203f      	movs	r0, #63	; 0x3f
    44cc:	3387      	adds	r3, #135	; 0x87
    44ce:	7018      	strb	r0, [r3, #0]
    44d0:	2000      	movs	r0, #0
    44d2:	1e4b      	subs	r3, r1, #1
    44d4:	088f      	lsrs	r7, r1, #2
    44d6:	9302      	str	r3, [sp, #8]
    44d8:	42b8      	cmp	r0, r7
    44da:	d018      	beq.n	450e <_eeprom_emulator_update_page_mapping+0x62>
    44dc:	0083      	lsls	r3, r0, #2
    44de:	b29b      	uxth	r3, r3
    44e0:	1d1d      	adds	r5, r3, #4
    44e2:	b2a9      	uxth	r1, r5
    44e4:	2501      	movs	r5, #1
    44e6:	1c44      	adds	r4, r0, #1
    44e8:	b2a4      	uxth	r4, r4
    44ea:	9101      	str	r1, [sp, #4]
    44ec:	9902      	ldr	r1, [sp, #8]
    44ee:	428b      	cmp	r3, r1
    44f0:	d004      	beq.n	44fc <_eeprom_emulator_update_page_mapping+0x50>
    44f2:	0199      	lsls	r1, r3, #6
    44f4:	5d89      	ldrb	r1, [r1, r6]
    44f6:	29ff      	cmp	r1, #255	; 0xff
    44f8:	d000      	beq.n	44fc <_eeprom_emulator_update_page_mapping+0x50>
    44fa:	2500      	movs	r5, #0
    44fc:	3301      	adds	r3, #1
    44fe:	9901      	ldr	r1, [sp, #4]
    4500:	b29b      	uxth	r3, r3
    4502:	428b      	cmp	r3, r1
    4504:	d1f2      	bne.n	44ec <_eeprom_emulator_update_page_mapping+0x40>
    4506:	2d00      	cmp	r5, #0
    4508:	d041      	beq.n	458e <_eeprom_emulator_update_page_mapping+0xe2>
    450a:	3287      	adds	r2, #135	; 0x87
    450c:	7010      	strb	r0, [r2, #0]
    450e:	b005      	add	sp, #20
    4510:	bdf0      	pop	{r4, r5, r6, r7, pc}
    4512:	6853      	ldr	r3, [r2, #4]
    4514:	01ae      	lsls	r6, r5, #6
    4516:	5d9f      	ldrb	r7, [r3, r6]
    4518:	2fff      	cmp	r7, #255	; 0xff
    451a:	d102      	bne.n	4522 <_eeprom_emulator_update_page_mapping+0x76>
    451c:	3504      	adds	r5, #4
    451e:	b2ad      	uxth	r5, r5
    4520:	e7c7      	b.n	44b2 <_eeprom_emulator_update_page_mapping+0x6>
    4522:	0033      	movs	r3, r6
    4524:	3380      	adds	r3, #128	; 0x80
    4526:	9302      	str	r3, [sp, #8]
    4528:	3b40      	subs	r3, #64	; 0x40
    452a:	9303      	str	r3, [sp, #12]
    452c:	08ab      	lsrs	r3, r5, #2
    452e:	1d2c      	adds	r4, r5, #4
    4530:	b2db      	uxtb	r3, r3
    4532:	b2a4      	uxth	r4, r4
    4534:	9301      	str	r3, [sp, #4]
    4536:	4a17      	ldr	r2, [pc, #92]	; (4594 <_eeprom_emulator_update_page_mapping+0xe8>)
    4538:	8913      	ldrh	r3, [r2, #8]
    453a:	429c      	cmp	r4, r3
    453c:	d2ee      	bcs.n	451c <_eeprom_emulator_update_page_mapping+0x70>
    453e:	3b01      	subs	r3, #1
    4540:	429c      	cmp	r4, r3
    4542:	d014      	beq.n	456e <_eeprom_emulator_update_page_mapping+0xc2>
    4544:	6853      	ldr	r3, [r2, #4]
    4546:	01a2      	lsls	r2, r4, #6
    4548:	5c9a      	ldrb	r2, [r3, r2]
    454a:	2aff      	cmp	r2, #255	; 0xff
    454c:	d00f      	beq.n	456e <_eeprom_emulator_update_page_mapping+0xc2>
    454e:	4297      	cmp	r7, r2
    4550:	d10d      	bne.n	456e <_eeprom_emulator_update_page_mapping+0xc2>
    4552:	9a02      	ldr	r2, [sp, #8]
    4554:	5d99      	ldrb	r1, [r3, r6]
    4556:	5c9a      	ldrb	r2, [r3, r2]
    4558:	4291      	cmp	r1, r2
    455a:	d005      	beq.n	4568 <_eeprom_emulator_update_page_mapping+0xbc>
    455c:	9903      	ldr	r1, [sp, #12]
    455e:	08a0      	lsrs	r0, r4, #2
    4560:	5c5b      	ldrb	r3, [r3, r1]
    4562:	b2c0      	uxtb	r0, r0
    4564:	4293      	cmp	r3, r2
    4566:	d100      	bne.n	456a <_eeprom_emulator_update_page_mapping+0xbe>
    4568:	9801      	ldr	r0, [sp, #4]
    456a:	4b0b      	ldr	r3, [pc, #44]	; (4598 <_eeprom_emulator_update_page_mapping+0xec>)
    456c:	4798      	blx	r3
    456e:	3404      	adds	r4, #4
    4570:	b2a4      	uxth	r4, r4
    4572:	e7e0      	b.n	4536 <_eeprom_emulator_update_page_mapping+0x8a>
    4574:	429f      	cmp	r7, r3
    4576:	d008      	beq.n	458a <_eeprom_emulator_update_page_mapping+0xde>
    4578:	0198      	lsls	r0, r3, #6
    457a:	5c30      	ldrb	r0, [r6, r0]
    457c:	b284      	uxth	r4, r0
    457e:	2cff      	cmp	r4, #255	; 0xff
    4580:	d003      	beq.n	458a <_eeprom_emulator_update_page_mapping+0xde>
    4582:	42ac      	cmp	r4, r5
    4584:	d201      	bcs.n	458a <_eeprom_emulator_update_page_mapping+0xde>
    4586:	1810      	adds	r0, r2, r0
    4588:	72c3      	strb	r3, [r0, #11]
    458a:	3301      	adds	r3, #1
    458c:	e799      	b.n	44c2 <_eeprom_emulator_update_page_mapping+0x16>
    458e:	0020      	movs	r0, r4
    4590:	e7a2      	b.n	44d8 <_eeprom_emulator_update_page_mapping+0x2c>
    4592:	46c0      	nop			; (mov r8, r8)
    4594:	20000b44 	.word	0x20000b44
    4598:	00004491 	.word	0x00004491

0000459c <_eeprom_emulator_nvm_read_page>:
    459c:	b570      	push	{r4, r5, r6, lr}
    459e:	000d      	movs	r5, r1
    45a0:	0184      	lsls	r4, r0, #6
    45a2:	4b05      	ldr	r3, [pc, #20]	; (45b8 <_eeprom_emulator_nvm_read_page+0x1c>)
    45a4:	2240      	movs	r2, #64	; 0x40
    45a6:	6858      	ldr	r0, [r3, #4]
    45a8:	0029      	movs	r1, r5
    45aa:	1900      	adds	r0, r0, r4
    45ac:	4b03      	ldr	r3, [pc, #12]	; (45bc <_eeprom_emulator_nvm_read_page+0x20>)
    45ae:	4798      	blx	r3
    45b0:	2805      	cmp	r0, #5
    45b2:	d0f6      	beq.n	45a2 <_eeprom_emulator_nvm_read_page+0x6>
    45b4:	bd70      	pop	{r4, r5, r6, pc}
    45b6:	46c0      	nop			; (mov r8, r8)
    45b8:	20000b44 	.word	0x20000b44
    45bc:	000042f5 	.word	0x000042f5

000045c0 <_eeprom_emulator_nvm_fill_cache>:
    45c0:	b570      	push	{r4, r5, r6, lr}
    45c2:	000d      	movs	r5, r1
    45c4:	0184      	lsls	r4, r0, #6
    45c6:	4b05      	ldr	r3, [pc, #20]	; (45dc <_eeprom_emulator_nvm_fill_cache+0x1c>)
    45c8:	2240      	movs	r2, #64	; 0x40
    45ca:	6858      	ldr	r0, [r3, #4]
    45cc:	0029      	movs	r1, r5
    45ce:	1900      	adds	r0, r0, r4
    45d0:	4b03      	ldr	r3, [pc, #12]	; (45e0 <_eeprom_emulator_nvm_fill_cache+0x20>)
    45d2:	4798      	blx	r3
    45d4:	2805      	cmp	r0, #5
    45d6:	d0f6      	beq.n	45c6 <_eeprom_emulator_nvm_fill_cache+0x6>
    45d8:	bd70      	pop	{r4, r5, r6, pc}
    45da:	46c0      	nop			; (mov r8, r8)
    45dc:	20000b44 	.word	0x20000b44
    45e0:	00004231 	.word	0x00004231

000045e4 <_eeprom_emulator_nvm_commit_cache>:
    45e4:	b510      	push	{r4, lr}
    45e6:	0184      	lsls	r4, r0, #6
    45e8:	4b04      	ldr	r3, [pc, #16]	; (45fc <_eeprom_emulator_nvm_commit_cache+0x18>)
    45ea:	2200      	movs	r2, #0
    45ec:	6859      	ldr	r1, [r3, #4]
    45ee:	2004      	movs	r0, #4
    45f0:	1909      	adds	r1, r1, r4
    45f2:	4b03      	ldr	r3, [pc, #12]	; (4600 <_eeprom_emulator_nvm_commit_cache+0x1c>)
    45f4:	4798      	blx	r3
    45f6:	2805      	cmp	r0, #5
    45f8:	d0f6      	beq.n	45e8 <_eeprom_emulator_nvm_commit_cache+0x4>
    45fa:	bd10      	pop	{r4, pc}
    45fc:	20000b44 	.word	0x20000b44
    4600:	00004141 	.word	0x00004141

00004604 <eeprom_emulator_init>:
    4604:	2301      	movs	r3, #1
    4606:	2200      	movs	r2, #0
    4608:	b5f0      	push	{r4, r5, r6, r7, lr}
    460a:	b09b      	sub	sp, #108	; 0x6c
    460c:	ac01      	add	r4, sp, #4
    460e:	7063      	strb	r3, [r4, #1]
    4610:	4b27      	ldr	r3, [pc, #156]	; (46b0 <eeprom_emulator_init+0xac>)
    4612:	7022      	strb	r2, [r4, #0]
    4614:	685b      	ldr	r3, [r3, #4]
    4616:	70e2      	strb	r2, [r4, #3]
    4618:	06db      	lsls	r3, r3, #27
    461a:	0f1b      	lsrs	r3, r3, #28
    461c:	70a3      	strb	r3, [r4, #2]
    461e:	7122      	strb	r2, [r4, #4]
    4620:	0020      	movs	r0, r4
    4622:	4b24      	ldr	r3, [pc, #144]	; (46b4 <eeprom_emulator_init+0xb0>)
    4624:	4798      	blx	r3
    4626:	2805      	cmp	r0, #5
    4628:	d0fa      	beq.n	4620 <eeprom_emulator_init+0x1c>
    462a:	a806      	add	r0, sp, #24
    462c:	4b22      	ldr	r3, [pc, #136]	; (46b8 <eeprom_emulator_init+0xb4>)
    462e:	4798      	blx	r3
    4630:	9b07      	ldr	r3, [sp, #28]
    4632:	2016      	movs	r0, #22
    4634:	2b0b      	cmp	r3, #11
    4636:	d937      	bls.n	46a8 <eeprom_emulator_init+0xa4>
    4638:	001a      	movs	r2, r3
    463a:	4c20      	ldr	r4, [pc, #128]	; (46bc <eeprom_emulator_init+0xb8>)
    463c:	3a08      	subs	r2, #8
    463e:	0852      	lsrs	r2, r2, #1
    4640:	72a2      	strb	r2, [r4, #10]
    4642:	2280      	movs	r2, #128	; 0x80
    4644:	8123      	strh	r3, [r4, #8]
    4646:	b29b      	uxth	r3, r3
    4648:	019b      	lsls	r3, r3, #6
    464a:	0292      	lsls	r2, r2, #10
    464c:	425b      	negs	r3, r3
    464e:	189b      	adds	r3, r3, r2
    4650:	6063      	str	r3, [r4, #4]
    4652:	0023      	movs	r3, r4
    4654:	2700      	movs	r7, #0
    4656:	33c8      	adds	r3, #200	; 0xc8
    4658:	701f      	strb	r7, [r3, #0]
    465a:	4b19      	ldr	r3, [pc, #100]	; (46c0 <eeprom_emulator_init+0xbc>)
    465c:	4798      	blx	r3
    465e:	0023      	movs	r3, r4
    4660:	3387      	adds	r3, #135	; 0x87
    4662:	781b      	ldrb	r3, [r3, #0]
    4664:	201a      	movs	r0, #26
    4666:	2b3f      	cmp	r3, #63	; 0x3f
    4668:	d01e      	beq.n	46a8 <eeprom_emulator_init+0xa4>
    466a:	ae03      	add	r6, sp, #12
    466c:	0032      	movs	r2, r6
    466e:	4b15      	ldr	r3, [pc, #84]	; (46c4 <eeprom_emulator_init+0xc0>)
    4670:	cb23      	ldmia	r3!, {r0, r1, r5}
    4672:	c223      	stmia	r2!, {r0, r1, r5}
    4674:	8920      	ldrh	r0, [r4, #8]
    4676:	ad0a      	add	r5, sp, #40	; 0x28
    4678:	3801      	subs	r0, #1
    467a:	b280      	uxth	r0, r0
    467c:	0029      	movs	r1, r5
    467e:	4b12      	ldr	r3, [pc, #72]	; (46c8 <eeprom_emulator_init+0xc4>)
    4680:	4798      	blx	r3
    4682:	59eb      	ldr	r3, [r5, r7]
    4684:	59f2      	ldr	r2, [r6, r7]
    4686:	4293      	cmp	r3, r2
    4688:	d110      	bne.n	46ac <eeprom_emulator_init+0xa8>
    468a:	3704      	adds	r7, #4
    468c:	2f0c      	cmp	r7, #12
    468e:	d1f8      	bne.n	4682 <eeprom_emulator_init+0x7e>
    4690:	7beb      	ldrb	r3, [r5, #15]
    4692:	2010      	movs	r0, #16
    4694:	2b01      	cmp	r3, #1
    4696:	d107      	bne.n	46a8 <eeprom_emulator_init+0xa4>
    4698:	7b2a      	ldrb	r2, [r5, #12]
    469a:	2a01      	cmp	r2, #1
    469c:	d104      	bne.n	46a8 <eeprom_emulator_init+0xa4>
    469e:	7b6b      	ldrb	r3, [r5, #13]
    46a0:	2b00      	cmp	r3, #0
    46a2:	d101      	bne.n	46a8 <eeprom_emulator_init+0xa4>
    46a4:	0018      	movs	r0, r3
    46a6:	7022      	strb	r2, [r4, #0]
    46a8:	b01b      	add	sp, #108	; 0x6c
    46aa:	bdf0      	pop	{r4, r5, r6, r7, pc}
    46ac:	201a      	movs	r0, #26
    46ae:	e7fb      	b.n	46a8 <eeprom_emulator_init+0xa4>
    46b0:	41004000 	.word	0x41004000
    46b4:	000040b9 	.word	0x000040b9
    46b8:	00004415 	.word	0x00004415
    46bc:	20000b44 	.word	0x20000b44
    46c0:	000044ad 	.word	0x000044ad
    46c4:	0000d384 	.word	0x0000d384
    46c8:	0000459d 	.word	0x0000459d

000046cc <eeprom_emulator_erase_memory>:
    46cc:	b5f0      	push	{r4, r5, r6, r7, lr}
    46ce:	4e2b      	ldr	r6, [pc, #172]	; (477c <eeprom_emulator_erase_memory+0xb0>)
    46d0:	2500      	movs	r5, #0
    46d2:	0033      	movs	r3, r6
    46d4:	3387      	adds	r3, #135	; 0x87
    46d6:	701d      	strb	r5, [r3, #0]
    46d8:	b091      	sub	sp, #68	; 0x44
    46da:	0028      	movs	r0, r5
    46dc:	4b28      	ldr	r3, [pc, #160]	; (4780 <eeprom_emulator_erase_memory+0xb4>)
    46de:	4798      	blx	r3
    46e0:	2404      	movs	r4, #4
    46e2:	8933      	ldrh	r3, [r6, #8]
    46e4:	1e5f      	subs	r7, r3, #1
    46e6:	429c      	cmp	r4, r3
    46e8:	d328      	bcc.n	473c <eeprom_emulator_erase_memory+0x70>
    46ea:	21ff      	movs	r1, #255	; 0xff
    46ec:	2240      	movs	r2, #64	; 0x40
    46ee:	4668      	mov	r0, sp
    46f0:	4b24      	ldr	r3, [pc, #144]	; (4784 <eeprom_emulator_erase_memory+0xb8>)
    46f2:	4798      	blx	r3
    46f4:	4b24      	ldr	r3, [pc, #144]	; (4788 <eeprom_emulator_erase_memory+0xbc>)
    46f6:	466a      	mov	r2, sp
    46f8:	9300      	str	r3, [sp, #0]
    46fa:	4b24      	ldr	r3, [pc, #144]	; (478c <eeprom_emulator_erase_memory+0xc0>)
    46fc:	17f8      	asrs	r0, r7, #31
    46fe:	9301      	str	r3, [sp, #4]
    4700:	4b23      	ldr	r3, [pc, #140]	; (4790 <eeprom_emulator_erase_memory+0xc4>)
    4702:	9302      	str	r3, [sp, #8]
    4704:	2301      	movs	r3, #1
    4706:	73d3      	strb	r3, [r2, #15]
    4708:	7313      	strb	r3, [r2, #12]
    470a:	2300      	movs	r3, #0
    470c:	7353      	strb	r3, [r2, #13]
    470e:	7393      	strb	r3, [r2, #14]
    4710:	3303      	adds	r3, #3
    4712:	4018      	ands	r0, r3
    4714:	19c7      	adds	r7, r0, r7
    4716:	10bf      	asrs	r7, r7, #2
    4718:	b2f8      	uxtb	r0, r7
    471a:	4b19      	ldr	r3, [pc, #100]	; (4780 <eeprom_emulator_erase_memory+0xb4>)
    471c:	4798      	blx	r3
    471e:	8930      	ldrh	r0, [r6, #8]
    4720:	4669      	mov	r1, sp
    4722:	3801      	subs	r0, #1
    4724:	b280      	uxth	r0, r0
    4726:	4b1b      	ldr	r3, [pc, #108]	; (4794 <eeprom_emulator_erase_memory+0xc8>)
    4728:	4798      	blx	r3
    472a:	8930      	ldrh	r0, [r6, #8]
    472c:	4b1a      	ldr	r3, [pc, #104]	; (4798 <eeprom_emulator_erase_memory+0xcc>)
    472e:	3801      	subs	r0, #1
    4730:	b280      	uxth	r0, r0
    4732:	4798      	blx	r3
    4734:	4b19      	ldr	r3, [pc, #100]	; (479c <eeprom_emulator_erase_memory+0xd0>)
    4736:	4798      	blx	r3
    4738:	b011      	add	sp, #68	; 0x44
    473a:	bdf0      	pop	{r4, r5, r6, r7, pc}
    473c:	42bc      	cmp	r4, r7
    473e:	d019      	beq.n	4774 <eeprom_emulator_erase_memory+0xa8>
    4740:	2303      	movs	r3, #3
    4742:	4023      	ands	r3, r4
    4744:	d114      	bne.n	4770 <eeprom_emulator_erase_memory+0xa4>
    4746:	08a0      	lsrs	r0, r4, #2
    4748:	b2c0      	uxtb	r0, r0
    474a:	4b0d      	ldr	r3, [pc, #52]	; (4780 <eeprom_emulator_erase_memory+0xb4>)
    474c:	4798      	blx	r3
    474e:	2240      	movs	r2, #64	; 0x40
    4750:	21ff      	movs	r1, #255	; 0xff
    4752:	4b0c      	ldr	r3, [pc, #48]	; (4784 <eeprom_emulator_erase_memory+0xb8>)
    4754:	4668      	mov	r0, sp
    4756:	4798      	blx	r3
    4758:	466b      	mov	r3, sp
    475a:	4669      	mov	r1, sp
    475c:	701d      	strb	r5, [r3, #0]
    475e:	0020      	movs	r0, r4
    4760:	4b0c      	ldr	r3, [pc, #48]	; (4794 <eeprom_emulator_erase_memory+0xc8>)
    4762:	4798      	blx	r3
    4764:	3501      	adds	r5, #1
    4766:	0020      	movs	r0, r4
    4768:	4b0b      	ldr	r3, [pc, #44]	; (4798 <eeprom_emulator_erase_memory+0xcc>)
    476a:	4798      	blx	r3
    476c:	b2ad      	uxth	r5, r5
    476e:	e001      	b.n	4774 <eeprom_emulator_erase_memory+0xa8>
    4770:	2b01      	cmp	r3, #1
    4772:	d0ec      	beq.n	474e <eeprom_emulator_erase_memory+0x82>
    4774:	3401      	adds	r4, #1
    4776:	b2a4      	uxth	r4, r4
    4778:	e7b3      	b.n	46e2 <eeprom_emulator_erase_memory+0x16>
    477a:	46c0      	nop			; (mov r8, r8)
    477c:	20000b44 	.word	0x20000b44
    4780:	00004491 	.word	0x00004491
    4784:	000079ad 	.word	0x000079ad
    4788:	41744545 	.word	0x41744545
    478c:	50524f4d 	.word	0x50524f4d
    4790:	456d752e 	.word	0x456d752e
    4794:	000045c1 	.word	0x000045c1
    4798:	000045e5 	.word	0x000045e5
    479c:	000044ad 	.word	0x000044ad

000047a0 <eeprom_emulator_read_page>:
    47a0:	b530      	push	{r4, r5, lr}
    47a2:	000c      	movs	r4, r1
    47a4:	4912      	ldr	r1, [pc, #72]	; (47f0 <eeprom_emulator_read_page+0x50>)
    47a6:	b091      	sub	sp, #68	; 0x44
    47a8:	780a      	ldrb	r2, [r1, #0]
    47aa:	231f      	movs	r3, #31
    47ac:	2a00      	cmp	r2, #0
    47ae:	d013      	beq.n	47d8 <eeprom_emulator_read_page+0x38>
    47b0:	7a8a      	ldrb	r2, [r1, #10]
    47b2:	3b07      	subs	r3, #7
    47b4:	4282      	cmp	r2, r0
    47b6:	d90f      	bls.n	47d8 <eeprom_emulator_read_page+0x38>
    47b8:	000b      	movs	r3, r1
    47ba:	33c8      	adds	r3, #200	; 0xc8
    47bc:	781b      	ldrb	r3, [r3, #0]
    47be:	4d0d      	ldr	r5, [pc, #52]	; (47f4 <eeprom_emulator_read_page+0x54>)
    47c0:	2b00      	cmp	r3, #0
    47c2:	d00c      	beq.n	47de <eeprom_emulator_read_page+0x3e>
    47c4:	000b      	movs	r3, r1
    47c6:	3388      	adds	r3, #136	; 0x88
    47c8:	781b      	ldrb	r3, [r3, #0]
    47ca:	4283      	cmp	r3, r0
    47cc:	d107      	bne.n	47de <eeprom_emulator_read_page+0x3e>
    47ce:	223c      	movs	r2, #60	; 0x3c
    47d0:	318c      	adds	r1, #140	; 0x8c
    47d2:	0020      	movs	r0, r4
    47d4:	47a8      	blx	r5
    47d6:	2300      	movs	r3, #0
    47d8:	0018      	movs	r0, r3
    47da:	b011      	add	sp, #68	; 0x44
    47dc:	bd30      	pop	{r4, r5, pc}
    47de:	1809      	adds	r1, r1, r0
    47e0:	7ac8      	ldrb	r0, [r1, #11]
    47e2:	4b05      	ldr	r3, [pc, #20]	; (47f8 <eeprom_emulator_read_page+0x58>)
    47e4:	4669      	mov	r1, sp
    47e6:	4798      	blx	r3
    47e8:	223c      	movs	r2, #60	; 0x3c
    47ea:	a901      	add	r1, sp, #4
    47ec:	e7f1      	b.n	47d2 <eeprom_emulator_read_page+0x32>
    47ee:	46c0      	nop			; (mov r8, r8)
    47f0:	20000b44 	.word	0x20000b44
    47f4:	00007929 	.word	0x00007929
    47f8:	0000459d 	.word	0x0000459d

000047fc <eeprom_emulator_read_buffer>:
    47fc:	b5f0      	push	{r4, r5, r6, r7, lr}
    47fe:	b095      	sub	sp, #84	; 0x54
    4800:	4b1d      	ldr	r3, [pc, #116]	; (4878 <eeprom_emulator_read_buffer+0x7c>)
    4802:	9102      	str	r1, [sp, #8]
    4804:	9203      	str	r2, [sp, #12]
    4806:	213c      	movs	r1, #60	; 0x3c
    4808:	0005      	movs	r5, r0
    480a:	4798      	blx	r3
    480c:	af05      	add	r7, sp, #20
    480e:	b2c6      	uxtb	r6, r0
    4810:	0039      	movs	r1, r7
    4812:	0030      	movs	r0, r6
    4814:	4b19      	ldr	r3, [pc, #100]	; (487c <eeprom_emulator_read_buffer+0x80>)
    4816:	4798      	blx	r3
    4818:	9001      	str	r0, [sp, #4]
    481a:	2800      	cmp	r0, #0
    481c:	d110      	bne.n	4840 <eeprom_emulator_read_buffer+0x44>
    481e:	213c      	movs	r1, #60	; 0x3c
    4820:	0028      	movs	r0, r5
    4822:	4b17      	ldr	r3, [pc, #92]	; (4880 <eeprom_emulator_read_buffer+0x84>)
    4824:	4798      	blx	r3
    4826:	b289      	uxth	r1, r1
    4828:	002c      	movs	r4, r5
    482a:	2900      	cmp	r1, #0
    482c:	d104      	bne.n	4838 <eeprom_emulator_read_buffer+0x3c>
    482e:	783b      	ldrb	r3, [r7, #0]
    4830:	9a02      	ldr	r2, [sp, #8]
    4832:	1c6c      	adds	r4, r5, #1
    4834:	7013      	strb	r3, [r2, #0]
    4836:	b2a4      	uxth	r4, r4
    4838:	9b03      	ldr	r3, [sp, #12]
    483a:	195b      	adds	r3, r3, r5
    483c:	429c      	cmp	r4, r3
    483e:	db02      	blt.n	4846 <eeprom_emulator_read_buffer+0x4a>
    4840:	9801      	ldr	r0, [sp, #4]
    4842:	b015      	add	sp, #84	; 0x54
    4844:	bdf0      	pop	{r4, r5, r6, r7, pc}
    4846:	213c      	movs	r1, #60	; 0x3c
    4848:	0020      	movs	r0, r4
    484a:	4b0d      	ldr	r3, [pc, #52]	; (4880 <eeprom_emulator_read_buffer+0x84>)
    484c:	4798      	blx	r3
    484e:	b28f      	uxth	r7, r1
    4850:	2f00      	cmp	r7, #0
    4852:	d107      	bne.n	4864 <eeprom_emulator_read_buffer+0x68>
    4854:	3601      	adds	r6, #1
    4856:	b2f6      	uxtb	r6, r6
    4858:	a905      	add	r1, sp, #20
    485a:	0030      	movs	r0, r6
    485c:	4b07      	ldr	r3, [pc, #28]	; (487c <eeprom_emulator_read_buffer+0x80>)
    485e:	4798      	blx	r3
    4860:	2800      	cmp	r0, #0
    4862:	d106      	bne.n	4872 <eeprom_emulator_read_buffer+0x76>
    4864:	aa05      	add	r2, sp, #20
    4866:	5dd2      	ldrb	r2, [r2, r7]
    4868:	9902      	ldr	r1, [sp, #8]
    486a:	1b63      	subs	r3, r4, r5
    486c:	54ca      	strb	r2, [r1, r3]
    486e:	3401      	adds	r4, #1
    4870:	e7e1      	b.n	4836 <eeprom_emulator_read_buffer+0x3a>
    4872:	9001      	str	r0, [sp, #4]
    4874:	e7e4      	b.n	4840 <eeprom_emulator_read_buffer+0x44>
    4876:	46c0      	nop			; (mov r8, r8)
    4878:	000058f9 	.word	0x000058f9
    487c:	000047a1 	.word	0x000047a1
    4880:	00005a05 	.word	0x00005a05

00004884 <eeprom_emulator_commit_page_buffer>:
    4884:	4b08      	ldr	r3, [pc, #32]	; (48a8 <eeprom_emulator_commit_page_buffer+0x24>)
    4886:	b510      	push	{r4, lr}
    4888:	001c      	movs	r4, r3
    488a:	34c8      	adds	r4, #200	; 0xc8
    488c:	7822      	ldrb	r2, [r4, #0]
    488e:	2a00      	cmp	r2, #0
    4890:	d008      	beq.n	48a4 <eeprom_emulator_commit_page_buffer+0x20>
    4892:	001a      	movs	r2, r3
    4894:	3288      	adds	r2, #136	; 0x88
    4896:	7812      	ldrb	r2, [r2, #0]
    4898:	189b      	adds	r3, r3, r2
    489a:	7ad8      	ldrb	r0, [r3, #11]
    489c:	4b03      	ldr	r3, [pc, #12]	; (48ac <eeprom_emulator_commit_page_buffer+0x28>)
    489e:	4798      	blx	r3
    48a0:	2300      	movs	r3, #0
    48a2:	7023      	strb	r3, [r4, #0]
    48a4:	2000      	movs	r0, #0
    48a6:	bd10      	pop	{r4, pc}
    48a8:	20000b44 	.word	0x20000b44
    48ac:	000045e5 	.word	0x000045e5

000048b0 <eeprom_emulator_write_page>:
    48b0:	b5f0      	push	{r4, r5, r6, r7, lr}
    48b2:	4c4c      	ldr	r4, [pc, #304]	; (49e4 <eeprom_emulator_write_page+0x134>)
    48b4:	b087      	sub	sp, #28
    48b6:	7823      	ldrb	r3, [r4, #0]
    48b8:	0005      	movs	r5, r0
    48ba:	9103      	str	r1, [sp, #12]
    48bc:	201f      	movs	r0, #31
    48be:	2b00      	cmp	r3, #0
    48c0:	d077      	beq.n	49b2 <eeprom_emulator_write_page+0x102>
    48c2:	7aa3      	ldrb	r3, [r4, #10]
    48c4:	3807      	subs	r0, #7
    48c6:	42ab      	cmp	r3, r5
    48c8:	d973      	bls.n	49b2 <eeprom_emulator_write_page+0x102>
    48ca:	0023      	movs	r3, r4
    48cc:	33c8      	adds	r3, #200	; 0xc8
    48ce:	781b      	ldrb	r3, [r3, #0]
    48d0:	2b00      	cmp	r3, #0
    48d2:	d006      	beq.n	48e2 <eeprom_emulator_write_page+0x32>
    48d4:	0023      	movs	r3, r4
    48d6:	3388      	adds	r3, #136	; 0x88
    48d8:	781b      	ldrb	r3, [r3, #0]
    48da:	42ab      	cmp	r3, r5
    48dc:	d001      	beq.n	48e2 <eeprom_emulator_write_page+0x32>
    48de:	4b42      	ldr	r3, [pc, #264]	; (49e8 <eeprom_emulator_write_page+0x138>)
    48e0:	4798      	blx	r3
    48e2:	1963      	adds	r3, r4, r5
    48e4:	7ad9      	ldrb	r1, [r3, #11]
    48e6:	2303      	movs	r3, #3
    48e8:	000e      	movs	r6, r1
    48ea:	000a      	movs	r2, r1
    48ec:	439e      	bics	r6, r3
    48ee:	401a      	ands	r2, r3
    48f0:	0033      	movs	r3, r6
    48f2:	6860      	ldr	r0, [r4, #4]
    48f4:	189e      	adds	r6, r3, r2
    48f6:	b2f6      	uxtb	r6, r6
    48f8:	01b7      	lsls	r7, r6, #6
    48fa:	5c3f      	ldrb	r7, [r7, r0]
    48fc:	2fff      	cmp	r7, #255	; 0xff
    48fe:	d05f      	beq.n	49c0 <eeprom_emulator_write_page+0x110>
    4900:	3201      	adds	r2, #1
    4902:	b2d2      	uxtb	r2, r2
    4904:	2a04      	cmp	r2, #4
    4906:	d1f5      	bne.n	48f4 <eeprom_emulator_write_page+0x44>
    4908:	088a      	lsrs	r2, r1, #2
    490a:	0214      	lsls	r4, r2, #8
    490c:	1904      	adds	r4, r0, r4
    490e:	1c5e      	adds	r6, r3, #1
    4910:	9201      	str	r2, [sp, #4]
    4912:	aa05      	add	r2, sp, #20
    4914:	0021      	movs	r1, r4
    4916:	70d6      	strb	r6, [r2, #3]
    4918:	0026      	movs	r6, r4
    491a:	3140      	adds	r1, #64	; 0x40
    491c:	3680      	adds	r6, #128	; 0x80
    491e:	7820      	ldrb	r0, [r4, #0]
    4920:	7809      	ldrb	r1, [r1, #0]
    4922:	7836      	ldrb	r6, [r6, #0]
    4924:	34c0      	adds	r4, #192	; 0xc0
    4926:	7010      	strb	r0, [r2, #0]
    4928:	7053      	strb	r3, [r2, #1]
    492a:	7091      	strb	r1, [r2, #2]
    492c:	7824      	ldrb	r4, [r4, #0]
    492e:	4286      	cmp	r6, r0
    4930:	d101      	bne.n	4936 <eeprom_emulator_write_page+0x86>
    4932:	1c9f      	adds	r7, r3, #2
    4934:	7057      	strb	r7, [r2, #1]
    4936:	42a0      	cmp	r0, r4
    4938:	d101      	bne.n	493e <eeprom_emulator_write_page+0x8e>
    493a:	1cd8      	adds	r0, r3, #3
    493c:	7050      	strb	r0, [r2, #1]
    493e:	428e      	cmp	r6, r1
    4940:	d101      	bne.n	4946 <eeprom_emulator_write_page+0x96>
    4942:	1c98      	adds	r0, r3, #2
    4944:	70d0      	strb	r0, [r2, #3]
    4946:	42a1      	cmp	r1, r4
    4948:	d101      	bne.n	494e <eeprom_emulator_write_page+0x9e>
    494a:	3303      	adds	r3, #3
    494c:	70d3      	strb	r3, [r2, #3]
    494e:	2600      	movs	r6, #0
    4950:	4c24      	ldr	r4, [pc, #144]	; (49e4 <eeprom_emulator_write_page+0x134>)
    4952:	0023      	movs	r3, r4
    4954:	3387      	adds	r3, #135	; 0x87
    4956:	781b      	ldrb	r3, [r3, #0]
    4958:	009b      	lsls	r3, r3, #2
    495a:	199b      	adds	r3, r3, r6
    495c:	9302      	str	r3, [sp, #8]
    495e:	4b22      	ldr	r3, [pc, #136]	; (49e8 <eeprom_emulator_write_page+0x138>)
    4960:	4798      	blx	r3
    4962:	0021      	movs	r1, r4
    4964:	0072      	lsls	r2, r6, #1
    4966:	ab05      	add	r3, sp, #20
    4968:	5cd7      	ldrb	r7, [r2, r3]
    496a:	3188      	adds	r1, #136	; 0x88
    496c:	42bd      	cmp	r5, r7
    496e:	d122      	bne.n	49b6 <eeprom_emulator_write_page+0x106>
    4970:	0020      	movs	r0, r4
    4972:	700d      	strb	r5, [r1, #0]
    4974:	308c      	adds	r0, #140	; 0x8c
    4976:	223c      	movs	r2, #60	; 0x3c
    4978:	9903      	ldr	r1, [sp, #12]
    497a:	4b1c      	ldr	r3, [pc, #112]	; (49ec <eeprom_emulator_write_page+0x13c>)
    497c:	4798      	blx	r3
    497e:	4c19      	ldr	r4, [pc, #100]	; (49e4 <eeprom_emulator_write_page+0x134>)
    4980:	466b      	mov	r3, sp
    4982:	0021      	movs	r1, r4
    4984:	8918      	ldrh	r0, [r3, #8]
    4986:	3188      	adds	r1, #136	; 0x88
    4988:	4b19      	ldr	r3, [pc, #100]	; (49f0 <eeprom_emulator_write_page+0x140>)
    498a:	4798      	blx	r3
    498c:	466b      	mov	r3, sp
    498e:	7a1b      	ldrb	r3, [r3, #8]
    4990:	19e7      	adds	r7, r4, r7
    4992:	72fb      	strb	r3, [r7, #11]
    4994:	0023      	movs	r3, r4
    4996:	2201      	movs	r2, #1
    4998:	33c8      	adds	r3, #200	; 0xc8
    499a:	3601      	adds	r6, #1
    499c:	701a      	strb	r2, [r3, #0]
    499e:	2e02      	cmp	r6, #2
    49a0:	d1d6      	bne.n	4950 <eeprom_emulator_write_page+0xa0>
    49a2:	4b14      	ldr	r3, [pc, #80]	; (49f4 <eeprom_emulator_write_page+0x144>)
    49a4:	9801      	ldr	r0, [sp, #4]
    49a6:	4798      	blx	r3
    49a8:	466b      	mov	r3, sp
    49aa:	791b      	ldrb	r3, [r3, #4]
    49ac:	3487      	adds	r4, #135	; 0x87
    49ae:	2000      	movs	r0, #0
    49b0:	7023      	strb	r3, [r4, #0]
    49b2:	b007      	add	sp, #28
    49b4:	bdf0      	pop	{r4, r5, r6, r7, pc}
    49b6:	189b      	adds	r3, r3, r2
    49b8:	7858      	ldrb	r0, [r3, #1]
    49ba:	4b0f      	ldr	r3, [pc, #60]	; (49f8 <eeprom_emulator_write_page+0x148>)
    49bc:	4798      	blx	r3
    49be:	e7de      	b.n	497e <eeprom_emulator_write_page+0xce>
    49c0:	0027      	movs	r7, r4
    49c2:	0020      	movs	r0, r4
    49c4:	3788      	adds	r7, #136	; 0x88
    49c6:	223c      	movs	r2, #60	; 0x3c
    49c8:	9903      	ldr	r1, [sp, #12]
    49ca:	4b08      	ldr	r3, [pc, #32]	; (49ec <eeprom_emulator_write_page+0x13c>)
    49cc:	308c      	adds	r0, #140	; 0x8c
    49ce:	703d      	strb	r5, [r7, #0]
    49d0:	4798      	blx	r3
    49d2:	1965      	adds	r5, r4, r5
    49d4:	b2b0      	uxth	r0, r6
    49d6:	0039      	movs	r1, r7
    49d8:	4b05      	ldr	r3, [pc, #20]	; (49f0 <eeprom_emulator_write_page+0x140>)
    49da:	4798      	blx	r3
    49dc:	72ee      	strb	r6, [r5, #11]
    49de:	2301      	movs	r3, #1
    49e0:	34c8      	adds	r4, #200	; 0xc8
    49e2:	e7e4      	b.n	49ae <eeprom_emulator_write_page+0xfe>
    49e4:	20000b44 	.word	0x20000b44
    49e8:	00004885 	.word	0x00004885
    49ec:	00007929 	.word	0x00007929
    49f0:	000045c1 	.word	0x000045c1
    49f4:	00004491 	.word	0x00004491
    49f8:	0000459d 	.word	0x0000459d

000049fc <eeprom_emulator_write_buffer>:
    49fc:	b5f0      	push	{r4, r5, r6, r7, lr}
    49fe:	b093      	sub	sp, #76	; 0x4c
    4a00:	9100      	str	r1, [sp, #0]
    4a02:	9201      	str	r2, [sp, #4]
    4a04:	213c      	movs	r1, #60	; 0x3c
    4a06:	4b24      	ldr	r3, [pc, #144]	; (4a98 <eeprom_emulator_write_buffer+0x9c>)
    4a08:	0006      	movs	r6, r0
    4a0a:	4798      	blx	r3
    4a0c:	213c      	movs	r1, #60	; 0x3c
    4a0e:	b2c4      	uxtb	r4, r0
    4a10:	4b22      	ldr	r3, [pc, #136]	; (4a9c <eeprom_emulator_write_buffer+0xa0>)
    4a12:	0030      	movs	r0, r6
    4a14:	4798      	blx	r3
    4a16:	b28d      	uxth	r5, r1
    4a18:	af03      	add	r7, sp, #12
    4a1a:	2d00      	cmp	r5, #0
    4a1c:	d109      	bne.n	4a32 <eeprom_emulator_write_buffer+0x36>
    4a1e:	9b01      	ldr	r3, [sp, #4]
    4a20:	2b3b      	cmp	r3, #59	; 0x3b
    4a22:	d906      	bls.n	4a32 <eeprom_emulator_write_buffer+0x36>
    4a24:	9b00      	ldr	r3, [sp, #0]
    4a26:	1c75      	adds	r5, r6, #1
    4a28:	781b      	ldrb	r3, [r3, #0]
    4a2a:	703b      	strb	r3, [r7, #0]
    4a2c:	b2ad      	uxth	r5, r5
    4a2e:	2301      	movs	r3, #1
    4a30:	e009      	b.n	4a46 <eeprom_emulator_write_buffer+0x4a>
    4a32:	0039      	movs	r1, r7
    4a34:	0020      	movs	r0, r4
    4a36:	4b1a      	ldr	r3, [pc, #104]	; (4aa0 <eeprom_emulator_write_buffer+0xa4>)
    4a38:	4798      	blx	r3
    4a3a:	2800      	cmp	r0, #0
    4a3c:	d10e      	bne.n	4a5c <eeprom_emulator_write_buffer+0x60>
    4a3e:	2d00      	cmp	r5, #0
    4a40:	d0f0      	beq.n	4a24 <eeprom_emulator_write_buffer+0x28>
    4a42:	0035      	movs	r5, r6
    4a44:	0003      	movs	r3, r0
    4a46:	9a01      	ldr	r2, [sp, #4]
    4a48:	1992      	adds	r2, r2, r6
    4a4a:	4295      	cmp	r5, r2
    4a4c:	db08      	blt.n	4a60 <eeprom_emulator_write_buffer+0x64>
    4a4e:	2000      	movs	r0, #0
    4a50:	4283      	cmp	r3, r0
    4a52:	d003      	beq.n	4a5c <eeprom_emulator_write_buffer+0x60>
    4a54:	a903      	add	r1, sp, #12
    4a56:	0020      	movs	r0, r4
    4a58:	4b12      	ldr	r3, [pc, #72]	; (4aa4 <eeprom_emulator_write_buffer+0xa8>)
    4a5a:	4798      	blx	r3
    4a5c:	b013      	add	sp, #76	; 0x4c
    4a5e:	bdf0      	pop	{r4, r5, r6, r7, pc}
    4a60:	213c      	movs	r1, #60	; 0x3c
    4a62:	0028      	movs	r0, r5
    4a64:	4b0d      	ldr	r3, [pc, #52]	; (4a9c <eeprom_emulator_write_buffer+0xa0>)
    4a66:	4798      	blx	r3
    4a68:	b28f      	uxth	r7, r1
    4a6a:	2f00      	cmp	r7, #0
    4a6c:	d10d      	bne.n	4a8a <eeprom_emulator_write_buffer+0x8e>
    4a6e:	a903      	add	r1, sp, #12
    4a70:	0020      	movs	r0, r4
    4a72:	4b0c      	ldr	r3, [pc, #48]	; (4aa4 <eeprom_emulator_write_buffer+0xa8>)
    4a74:	4798      	blx	r3
    4a76:	2800      	cmp	r0, #0
    4a78:	d1f0      	bne.n	4a5c <eeprom_emulator_write_buffer+0x60>
    4a7a:	3401      	adds	r4, #1
    4a7c:	b2e4      	uxtb	r4, r4
    4a7e:	a903      	add	r1, sp, #12
    4a80:	0020      	movs	r0, r4
    4a82:	4b07      	ldr	r3, [pc, #28]	; (4aa0 <eeprom_emulator_write_buffer+0xa4>)
    4a84:	4798      	blx	r3
    4a86:	2800      	cmp	r0, #0
    4a88:	d1e8      	bne.n	4a5c <eeprom_emulator_write_buffer+0x60>
    4a8a:	9a00      	ldr	r2, [sp, #0]
    4a8c:	1bab      	subs	r3, r5, r6
    4a8e:	5cd2      	ldrb	r2, [r2, r3]
    4a90:	ab03      	add	r3, sp, #12
    4a92:	55da      	strb	r2, [r3, r7]
    4a94:	3501      	adds	r5, #1
    4a96:	e7c9      	b.n	4a2c <eeprom_emulator_write_buffer+0x30>
    4a98:	000058f9 	.word	0x000058f9
    4a9c:	00005a05 	.word	0x00005a05
    4aa0:	000047a1 	.word	0x000047a1
    4aa4:	000048b1 	.word	0x000048b1

00004aa8 <system_board_init>:
    4aa8:	4770      	bx	lr
	...

00004aac <cpu_irq_enter_critical>:
    4aac:	4b09      	ldr	r3, [pc, #36]	; (4ad4 <cpu_irq_enter_critical+0x28>)
    4aae:	6819      	ldr	r1, [r3, #0]
    4ab0:	2900      	cmp	r1, #0
    4ab2:	d10b      	bne.n	4acc <cpu_irq_enter_critical+0x20>
    4ab4:	f3ef 8010 	mrs	r0, PRIMASK
    4ab8:	4a07      	ldr	r2, [pc, #28]	; (4ad8 <cpu_irq_enter_critical+0x2c>)
    4aba:	2800      	cmp	r0, #0
    4abc:	d105      	bne.n	4aca <cpu_irq_enter_critical+0x1e>
    4abe:	b672      	cpsid	i
    4ac0:	f3bf 8f5f 	dmb	sy
    4ac4:	4905      	ldr	r1, [pc, #20]	; (4adc <cpu_irq_enter_critical+0x30>)
    4ac6:	7008      	strb	r0, [r1, #0]
    4ac8:	2101      	movs	r1, #1
    4aca:	7011      	strb	r1, [r2, #0]
    4acc:	681a      	ldr	r2, [r3, #0]
    4ace:	3201      	adds	r2, #1
    4ad0:	601a      	str	r2, [r3, #0]
    4ad2:	4770      	bx	lr
    4ad4:	20000c10 	.word	0x20000c10
    4ad8:	20000c14 	.word	0x20000c14
    4adc:	20000010 	.word	0x20000010

00004ae0 <cpu_irq_leave_critical>:
    4ae0:	4b08      	ldr	r3, [pc, #32]	; (4b04 <cpu_irq_leave_critical+0x24>)
    4ae2:	681a      	ldr	r2, [r3, #0]
    4ae4:	3a01      	subs	r2, #1
    4ae6:	601a      	str	r2, [r3, #0]
    4ae8:	681b      	ldr	r3, [r3, #0]
    4aea:	2b00      	cmp	r3, #0
    4aec:	d109      	bne.n	4b02 <cpu_irq_leave_critical+0x22>
    4aee:	4b06      	ldr	r3, [pc, #24]	; (4b08 <cpu_irq_leave_critical+0x28>)
    4af0:	781b      	ldrb	r3, [r3, #0]
    4af2:	2b00      	cmp	r3, #0
    4af4:	d005      	beq.n	4b02 <cpu_irq_leave_critical+0x22>
    4af6:	2201      	movs	r2, #1
    4af8:	4b04      	ldr	r3, [pc, #16]	; (4b0c <cpu_irq_leave_critical+0x2c>)
    4afa:	701a      	strb	r2, [r3, #0]
    4afc:	f3bf 8f5f 	dmb	sy
    4b00:	b662      	cpsie	i
    4b02:	4770      	bx	lr
    4b04:	20000c10 	.word	0x20000c10
    4b08:	20000c14 	.word	0x20000c14
    4b0c:	20000010 	.word	0x20000010

00004b10 <_system_dfll_wait_for_sync>:
    4b10:	2380      	movs	r3, #128	; 0x80
    4b12:	4903      	ldr	r1, [pc, #12]	; (4b20 <_system_dfll_wait_for_sync+0x10>)
    4b14:	005b      	lsls	r3, r3, #1
    4b16:	68ca      	ldr	r2, [r1, #12]
    4b18:	421a      	tst	r2, r3
    4b1a:	d0fc      	beq.n	4b16 <_system_dfll_wait_for_sync+0x6>
    4b1c:	4770      	bx	lr
    4b1e:	46c0      	nop			; (mov r8, r8)
    4b20:	40000c00 	.word	0x40000c00

00004b24 <system_switch_performance_level>:
    4b24:	2380      	movs	r3, #128	; 0x80
    4b26:	05db      	lsls	r3, r3, #23
    4b28:	789a      	ldrb	r2, [r3, #2]
    4b2a:	4282      	cmp	r2, r0
    4b2c:	d102      	bne.n	4b34 <system_switch_performance_level+0x10>
    4b2e:	2100      	movs	r1, #0
    4b30:	0008      	movs	r0, r1
    4b32:	4770      	bx	lr
    4b34:	789a      	ldrb	r2, [r3, #2]
    4b36:	2117      	movs	r1, #23
    4b38:	b252      	sxtb	r2, r2
    4b3a:	2a00      	cmp	r2, #0
    4b3c:	dbf8      	blt.n	4b30 <system_switch_performance_level+0xc>
    4b3e:	2201      	movs	r2, #1
    4b40:	719a      	strb	r2, [r3, #6]
    4b42:	7098      	strb	r0, [r3, #2]
    4b44:	799a      	ldrb	r2, [r3, #6]
    4b46:	2a00      	cmp	r2, #0
    4b48:	d0fc      	beq.n	4b44 <system_switch_performance_level+0x20>
    4b4a:	e7f0      	b.n	4b2e <system_switch_performance_level+0xa>

00004b4c <system_clock_source_get_hz>:
    4b4c:	b570      	push	{r4, r5, r6, lr}
    4b4e:	2808      	cmp	r0, #8
    4b50:	d806      	bhi.n	4b60 <system_clock_source_get_hz+0x14>
    4b52:	f000 fec7 	bl	58e4 <__gnu_thumb1_case_uqi>
    4b56:	0508      	.short	0x0508
    4b58:	13303005 	.word	0x13303005
    4b5c:	160b      	.short	0x160b
    4b5e:	28          	.byte	0x28
    4b5f:	00          	.byte	0x00
    4b60:	2400      	movs	r4, #0
    4b62:	0020      	movs	r0, r4
    4b64:	bd70      	pop	{r4, r5, r6, pc}
    4b66:	4b16      	ldr	r3, [pc, #88]	; (4bc0 <system_clock_source_get_hz+0x74>)
    4b68:	691c      	ldr	r4, [r3, #16]
    4b6a:	e7fa      	b.n	4b62 <system_clock_source_get_hz+0x16>
    4b6c:	4b15      	ldr	r3, [pc, #84]	; (4bc4 <system_clock_source_get_hz+0x78>)
    4b6e:	7d1c      	ldrb	r4, [r3, #20]
    4b70:	0724      	lsls	r4, r4, #28
    4b72:	0fa4      	lsrs	r4, r4, #30
    4b74:	1c60      	adds	r0, r4, #1
    4b76:	4c14      	ldr	r4, [pc, #80]	; (4bc8 <system_clock_source_get_hz+0x7c>)
    4b78:	4344      	muls	r4, r0
    4b7a:	e7f2      	b.n	4b62 <system_clock_source_get_hz+0x16>
    4b7c:	4b10      	ldr	r3, [pc, #64]	; (4bc0 <system_clock_source_get_hz+0x74>)
    4b7e:	695c      	ldr	r4, [r3, #20]
    4b80:	e7ef      	b.n	4b62 <system_clock_source_get_hz+0x16>
    4b82:	4d0f      	ldr	r5, [pc, #60]	; (4bc0 <system_clock_source_get_hz+0x74>)
    4b84:	2400      	movs	r4, #0
    4b86:	682b      	ldr	r3, [r5, #0]
    4b88:	079b      	lsls	r3, r3, #30
    4b8a:	d5ea      	bpl.n	4b62 <system_clock_source_get_hz+0x16>
    4b8c:	4b0f      	ldr	r3, [pc, #60]	; (4bcc <system_clock_source_get_hz+0x80>)
    4b8e:	4798      	blx	r3
    4b90:	2224      	movs	r2, #36	; 0x24
    4b92:	682b      	ldr	r3, [r5, #0]
    4b94:	4013      	ands	r3, r2
    4b96:	2b04      	cmp	r3, #4
    4b98:	d110      	bne.n	4bbc <system_clock_source_get_hz+0x70>
    4b9a:	0020      	movs	r0, r4
    4b9c:	4b0c      	ldr	r3, [pc, #48]	; (4bd0 <system_clock_source_get_hz+0x84>)
    4b9e:	4798      	blx	r3
    4ba0:	68ac      	ldr	r4, [r5, #8]
    4ba2:	b2a4      	uxth	r4, r4
    4ba4:	e7e8      	b.n	4b78 <system_clock_source_get_hz+0x2c>
    4ba6:	4b0b      	ldr	r3, [pc, #44]	; (4bd4 <system_clock_source_get_hz+0x88>)
    4ba8:	2400      	movs	r4, #0
    4baa:	781b      	ldrb	r3, [r3, #0]
    4bac:	079b      	lsls	r3, r3, #30
    4bae:	d5d8      	bpl.n	4b62 <system_clock_source_get_hz+0x16>
    4bb0:	4b03      	ldr	r3, [pc, #12]	; (4bc0 <system_clock_source_get_hz+0x74>)
    4bb2:	68dc      	ldr	r4, [r3, #12]
    4bb4:	e7d5      	b.n	4b62 <system_clock_source_get_hz+0x16>
    4bb6:	2480      	movs	r4, #128	; 0x80
    4bb8:	0224      	lsls	r4, r4, #8
    4bba:	e7d2      	b.n	4b62 <system_clock_source_get_hz+0x16>
    4bbc:	4c06      	ldr	r4, [pc, #24]	; (4bd8 <system_clock_source_get_hz+0x8c>)
    4bbe:	e7d0      	b.n	4b62 <system_clock_source_get_hz+0x16>
    4bc0:	20000c18 	.word	0x20000c18
    4bc4:	40000c00 	.word	0x40000c00
    4bc8:	003d0900 	.word	0x003d0900
    4bcc:	00004b11 	.word	0x00004b11
    4bd0:	00004ffd 	.word	0x00004ffd
    4bd4:	40000c28 	.word	0x40000c28
    4bd8:	02dc6c00 	.word	0x02dc6c00

00004bdc <system_clock_source_xosc_set_config>:
    4bdc:	b5f7      	push	{r0, r1, r2, r4, r5, r6, r7, lr}
    4bde:	210f      	movs	r1, #15
    4be0:	4b28      	ldr	r3, [pc, #160]	; (4c84 <system_clock_source_xosc_set_config+0xa8>)
    4be2:	7845      	ldrb	r5, [r0, #1]
    4be4:	469c      	mov	ip, r3
    4be6:	400d      	ands	r5, r1
    4be8:	7801      	ldrb	r1, [r0, #0]
    4bea:	8a1b      	ldrh	r3, [r3, #16]
    4bec:	424c      	negs	r4, r1
    4bee:	4161      	adcs	r1, r4
    4bf0:	4664      	mov	r4, ip
    4bf2:	b2c9      	uxtb	r1, r1
    4bf4:	9100      	str	r1, [sp, #0]
    4bf6:	4f24      	ldr	r7, [pc, #144]	; (4c88 <system_clock_source_xosc_set_config+0xac>)
    4bf8:	6841      	ldr	r1, [r0, #4]
    4bfa:	055a      	lsls	r2, r3, #21
    4bfc:	7886      	ldrb	r6, [r0, #2]
    4bfe:	0f52      	lsrs	r2, r2, #29
    4c00:	9401      	str	r4, [sp, #4]
    4c02:	42b9      	cmp	r1, r7
    4c04:	d936      	bls.n	4c74 <system_clock_source_xosc_set_config+0x98>
    4c06:	4f21      	ldr	r7, [pc, #132]	; (4c8c <system_clock_source_xosc_set_config+0xb0>)
    4c08:	42b9      	cmp	r1, r7
    4c0a:	d935      	bls.n	4c78 <system_clock_source_xosc_set_config+0x9c>
    4c0c:	4f20      	ldr	r7, [pc, #128]	; (4c90 <system_clock_source_xosc_set_config+0xb4>)
    4c0e:	42b9      	cmp	r1, r7
    4c10:	d934      	bls.n	4c7c <system_clock_source_xosc_set_config+0xa0>
    4c12:	4f20      	ldr	r7, [pc, #128]	; (4c94 <system_clock_source_xosc_set_config+0xb8>)
    4c14:	42b9      	cmp	r1, r7
    4c16:	d933      	bls.n	4c80 <system_clock_source_xosc_set_config+0xa4>
    4c18:	4f1f      	ldr	r7, [pc, #124]	; (4c98 <system_clock_source_xosc_set_config+0xbc>)
    4c1a:	42b9      	cmp	r1, r7
    4c1c:	d800      	bhi.n	4c20 <system_clock_source_xosc_set_config+0x44>
    4c1e:	2204      	movs	r2, #4
    4c20:	4c1e      	ldr	r4, [pc, #120]	; (4c9c <system_clock_source_xosc_set_config+0xc0>)
    4c22:	7a47      	ldrb	r7, [r0, #9]
    4c24:	7a00      	ldrb	r0, [r0, #8]
    4c26:	6121      	str	r1, [r4, #16]
    4c28:	2101      	movs	r1, #1
    4c2a:	2404      	movs	r4, #4
    4c2c:	468c      	mov	ip, r1
    4c2e:	9900      	ldr	r1, [sp, #0]
    4c30:	43a3      	bics	r3, r4
    4c32:	0089      	lsls	r1, r1, #2
    4c34:	430b      	orrs	r3, r1
    4c36:	4661      	mov	r1, ip
    4c38:	4008      	ands	r0, r1
    4c3a:	313f      	adds	r1, #63	; 0x3f
    4c3c:	438b      	bics	r3, r1
    4c3e:	0184      	lsls	r4, r0, #6
    4c40:	0018      	movs	r0, r3
    4c42:	4663      	mov	r3, ip
    4c44:	4320      	orrs	r0, r4
    4c46:	401f      	ands	r7, r3
    4c48:	337f      	adds	r3, #127	; 0x7f
    4c4a:	4398      	bics	r0, r3
    4c4c:	01f9      	lsls	r1, r7, #7
    4c4e:	0007      	movs	r7, r0
    4c50:	0213      	lsls	r3, r2, #8
    4c52:	4a13      	ldr	r2, [pc, #76]	; (4ca0 <system_clock_source_xosc_set_config+0xc4>)
    4c54:	430f      	orrs	r7, r1
    4c56:	403a      	ands	r2, r7
    4c58:	431a      	orrs	r2, r3
    4c5a:	4663      	mov	r3, ip
    4c5c:	401e      	ands	r6, r3
    4c5e:	02f3      	lsls	r3, r6, #11
    4c60:	4e10      	ldr	r6, [pc, #64]	; (4ca4 <system_clock_source_xosc_set_config+0xc8>)
    4c62:	4016      	ands	r6, r2
    4c64:	431e      	orrs	r6, r3
    4c66:	032b      	lsls	r3, r5, #12
    4c68:	0535      	lsls	r5, r6, #20
    4c6a:	0d2d      	lsrs	r5, r5, #20
    4c6c:	431d      	orrs	r5, r3
    4c6e:	9b01      	ldr	r3, [sp, #4]
    4c70:	821d      	strh	r5, [r3, #16]
    4c72:	bdf7      	pop	{r0, r1, r2, r4, r5, r6, r7, pc}
    4c74:	2200      	movs	r2, #0
    4c76:	e7d3      	b.n	4c20 <system_clock_source_xosc_set_config+0x44>
    4c78:	2201      	movs	r2, #1
    4c7a:	e7d1      	b.n	4c20 <system_clock_source_xosc_set_config+0x44>
    4c7c:	2202      	movs	r2, #2
    4c7e:	e7cf      	b.n	4c20 <system_clock_source_xosc_set_config+0x44>
    4c80:	2203      	movs	r2, #3
    4c82:	e7cd      	b.n	4c20 <system_clock_source_xosc_set_config+0x44>
    4c84:	40000c00 	.word	0x40000c00
    4c88:	001e8480 	.word	0x001e8480
    4c8c:	003d0900 	.word	0x003d0900
    4c90:	007a1200 	.word	0x007a1200
    4c94:	00f42400 	.word	0x00f42400
    4c98:	01e84800 	.word	0x01e84800
    4c9c:	20000c18 	.word	0x20000c18
    4ca0:	fffff8ff 	.word	0xfffff8ff
    4ca4:	fffff7ff 	.word	0xfffff7ff

00004ca8 <system_clock_source_enable>:
    4ca8:	b5f8      	push	{r3, r4, r5, r6, r7, lr}
    4caa:	2808      	cmp	r0, #8
    4cac:	d83f      	bhi.n	4d2e <system_clock_source_enable+0x86>
    4cae:	f000 fe19 	bl	58e4 <__gnu_thumb1_case_uqi>
    4cb2:	3e12      	.short	0x3e12
    4cb4:	180c0a3e 	.word	0x180c0a3e
    4cb8:	1e05      	.short	0x1e05
    4cba:	34          	.byte	0x34
    4cbb:	00          	.byte	0x00
    4cbc:	2302      	movs	r3, #2
    4cbe:	4a1d      	ldr	r2, [pc, #116]	; (4d34 <system_clock_source_enable+0x8c>)
    4cc0:	7d11      	ldrb	r1, [r2, #20]
    4cc2:	430b      	orrs	r3, r1
    4cc4:	7513      	strb	r3, [r2, #20]
    4cc6:	2000      	movs	r0, #0
    4cc8:	e030      	b.n	4d2c <system_clock_source_enable+0x84>
    4cca:	2302      	movs	r3, #2
    4ccc:	4a1a      	ldr	r2, [pc, #104]	; (4d38 <system_clock_source_enable+0x90>)
    4cce:	6991      	ldr	r1, [r2, #24]
    4cd0:	430b      	orrs	r3, r1
    4cd2:	6193      	str	r3, [r2, #24]
    4cd4:	e7f7      	b.n	4cc6 <system_clock_source_enable+0x1e>
    4cd6:	2302      	movs	r3, #2
    4cd8:	4a16      	ldr	r2, [pc, #88]	; (4d34 <system_clock_source_enable+0x8c>)
    4cda:	8a11      	ldrh	r1, [r2, #16]
    4cdc:	430b      	orrs	r3, r1
    4cde:	8213      	strh	r3, [r2, #16]
    4ce0:	e7f1      	b.n	4cc6 <system_clock_source_enable+0x1e>
    4ce2:	2302      	movs	r3, #2
    4ce4:	4a14      	ldr	r2, [pc, #80]	; (4d38 <system_clock_source_enable+0x90>)
    4ce6:	6951      	ldr	r1, [r2, #20]
    4ce8:	430b      	orrs	r3, r1
    4cea:	6153      	str	r3, [r2, #20]
    4cec:	e7eb      	b.n	4cc6 <system_clock_source_enable+0x1e>
    4cee:	2402      	movs	r4, #2
    4cf0:	4e12      	ldr	r6, [pc, #72]	; (4d3c <system_clock_source_enable+0x94>)
    4cf2:	4d10      	ldr	r5, [pc, #64]	; (4d34 <system_clock_source_enable+0x8c>)
    4cf4:	6833      	ldr	r3, [r6, #0]
    4cf6:	4f12      	ldr	r7, [pc, #72]	; (4d40 <system_clock_source_enable+0x98>)
    4cf8:	4323      	orrs	r3, r4
    4cfa:	6033      	str	r3, [r6, #0]
    4cfc:	832c      	strh	r4, [r5, #24]
    4cfe:	47b8      	blx	r7
    4d00:	68b3      	ldr	r3, [r6, #8]
    4d02:	622b      	str	r3, [r5, #32]
    4d04:	832c      	strh	r4, [r5, #24]
    4d06:	2400      	movs	r4, #0
    4d08:	47b8      	blx	r7
    4d0a:	6873      	ldr	r3, [r6, #4]
    4d0c:	61eb      	str	r3, [r5, #28]
    4d0e:	832c      	strh	r4, [r5, #24]
    4d10:	47b8      	blx	r7
    4d12:	6833      	ldr	r3, [r6, #0]
    4d14:	b29b      	uxth	r3, r3
    4d16:	832b      	strh	r3, [r5, #24]
    4d18:	e7d5      	b.n	4cc6 <system_clock_source_enable+0x1e>
    4d1a:	2302      	movs	r3, #2
    4d1c:	4909      	ldr	r1, [pc, #36]	; (4d44 <system_clock_source_enable+0x9c>)
    4d1e:	780a      	ldrb	r2, [r1, #0]
    4d20:	431a      	orrs	r2, r3
    4d22:	700a      	strb	r2, [r1, #0]
    4d24:	4a08      	ldr	r2, [pc, #32]	; (4d48 <system_clock_source_enable+0xa0>)
    4d26:	7810      	ldrb	r0, [r2, #0]
    4d28:	4018      	ands	r0, r3
    4d2a:	d1fc      	bne.n	4d26 <system_clock_source_enable+0x7e>
    4d2c:	bdf8      	pop	{r3, r4, r5, r6, r7, pc}
    4d2e:	2017      	movs	r0, #23
    4d30:	e7fc      	b.n	4d2c <system_clock_source_enable+0x84>
    4d32:	46c0      	nop			; (mov r8, r8)
    4d34:	40000c00 	.word	0x40000c00
    4d38:	40001000 	.word	0x40001000
    4d3c:	20000c18 	.word	0x20000c18
    4d40:	00004b11 	.word	0x00004b11
    4d44:	40000c28 	.word	0x40000c28
    4d48:	40000c38 	.word	0x40000c38

00004d4c <system_clock_init>:
    4d4c:	b57f      	push	{r0, r1, r2, r3, r4, r5, r6, lr}
    4d4e:	2380      	movs	r3, #128	; 0x80
    4d50:	2203      	movs	r2, #3
    4d52:	211e      	movs	r1, #30
    4d54:	4c1e      	ldr	r4, [pc, #120]	; (4dd0 <system_clock_init+0x84>)
    4d56:	005b      	lsls	r3, r3, #1
    4d58:	60a3      	str	r3, [r4, #8]
    4d5a:	4b1e      	ldr	r3, [pc, #120]	; (4dd4 <system_clock_init+0x88>)
    4d5c:	2002      	movs	r0, #2
    4d5e:	609a      	str	r2, [r3, #8]
    4d60:	4a1d      	ldr	r2, [pc, #116]	; (4dd8 <system_clock_init+0x8c>)
    4d62:	4e1e      	ldr	r6, [pc, #120]	; (4ddc <system_clock_init+0x90>)
    4d64:	6853      	ldr	r3, [r2, #4]
    4d66:	2500      	movs	r5, #0
    4d68:	438b      	bics	r3, r1
    4d6a:	6053      	str	r3, [r2, #4]
    4d6c:	47b0      	blx	r6
    4d6e:	2380      	movs	r3, #128	; 0x80
    4d70:	7d22      	ldrb	r2, [r4, #20]
    4d72:	425b      	negs	r3, r3
    4d74:	4313      	orrs	r3, r2
    4d76:	2240      	movs	r2, #64	; 0x40
    4d78:	7523      	strb	r3, [r4, #20]
    4d7a:	7d23      	ldrb	r3, [r4, #20]
    4d7c:	4393      	bics	r3, r2
    4d7e:	7523      	strb	r3, [r4, #20]
    4d80:	4b17      	ldr	r3, [pc, #92]	; (4de0 <system_clock_init+0x94>)
    4d82:	4798      	blx	r3
    4d84:	2301      	movs	r3, #1
    4d86:	4c17      	ldr	r4, [pc, #92]	; (4de4 <system_clock_init+0x98>)
    4d88:	a901      	add	r1, sp, #4
    4d8a:	71a3      	strb	r3, [r4, #6]
    4d8c:	7163      	strb	r3, [r4, #5]
    4d8e:	7123      	strb	r3, [r4, #4]
    4d90:	604b      	str	r3, [r1, #4]
    4d92:	3305      	adds	r3, #5
    4d94:	700b      	strb	r3, [r1, #0]
    4d96:	0028      	movs	r0, r5
    4d98:	4b13      	ldr	r3, [pc, #76]	; (4de8 <system_clock_init+0x9c>)
    4d9a:	704d      	strb	r5, [r1, #1]
    4d9c:	720d      	strb	r5, [r1, #8]
    4d9e:	724d      	strb	r5, [r1, #9]
    4da0:	4798      	blx	r3
    4da2:	0028      	movs	r0, r5
    4da4:	4b11      	ldr	r3, [pc, #68]	; (4dec <system_clock_init+0xa0>)
    4da6:	4798      	blx	r3
    4da8:	4b11      	ldr	r3, [pc, #68]	; (4df0 <system_clock_init+0xa4>)
    4daa:	0028      	movs	r0, r5
    4dac:	4798      	blx	r3
    4dae:	7921      	ldrb	r1, [r4, #4]
    4db0:	4b10      	ldr	r3, [pc, #64]	; (4df4 <system_clock_init+0xa8>)
    4db2:	b2c9      	uxtb	r1, r1
    4db4:	4798      	blx	r3
    4db6:	4b10      	ldr	r3, [pc, #64]	; (4df8 <system_clock_init+0xac>)
    4db8:	4298      	cmp	r0, r3
    4dba:	d802      	bhi.n	4dc2 <system_clock_init+0x76>
    4dbc:	2000      	movs	r0, #0
    4dbe:	47b0      	blx	r6
    4dc0:	bd7f      	pop	{r0, r1, r2, r3, r4, r5, r6, pc}
    4dc2:	2308      	movs	r3, #8
    4dc4:	71a3      	strb	r3, [r4, #6]
    4dc6:	7163      	strb	r3, [r4, #5]
    4dc8:	4b0c      	ldr	r3, [pc, #48]	; (4dfc <system_clock_init+0xb0>)
    4dca:	4298      	cmp	r0, r3
    4dcc:	d8f8      	bhi.n	4dc0 <system_clock_init+0x74>
    4dce:	e7f5      	b.n	4dbc <system_clock_init+0x70>
    4dd0:	40000c00 	.word	0x40000c00
    4dd4:	40001400 	.word	0x40001400
    4dd8:	41004000 	.word	0x41004000
    4ddc:	00004b25 	.word	0x00004b25
    4de0:	00004e21 	.word	0x00004e21
    4de4:	40000400 	.word	0x40000400
    4de8:	00004e41 	.word	0x00004e41
    4dec:	00004ed9 	.word	0x00004ed9
    4df0:	00004f11 	.word	0x00004f11
    4df4:	000058f9 	.word	0x000058f9
    4df8:	005b8d80 	.word	0x005b8d80
    4dfc:	00b71b00 	.word	0x00b71b00

00004e00 <system_gclk_is_syncing>:
    4e00:	2204      	movs	r2, #4
    4e02:	4082      	lsls	r2, r0
    4e04:	4b04      	ldr	r3, [pc, #16]	; (4e18 <system_gclk_is_syncing+0x18>)
    4e06:	4805      	ldr	r0, [pc, #20]	; (4e1c <system_gclk_is_syncing+0x1c>)
    4e08:	685b      	ldr	r3, [r3, #4]
    4e0a:	4018      	ands	r0, r3
    4e0c:	4010      	ands	r0, r2
    4e0e:	1e43      	subs	r3, r0, #1
    4e10:	4198      	sbcs	r0, r3
    4e12:	b2c0      	uxtb	r0, r0
    4e14:	4770      	bx	lr
    4e16:	46c0      	nop			; (mov r8, r8)
    4e18:	40001800 	.word	0x40001800
    4e1c:	000007fc 	.word	0x000007fc

00004e20 <system_gclk_init>:
    4e20:	2340      	movs	r3, #64	; 0x40
    4e22:	4a05      	ldr	r2, [pc, #20]	; (4e38 <system_gclk_init+0x18>)
    4e24:	6951      	ldr	r1, [r2, #20]
    4e26:	430b      	orrs	r3, r1
    4e28:	6153      	str	r3, [r2, #20]
    4e2a:	2301      	movs	r3, #1
    4e2c:	4a03      	ldr	r2, [pc, #12]	; (4e3c <system_gclk_init+0x1c>)
    4e2e:	7013      	strb	r3, [r2, #0]
    4e30:	7811      	ldrb	r1, [r2, #0]
    4e32:	4219      	tst	r1, r3
    4e34:	d1fc      	bne.n	4e30 <system_gclk_init+0x10>
    4e36:	4770      	bx	lr
    4e38:	40000400 	.word	0x40000400
    4e3c:	40001800 	.word	0x40001800

00004e40 <system_gclk_gen_set_config>:
    4e40:	b570      	push	{r4, r5, r6, lr}
    4e42:	784b      	ldrb	r3, [r1, #1]
    4e44:	0005      	movs	r5, r0
    4e46:	780c      	ldrb	r4, [r1, #0]
    4e48:	2b00      	cmp	r3, #0
    4e4a:	d002      	beq.n	4e52 <system_gclk_gen_set_config+0x12>
    4e4c:	2380      	movs	r3, #128	; 0x80
    4e4e:	00db      	lsls	r3, r3, #3
    4e50:	431c      	orrs	r4, r3
    4e52:	7a4b      	ldrb	r3, [r1, #9]
    4e54:	2b00      	cmp	r3, #0
    4e56:	d002      	beq.n	4e5e <system_gclk_gen_set_config+0x1e>
    4e58:	2380      	movs	r3, #128	; 0x80
    4e5a:	011b      	lsls	r3, r3, #4
    4e5c:	431c      	orrs	r4, r3
    4e5e:	684a      	ldr	r2, [r1, #4]
    4e60:	2a01      	cmp	r2, #1
    4e62:	d913      	bls.n	4e8c <system_gclk_gen_set_config+0x4c>
    4e64:	1e53      	subs	r3, r2, #1
    4e66:	4013      	ands	r3, r2
    4e68:	2002      	movs	r0, #2
    4e6a:	2b00      	cmp	r3, #0
    4e6c:	d007      	beq.n	4e7e <system_gclk_gen_set_config+0x3e>
    4e6e:	2380      	movs	r3, #128	; 0x80
    4e70:	0412      	lsls	r2, r2, #16
    4e72:	009b      	lsls	r3, r3, #2
    4e74:	431a      	orrs	r2, r3
    4e76:	4314      	orrs	r4, r2
    4e78:	e008      	b.n	4e8c <system_gclk_gen_set_config+0x4c>
    4e7a:	3301      	adds	r3, #1
    4e7c:	0040      	lsls	r0, r0, #1
    4e7e:	4290      	cmp	r0, r2
    4e80:	d3fb      	bcc.n	4e7a <system_gclk_gen_set_config+0x3a>
    4e82:	2280      	movs	r2, #128	; 0x80
    4e84:	0152      	lsls	r2, r2, #5
    4e86:	4314      	orrs	r4, r2
    4e88:	041b      	lsls	r3, r3, #16
    4e8a:	431c      	orrs	r4, r3
    4e8c:	7a0b      	ldrb	r3, [r1, #8]
    4e8e:	2b00      	cmp	r3, #0
    4e90:	d002      	beq.n	4e98 <system_gclk_gen_set_config+0x58>
    4e92:	2380      	movs	r3, #128	; 0x80
    4e94:	019b      	lsls	r3, r3, #6
    4e96:	431c      	orrs	r4, r3
    4e98:	0028      	movs	r0, r5
    4e9a:	4e0b      	ldr	r6, [pc, #44]	; (4ec8 <system_gclk_gen_set_config+0x88>)
    4e9c:	47b0      	blx	r6
    4e9e:	2800      	cmp	r0, #0
    4ea0:	d1fa      	bne.n	4e98 <system_gclk_gen_set_config+0x58>
    4ea2:	4b0a      	ldr	r3, [pc, #40]	; (4ecc <system_gclk_gen_set_config+0x8c>)
    4ea4:	4798      	blx	r3
    4ea6:	2180      	movs	r1, #128	; 0x80
    4ea8:	4b09      	ldr	r3, [pc, #36]	; (4ed0 <system_gclk_gen_set_config+0x90>)
    4eaa:	00aa      	lsls	r2, r5, #2
    4eac:	18d2      	adds	r2, r2, r3
    4eae:	6a13      	ldr	r3, [r2, #32]
    4eb0:	0049      	lsls	r1, r1, #1
    4eb2:	400b      	ands	r3, r1
    4eb4:	431c      	orrs	r4, r3
    4eb6:	6214      	str	r4, [r2, #32]
    4eb8:	0028      	movs	r0, r5
    4eba:	47b0      	blx	r6
    4ebc:	2800      	cmp	r0, #0
    4ebe:	d1fb      	bne.n	4eb8 <system_gclk_gen_set_config+0x78>
    4ec0:	4b04      	ldr	r3, [pc, #16]	; (4ed4 <system_gclk_gen_set_config+0x94>)
    4ec2:	4798      	blx	r3
    4ec4:	bd70      	pop	{r4, r5, r6, pc}
    4ec6:	46c0      	nop			; (mov r8, r8)
    4ec8:	00004e01 	.word	0x00004e01
    4ecc:	00004aad 	.word	0x00004aad
    4ed0:	40001800 	.word	0x40001800
    4ed4:	00004ae1 	.word	0x00004ae1

00004ed8 <system_gclk_gen_enable>:
    4ed8:	b510      	push	{r4, lr}
    4eda:	0004      	movs	r4, r0
    4edc:	0020      	movs	r0, r4
    4ede:	4b08      	ldr	r3, [pc, #32]	; (4f00 <system_gclk_gen_enable+0x28>)
    4ee0:	4798      	blx	r3
    4ee2:	2800      	cmp	r0, #0
    4ee4:	d1fa      	bne.n	4edc <system_gclk_gen_enable+0x4>
    4ee6:	4b07      	ldr	r3, [pc, #28]	; (4f04 <system_gclk_gen_enable+0x2c>)
    4ee8:	4798      	blx	r3
    4eea:	4b07      	ldr	r3, [pc, #28]	; (4f08 <system_gclk_gen_enable+0x30>)
    4eec:	00a4      	lsls	r4, r4, #2
    4eee:	18e4      	adds	r4, r4, r3
    4ef0:	2380      	movs	r3, #128	; 0x80
    4ef2:	6a22      	ldr	r2, [r4, #32]
    4ef4:	005b      	lsls	r3, r3, #1
    4ef6:	4313      	orrs	r3, r2
    4ef8:	6223      	str	r3, [r4, #32]
    4efa:	4b04      	ldr	r3, [pc, #16]	; (4f0c <system_gclk_gen_enable+0x34>)
    4efc:	4798      	blx	r3
    4efe:	bd10      	pop	{r4, pc}
    4f00:	00004e01 	.word	0x00004e01
    4f04:	00004aad 	.word	0x00004aad
    4f08:	40001800 	.word	0x40001800
    4f0c:	00004ae1 	.word	0x00004ae1

00004f10 <system_gclk_gen_get_hz>:
    4f10:	b5f8      	push	{r3, r4, r5, r6, r7, lr}
    4f12:	0004      	movs	r4, r0
    4f14:	0020      	movs	r0, r4
    4f16:	4b12      	ldr	r3, [pc, #72]	; (4f60 <system_gclk_gen_get_hz+0x50>)
    4f18:	4798      	blx	r3
    4f1a:	2800      	cmp	r0, #0
    4f1c:	d1fa      	bne.n	4f14 <system_gclk_gen_get_hz+0x4>
    4f1e:	4f11      	ldr	r7, [pc, #68]	; (4f64 <system_gclk_gen_get_hz+0x54>)
    4f20:	3408      	adds	r4, #8
    4f22:	00a4      	lsls	r4, r4, #2
    4f24:	4b10      	ldr	r3, [pc, #64]	; (4f68 <system_gclk_gen_get_hz+0x58>)
    4f26:	4798      	blx	r3
    4f28:	59e0      	ldr	r0, [r4, r7]
    4f2a:	4b10      	ldr	r3, [pc, #64]	; (4f6c <system_gclk_gen_get_hz+0x5c>)
    4f2c:	0700      	lsls	r0, r0, #28
    4f2e:	0f00      	lsrs	r0, r0, #28
    4f30:	4798      	blx	r3
    4f32:	59e6      	ldr	r6, [r4, r7]
    4f34:	59e4      	ldr	r4, [r4, r7]
    4f36:	04f6      	lsls	r6, r6, #19
    4f38:	4b0d      	ldr	r3, [pc, #52]	; (4f70 <system_gclk_gen_get_hz+0x60>)
    4f3a:	0ff6      	lsrs	r6, r6, #31
    4f3c:	0005      	movs	r5, r0
    4f3e:	0c24      	lsrs	r4, r4, #16
    4f40:	4798      	blx	r3
    4f42:	2e00      	cmp	r6, #0
    4f44:	d108      	bne.n	4f58 <system_gclk_gen_get_hz+0x48>
    4f46:	2c01      	cmp	r4, #1
    4f48:	d904      	bls.n	4f54 <system_gclk_gen_get_hz+0x44>
    4f4a:	0028      	movs	r0, r5
    4f4c:	0021      	movs	r1, r4
    4f4e:	4b09      	ldr	r3, [pc, #36]	; (4f74 <system_gclk_gen_get_hz+0x64>)
    4f50:	4798      	blx	r3
    4f52:	0005      	movs	r5, r0
    4f54:	0028      	movs	r0, r5
    4f56:	bdf8      	pop	{r3, r4, r5, r6, r7, pc}
    4f58:	3401      	adds	r4, #1
    4f5a:	40e5      	lsrs	r5, r4
    4f5c:	e7fa      	b.n	4f54 <system_gclk_gen_get_hz+0x44>
    4f5e:	46c0      	nop			; (mov r8, r8)
    4f60:	00004e01 	.word	0x00004e01
    4f64:	40001800 	.word	0x40001800
    4f68:	00004aad 	.word	0x00004aad
    4f6c:	00004b4d 	.word	0x00004b4d
    4f70:	00004ae1 	.word	0x00004ae1
    4f74:	000058f9 	.word	0x000058f9

00004f78 <system_gclk_chan_enable>:
    4f78:	b510      	push	{r4, lr}
    4f7a:	0004      	movs	r4, r0
    4f7c:	4b07      	ldr	r3, [pc, #28]	; (4f9c <system_gclk_chan_enable+0x24>)
    4f7e:	4798      	blx	r3
    4f80:	4b07      	ldr	r3, [pc, #28]	; (4fa0 <system_gclk_chan_enable+0x28>)
    4f82:	00a0      	lsls	r0, r4, #2
    4f84:	18c1      	adds	r1, r0, r3
    4f86:	2340      	movs	r3, #64	; 0x40
    4f88:	0008      	movs	r0, r1
    4f8a:	6fca      	ldr	r2, [r1, #124]	; 0x7c
    4f8c:	431a      	orrs	r2, r3
    4f8e:	67ca      	str	r2, [r1, #124]	; 0x7c
    4f90:	6fc2      	ldr	r2, [r0, #124]	; 0x7c
    4f92:	421a      	tst	r2, r3
    4f94:	d0fc      	beq.n	4f90 <system_gclk_chan_enable+0x18>
    4f96:	4b03      	ldr	r3, [pc, #12]	; (4fa4 <system_gclk_chan_enable+0x2c>)
    4f98:	4798      	blx	r3
    4f9a:	bd10      	pop	{r4, pc}
    4f9c:	00004aad 	.word	0x00004aad
    4fa0:	40001804 	.word	0x40001804
    4fa4:	00004ae1 	.word	0x00004ae1

00004fa8 <system_gclk_chan_disable>:
    4fa8:	b510      	push	{r4, lr}
    4faa:	0004      	movs	r4, r0
    4fac:	4b07      	ldr	r3, [pc, #28]	; (4fcc <system_gclk_chan_disable+0x24>)
    4fae:	4798      	blx	r3
    4fb0:	4b07      	ldr	r3, [pc, #28]	; (4fd0 <system_gclk_chan_disable+0x28>)
    4fb2:	00a0      	lsls	r0, r4, #2
    4fb4:	18c1      	adds	r1, r0, r3
    4fb6:	2340      	movs	r3, #64	; 0x40
    4fb8:	0008      	movs	r0, r1
    4fba:	6fca      	ldr	r2, [r1, #124]	; 0x7c
    4fbc:	439a      	bics	r2, r3
    4fbe:	67ca      	str	r2, [r1, #124]	; 0x7c
    4fc0:	6fc2      	ldr	r2, [r0, #124]	; 0x7c
    4fc2:	421a      	tst	r2, r3
    4fc4:	d1fc      	bne.n	4fc0 <system_gclk_chan_disable+0x18>
    4fc6:	4b03      	ldr	r3, [pc, #12]	; (4fd4 <system_gclk_chan_disable+0x2c>)
    4fc8:	4798      	blx	r3
    4fca:	bd10      	pop	{r4, pc}
    4fcc:	00004aad 	.word	0x00004aad
    4fd0:	40001804 	.word	0x40001804
    4fd4:	00004ae1 	.word	0x00004ae1

00004fd8 <system_gclk_chan_set_config>:
    4fd8:	b570      	push	{r4, r5, r6, lr}
    4fda:	000d      	movs	r5, r1
    4fdc:	4b05      	ldr	r3, [pc, #20]	; (4ff4 <system_gclk_chan_set_config+0x1c>)
    4fde:	0004      	movs	r4, r0
    4fe0:	4798      	blx	r3
    4fe2:	220f      	movs	r2, #15
    4fe4:	782b      	ldrb	r3, [r5, #0]
    4fe6:	3420      	adds	r4, #32
    4fe8:	4013      	ands	r3, r2
    4fea:	4a03      	ldr	r2, [pc, #12]	; (4ff8 <system_gclk_chan_set_config+0x20>)
    4fec:	00a4      	lsls	r4, r4, #2
    4fee:	50a3      	str	r3, [r4, r2]
    4ff0:	bd70      	pop	{r4, r5, r6, pc}
    4ff2:	46c0      	nop			; (mov r8, r8)
    4ff4:	00004fa9 	.word	0x00004fa9
    4ff8:	40001800 	.word	0x40001800

00004ffc <system_gclk_chan_get_hz>:
    4ffc:	b510      	push	{r4, lr}
    4ffe:	0004      	movs	r4, r0
    5000:	4b06      	ldr	r3, [pc, #24]	; (501c <system_gclk_chan_get_hz+0x20>)
    5002:	4798      	blx	r3
    5004:	3420      	adds	r4, #32
    5006:	4b06      	ldr	r3, [pc, #24]	; (5020 <system_gclk_chan_get_hz+0x24>)
    5008:	00a4      	lsls	r4, r4, #2
    500a:	58e4      	ldr	r4, [r4, r3]
    500c:	4b05      	ldr	r3, [pc, #20]	; (5024 <system_gclk_chan_get_hz+0x28>)
    500e:	0724      	lsls	r4, r4, #28
    5010:	0f24      	lsrs	r4, r4, #28
    5012:	4798      	blx	r3
    5014:	0020      	movs	r0, r4
    5016:	4b04      	ldr	r3, [pc, #16]	; (5028 <system_gclk_chan_get_hz+0x2c>)
    5018:	4798      	blx	r3
    501a:	bd10      	pop	{r4, pc}
    501c:	00004aad 	.word	0x00004aad
    5020:	40001800 	.word	0x40001800
    5024:	00004ae1 	.word	0x00004ae1
    5028:	00004f11 	.word	0x00004f11

0000502c <_system_pinmux_config>:
    502c:	78d3      	ldrb	r3, [r2, #3]
    502e:	b530      	push	{r4, r5, lr}
    5030:	2b00      	cmp	r3, #0
    5032:	d135      	bne.n	50a0 <_system_pinmux_config+0x74>
    5034:	7814      	ldrb	r4, [r2, #0]
    5036:	2c80      	cmp	r4, #128	; 0x80
    5038:	d003      	beq.n	5042 <_system_pinmux_config+0x16>
    503a:	2380      	movs	r3, #128	; 0x80
    503c:	0624      	lsls	r4, r4, #24
    503e:	025b      	lsls	r3, r3, #9
    5040:	4323      	orrs	r3, r4
    5042:	2502      	movs	r5, #2
    5044:	7854      	ldrb	r4, [r2, #1]
    5046:	43ac      	bics	r4, r5
    5048:	d106      	bne.n	5058 <_system_pinmux_config+0x2c>
    504a:	7894      	ldrb	r4, [r2, #2]
    504c:	2c00      	cmp	r4, #0
    504e:	d124      	bne.n	509a <_system_pinmux_config+0x6e>
    5050:	2480      	movs	r4, #128	; 0x80
    5052:	02a4      	lsls	r4, r4, #10
    5054:	4323      	orrs	r3, r4
    5056:	6041      	str	r1, [r0, #4]
    5058:	7854      	ldrb	r4, [r2, #1]
    505a:	3c01      	subs	r4, #1
    505c:	2c01      	cmp	r4, #1
    505e:	d801      	bhi.n	5064 <_system_pinmux_config+0x38>
    5060:	4c12      	ldr	r4, [pc, #72]	; (50ac <_system_pinmux_config+0x80>)
    5062:	4023      	ands	r3, r4
    5064:	24a0      	movs	r4, #160	; 0xa0
    5066:	b28d      	uxth	r5, r1
    5068:	05e4      	lsls	r4, r4, #23
    506a:	432c      	orrs	r4, r5
    506c:	431c      	orrs	r4, r3
    506e:	6284      	str	r4, [r0, #40]	; 0x28
    5070:	24d0      	movs	r4, #208	; 0xd0
    5072:	0c0d      	lsrs	r5, r1, #16
    5074:	0624      	lsls	r4, r4, #24
    5076:	432c      	orrs	r4, r5
    5078:	431c      	orrs	r4, r3
    507a:	6284      	str	r4, [r0, #40]	; 0x28
    507c:	78d4      	ldrb	r4, [r2, #3]
    507e:	2c00      	cmp	r4, #0
    5080:	d10a      	bne.n	5098 <_system_pinmux_config+0x6c>
    5082:	035b      	lsls	r3, r3, #13
    5084:	d503      	bpl.n	508e <_system_pinmux_config+0x62>
    5086:	7893      	ldrb	r3, [r2, #2]
    5088:	2b01      	cmp	r3, #1
    508a:	d10c      	bne.n	50a6 <_system_pinmux_config+0x7a>
    508c:	6181      	str	r1, [r0, #24]
    508e:	7853      	ldrb	r3, [r2, #1]
    5090:	3b01      	subs	r3, #1
    5092:	2b01      	cmp	r3, #1
    5094:	d800      	bhi.n	5098 <_system_pinmux_config+0x6c>
    5096:	6081      	str	r1, [r0, #8]
    5098:	bd30      	pop	{r4, r5, pc}
    509a:	24c0      	movs	r4, #192	; 0xc0
    509c:	02e4      	lsls	r4, r4, #11
    509e:	e7d9      	b.n	5054 <_system_pinmux_config+0x28>
    50a0:	6041      	str	r1, [r0, #4]
    50a2:	2300      	movs	r3, #0
    50a4:	e7de      	b.n	5064 <_system_pinmux_config+0x38>
    50a6:	6141      	str	r1, [r0, #20]
    50a8:	e7f1      	b.n	508e <_system_pinmux_config+0x62>
    50aa:	46c0      	nop			; (mov r8, r8)
    50ac:	fffbffff 	.word	0xfffbffff

000050b0 <system_pinmux_pin_set_config>:
    50b0:	b510      	push	{r4, lr}
    50b2:	0003      	movs	r3, r0
    50b4:	000a      	movs	r2, r1
    50b6:	0944      	lsrs	r4, r0, #5
    50b8:	09c1      	lsrs	r1, r0, #7
    50ba:	2000      	movs	r0, #0
    50bc:	4281      	cmp	r1, r0
    50be:	d102      	bne.n	50c6 <system_pinmux_pin_set_config+0x16>
    50c0:	4904      	ldr	r1, [pc, #16]	; (50d4 <system_pinmux_pin_set_config+0x24>)
    50c2:	01e0      	lsls	r0, r4, #7
    50c4:	1840      	adds	r0, r0, r1
    50c6:	211f      	movs	r1, #31
    50c8:	400b      	ands	r3, r1
    50ca:	391e      	subs	r1, #30
    50cc:	4099      	lsls	r1, r3
    50ce:	4b02      	ldr	r3, [pc, #8]	; (50d8 <system_pinmux_pin_set_config+0x28>)
    50d0:	4798      	blx	r3
    50d2:	bd10      	pop	{r4, pc}
    50d4:	40002800 	.word	0x40002800
    50d8:	0000502d 	.word	0x0000502d

000050dc <_system_dummy_init>:
    50dc:	4770      	bx	lr
	...

000050e0 <system_init>:
    50e0:	b510      	push	{r4, lr}
    50e2:	4b05      	ldr	r3, [pc, #20]	; (50f8 <system_init+0x18>)
    50e4:	4798      	blx	r3
    50e6:	4b05      	ldr	r3, [pc, #20]	; (50fc <system_init+0x1c>)
    50e8:	4798      	blx	r3
    50ea:	4b05      	ldr	r3, [pc, #20]	; (5100 <system_init+0x20>)
    50ec:	4798      	blx	r3
    50ee:	4b05      	ldr	r3, [pc, #20]	; (5104 <system_init+0x24>)
    50f0:	4798      	blx	r3
    50f2:	4b05      	ldr	r3, [pc, #20]	; (5108 <system_init+0x28>)
    50f4:	4798      	blx	r3
    50f6:	bd10      	pop	{r4, pc}
    50f8:	00004d4d 	.word	0x00004d4d
    50fc:	00004aa9 	.word	0x00004aa9
    5100:	000050dd 	.word	0x000050dd
    5104:	00002a39 	.word	0x00002a39
    5108:	000050dd 	.word	0x000050dd

0000510c <Dummy_Handler>:
    510c:	e7fe      	b.n	510c <Dummy_Handler>
	...

00005110 <Reset_Handler>:
    5110:	4811      	ldr	r0, [pc, #68]	; (5158 <Reset_Handler+0x48>)
    5112:	4912      	ldr	r1, [pc, #72]	; (515c <Reset_Handler+0x4c>)
    5114:	b570      	push	{r4, r5, r6, lr}
    5116:	4288      	cmp	r0, r1
    5118:	d004      	beq.n	5124 <Reset_Handler+0x14>
    511a:	2300      	movs	r3, #0
    511c:	4c10      	ldr	r4, [pc, #64]	; (5160 <Reset_Handler+0x50>)
    511e:	18ca      	adds	r2, r1, r3
    5120:	42a2      	cmp	r2, r4
    5122:	d313      	bcc.n	514c <Reset_Handler+0x3c>
    5124:	2100      	movs	r1, #0
    5126:	4b0f      	ldr	r3, [pc, #60]	; (5164 <Reset_Handler+0x54>)
    5128:	4a0f      	ldr	r2, [pc, #60]	; (5168 <Reset_Handler+0x58>)
    512a:	4293      	cmp	r3, r2
    512c:	d312      	bcc.n	5154 <Reset_Handler+0x44>
    512e:	21ff      	movs	r1, #255	; 0xff
    5130:	4b0e      	ldr	r3, [pc, #56]	; (516c <Reset_Handler+0x5c>)
    5132:	4a0f      	ldr	r2, [pc, #60]	; (5170 <Reset_Handler+0x60>)
    5134:	438b      	bics	r3, r1
    5136:	6093      	str	r3, [r2, #8]
    5138:	2380      	movs	r3, #128	; 0x80
    513a:	4a0e      	ldr	r2, [pc, #56]	; (5174 <Reset_Handler+0x64>)
    513c:	6851      	ldr	r1, [r2, #4]
    513e:	430b      	orrs	r3, r1
    5140:	6053      	str	r3, [r2, #4]
    5142:	4b0d      	ldr	r3, [pc, #52]	; (5178 <Reset_Handler+0x68>)
    5144:	4798      	blx	r3
    5146:	4b0d      	ldr	r3, [pc, #52]	; (517c <Reset_Handler+0x6c>)
    5148:	4798      	blx	r3
    514a:	e7fe      	b.n	514a <Reset_Handler+0x3a>
    514c:	58c5      	ldr	r5, [r0, r3]
    514e:	3304      	adds	r3, #4
    5150:	6015      	str	r5, [r2, #0]
    5152:	e7e4      	b.n	511e <Reset_Handler+0xe>
    5154:	c302      	stmia	r3!, {r1}
    5156:	e7e8      	b.n	512a <Reset_Handler+0x1a>
    5158:	0000d83c 	.word	0x0000d83c
    515c:	20000000 	.word	0x20000000
    5160:	200009c0 	.word	0x200009c0
    5164:	200009c0 	.word	0x200009c0
    5168:	20000d18 	.word	0x20000d18
    516c:	00000000 	.word	0x00000000
    5170:	e000ed00 	.word	0xe000ed00
    5174:	41004000 	.word	0x41004000
    5178:	000078e1 	.word	0x000078e1
    517c:	00003351 	.word	0x00003351

00005180 <_sbrk>:
    5180:	4b05      	ldr	r3, [pc, #20]	; (5198 <_sbrk+0x18>)
    5182:	0002      	movs	r2, r0
    5184:	6819      	ldr	r1, [r3, #0]
    5186:	2900      	cmp	r1, #0
    5188:	d101      	bne.n	518e <_sbrk+0xe>
    518a:	4904      	ldr	r1, [pc, #16]	; (519c <_sbrk+0x1c>)
    518c:	6019      	str	r1, [r3, #0]
    518e:	6818      	ldr	r0, [r3, #0]
    5190:	1882      	adds	r2, r0, r2
    5192:	601a      	str	r2, [r3, #0]
    5194:	4770      	bx	lr
    5196:	46c0      	nop			; (mov r8, r8)
    5198:	20000c30 	.word	0x20000c30
    519c:	20001d18 	.word	0x20001d18

000051a0 <acos>:
    51a0:	b5f0      	push	{r4, r5, r6, r7, lr}
    51a2:	4647      	mov	r7, r8
    51a4:	46ce      	mov	lr, r9
    51a6:	b580      	push	{r7, lr}
    51a8:	b08d      	sub	sp, #52	; 0x34
    51aa:	0004      	movs	r4, r0
    51ac:	000d      	movs	r5, r1
    51ae:	f000 f8b7 	bl	5320 <__ieee754_acos>
    51b2:	4b27      	ldr	r3, [pc, #156]	; (5250 <acos+0xb0>)
    51b4:	0006      	movs	r6, r0
    51b6:	4698      	mov	r8, r3
    51b8:	781b      	ldrb	r3, [r3, #0]
    51ba:	000f      	movs	r7, r1
    51bc:	b25b      	sxtb	r3, r3
    51be:	3301      	adds	r3, #1
    51c0:	d031      	beq.n	5226 <acos+0x86>
    51c2:	0022      	movs	r2, r4
    51c4:	002b      	movs	r3, r5
    51c6:	0020      	movs	r0, r4
    51c8:	0029      	movs	r1, r5
    51ca:	f002 f9b5 	bl	7538 <__aeabi_dcmpun>
    51ce:	4681      	mov	r9, r0
    51d0:	2800      	cmp	r0, #0
    51d2:	d128      	bne.n	5226 <acos+0x86>
    51d4:	0020      	movs	r0, r4
    51d6:	0029      	movs	r1, r5
    51d8:	f000 fb78 	bl	58cc <fabs>
    51dc:	2200      	movs	r2, #0
    51de:	4b1d      	ldr	r3, [pc, #116]	; (5254 <acos+0xb4>)
    51e0:	f000 fc4c 	bl	5a7c <__aeabi_dcmpgt>
    51e4:	2800      	cmp	r0, #0
    51e6:	d01e      	beq.n	5226 <acos+0x86>
    51e8:	2301      	movs	r3, #1
    51ea:	9302      	str	r3, [sp, #8]
    51ec:	4b1a      	ldr	r3, [pc, #104]	; (5258 <acos+0xb8>)
    51ee:	481b      	ldr	r0, [pc, #108]	; (525c <acos+0xbc>)
    51f0:	9303      	str	r3, [sp, #12]
    51f2:	464b      	mov	r3, r9
    51f4:	9406      	str	r4, [sp, #24]
    51f6:	9507      	str	r5, [sp, #28]
    51f8:	930a      	str	r3, [sp, #40]	; 0x28
    51fa:	9404      	str	r4, [sp, #16]
    51fc:	9505      	str	r5, [sp, #20]
    51fe:	f000 fb6b 	bl	58d8 <nan>
    5202:	4643      	mov	r3, r8
    5204:	781b      	ldrb	r3, [r3, #0]
    5206:	9008      	str	r0, [sp, #32]
    5208:	9109      	str	r1, [sp, #36]	; 0x24
    520a:	b25b      	sxtb	r3, r3
    520c:	2b02      	cmp	r3, #2
    520e:	d011      	beq.n	5234 <acos+0x94>
    5210:	a802      	add	r0, sp, #8
    5212:	f000 fb5f 	bl	58d4 <matherr>
    5216:	2800      	cmp	r0, #0
    5218:	d00c      	beq.n	5234 <acos+0x94>
    521a:	9b0a      	ldr	r3, [sp, #40]	; 0x28
    521c:	9301      	str	r3, [sp, #4]
    521e:	2b00      	cmp	r3, #0
    5220:	d110      	bne.n	5244 <acos+0xa4>
    5222:	9e08      	ldr	r6, [sp, #32]
    5224:	9f09      	ldr	r7, [sp, #36]	; 0x24
    5226:	0030      	movs	r0, r6
    5228:	0039      	movs	r1, r7
    522a:	b00d      	add	sp, #52	; 0x34
    522c:	bc0c      	pop	{r2, r3}
    522e:	4690      	mov	r8, r2
    5230:	4699      	mov	r9, r3
    5232:	bdf0      	pop	{r4, r5, r6, r7, pc}
    5234:	f002 fb4e 	bl	78d4 <__errno>
    5238:	2321      	movs	r3, #33	; 0x21
    523a:	6003      	str	r3, [r0, #0]
    523c:	9b0a      	ldr	r3, [sp, #40]	; 0x28
    523e:	9301      	str	r3, [sp, #4]
    5240:	2b00      	cmp	r3, #0
    5242:	d0ee      	beq.n	5222 <acos+0x82>
    5244:	f002 fb46 	bl	78d4 <__errno>
    5248:	9b0a      	ldr	r3, [sp, #40]	; 0x28
    524a:	9301      	str	r3, [sp, #4]
    524c:	6003      	str	r3, [r0, #0]
    524e:	e7e8      	b.n	5222 <acos+0x82>
    5250:	20000011 	.word	0x20000011
    5254:	3ff00000 	.word	0x3ff00000
    5258:	0000d390 	.word	0x0000d390
    525c:	0000d5a8 	.word	0x0000d5a8

00005260 <sqrt>:
    5260:	b5f0      	push	{r4, r5, r6, r7, lr}
    5262:	4647      	mov	r7, r8
    5264:	46ce      	mov	lr, r9
    5266:	b580      	push	{r7, lr}
    5268:	b08d      	sub	sp, #52	; 0x34
    526a:	0004      	movs	r4, r0
    526c:	000d      	movs	r5, r1
    526e:	f000 fa4d 	bl	570c <__ieee754_sqrt>
    5272:	4b29      	ldr	r3, [pc, #164]	; (5318 <sqrt+0xb8>)
    5274:	0006      	movs	r6, r0
    5276:	781b      	ldrb	r3, [r3, #0]
    5278:	000f      	movs	r7, r1
    527a:	b25b      	sxtb	r3, r3
    527c:	4698      	mov	r8, r3
    527e:	3301      	adds	r3, #1
    5280:	d010      	beq.n	52a4 <sqrt+0x44>
    5282:	0022      	movs	r2, r4
    5284:	002b      	movs	r3, r5
    5286:	0020      	movs	r0, r4
    5288:	0029      	movs	r1, r5
    528a:	f002 f955 	bl	7538 <__aeabi_dcmpun>
    528e:	4681      	mov	r9, r0
    5290:	2800      	cmp	r0, #0
    5292:	d107      	bne.n	52a4 <sqrt+0x44>
    5294:	2200      	movs	r2, #0
    5296:	2300      	movs	r3, #0
    5298:	0020      	movs	r0, r4
    529a:	0029      	movs	r1, r5
    529c:	f000 fbda 	bl	5a54 <__aeabi_dcmplt>
    52a0:	2800      	cmp	r0, #0
    52a2:	d106      	bne.n	52b2 <sqrt+0x52>
    52a4:	0030      	movs	r0, r6
    52a6:	0039      	movs	r1, r7
    52a8:	b00d      	add	sp, #52	; 0x34
    52aa:	bc0c      	pop	{r2, r3}
    52ac:	4690      	mov	r8, r2
    52ae:	4699      	mov	r9, r3
    52b0:	bdf0      	pop	{r4, r5, r6, r7, pc}
    52b2:	2301      	movs	r3, #1
    52b4:	9302      	str	r3, [sp, #8]
    52b6:	4b19      	ldr	r3, [pc, #100]	; (531c <sqrt+0xbc>)
    52b8:	9406      	str	r4, [sp, #24]
    52ba:	9507      	str	r5, [sp, #28]
    52bc:	9303      	str	r3, [sp, #12]
    52be:	464b      	mov	r3, r9
    52c0:	930a      	str	r3, [sp, #40]	; 0x28
    52c2:	4643      	mov	r3, r8
    52c4:	9404      	str	r4, [sp, #16]
    52c6:	9505      	str	r5, [sp, #20]
    52c8:	2b00      	cmp	r3, #0
    52ca:	d015      	beq.n	52f8 <sqrt+0x98>
    52cc:	2300      	movs	r3, #0
    52ce:	2200      	movs	r2, #0
    52d0:	0019      	movs	r1, r3
    52d2:	0010      	movs	r0, r2
    52d4:	f000 ff66 	bl	61a4 <__aeabi_ddiv>
    52d8:	4643      	mov	r3, r8
    52da:	9008      	str	r0, [sp, #32]
    52dc:	9109      	str	r1, [sp, #36]	; 0x24
    52de:	2b02      	cmp	r3, #2
    52e0:	d10e      	bne.n	5300 <sqrt+0xa0>
    52e2:	f002 faf7 	bl	78d4 <__errno>
    52e6:	2321      	movs	r3, #33	; 0x21
    52e8:	6003      	str	r3, [r0, #0]
    52ea:	9b0a      	ldr	r3, [sp, #40]	; 0x28
    52ec:	9301      	str	r3, [sp, #4]
    52ee:	2b00      	cmp	r3, #0
    52f0:	d10c      	bne.n	530c <sqrt+0xac>
    52f2:	9e08      	ldr	r6, [sp, #32]
    52f4:	9f09      	ldr	r7, [sp, #36]	; 0x24
    52f6:	e7d5      	b.n	52a4 <sqrt+0x44>
    52f8:	2300      	movs	r3, #0
    52fa:	2400      	movs	r4, #0
    52fc:	9308      	str	r3, [sp, #32]
    52fe:	9409      	str	r4, [sp, #36]	; 0x24
    5300:	a802      	add	r0, sp, #8
    5302:	f000 fae7 	bl	58d4 <matherr>
    5306:	2800      	cmp	r0, #0
    5308:	d1ef      	bne.n	52ea <sqrt+0x8a>
    530a:	e7ea      	b.n	52e2 <sqrt+0x82>
    530c:	f002 fae2 	bl	78d4 <__errno>
    5310:	9b0a      	ldr	r3, [sp, #40]	; 0x28
    5312:	9301      	str	r3, [sp, #4]
    5314:	6003      	str	r3, [r0, #0]
    5316:	e7ec      	b.n	52f2 <sqrt+0x92>
    5318:	20000011 	.word	0x20000011
    531c:	0000d398 	.word	0x0000d398

00005320 <__ieee754_acos>:
    5320:	b5f0      	push	{r4, r5, r6, r7, lr}
    5322:	4adb      	ldr	r2, [pc, #876]	; (5690 <__ieee754_acos+0x370>)
    5324:	004b      	lsls	r3, r1, #1
    5326:	b085      	sub	sp, #20
    5328:	0007      	movs	r7, r0
    532a:	000e      	movs	r6, r1
    532c:	085b      	lsrs	r3, r3, #1
    532e:	4293      	cmp	r3, r2
    5330:	dd0c      	ble.n	534c <__ieee754_acos+0x2c>
    5332:	4ad8      	ldr	r2, [pc, #864]	; (5694 <__ieee754_acos+0x374>)
    5334:	4694      	mov	ip, r2
    5336:	4463      	add	r3, ip
    5338:	4303      	orrs	r3, r0
    533a:	d000      	beq.n	533e <__ieee754_acos+0x1e>
    533c:	e0ac      	b.n	5498 <__ieee754_acos+0x178>
    533e:	2900      	cmp	r1, #0
    5340:	dc00      	bgt.n	5344 <__ieee754_acos+0x24>
    5342:	e125      	b.n	5590 <__ieee754_acos+0x270>
    5344:	2000      	movs	r0, #0
    5346:	2100      	movs	r1, #0
    5348:	b005      	add	sp, #20
    534a:	bdf0      	pop	{r4, r5, r6, r7, pc}
    534c:	4ad2      	ldr	r2, [pc, #840]	; (5698 <__ieee754_acos+0x378>)
    534e:	4293      	cmp	r3, r2
    5350:	dc00      	bgt.n	5354 <__ieee754_acos+0x34>
    5352:	e09b      	b.n	548c <__ieee754_acos+0x16c>
    5354:	2900      	cmp	r1, #0
    5356:	da00      	bge.n	535a <__ieee754_acos+0x3a>
    5358:	e11d      	b.n	5596 <__ieee754_acos+0x276>
    535a:	0002      	movs	r2, r0
    535c:	000b      	movs	r3, r1
    535e:	2000      	movs	r0, #0
    5360:	49ce      	ldr	r1, [pc, #824]	; (569c <__ieee754_acos+0x37c>)
    5362:	f001 fdd3 	bl	6f0c <__aeabi_dsub>
    5366:	2200      	movs	r2, #0
    5368:	4bcd      	ldr	r3, [pc, #820]	; (56a0 <__ieee754_acos+0x380>)
    536a:	f001 fb4f 	bl	6a0c <__aeabi_dmul>
    536e:	0004      	movs	r4, r0
    5370:	000d      	movs	r5, r1
    5372:	f000 f9cb 	bl	570c <__ieee754_sqrt>
    5376:	4acb      	ldr	r2, [pc, #812]	; (56a4 <__ieee754_acos+0x384>)
    5378:	000f      	movs	r7, r1
    537a:	9000      	str	r0, [sp, #0]
    537c:	9101      	str	r1, [sp, #4]
    537e:	4bca      	ldr	r3, [pc, #808]	; (56a8 <__ieee754_acos+0x388>)
    5380:	0020      	movs	r0, r4
    5382:	0029      	movs	r1, r5
    5384:	f001 fb42 	bl	6a0c <__aeabi_dmul>
    5388:	4ac8      	ldr	r2, [pc, #800]	; (56ac <__ieee754_acos+0x38c>)
    538a:	4bc9      	ldr	r3, [pc, #804]	; (56b0 <__ieee754_acos+0x390>)
    538c:	f000 fbfa 	bl	5b84 <__aeabi_dadd>
    5390:	0022      	movs	r2, r4
    5392:	002b      	movs	r3, r5
    5394:	f001 fb3a 	bl	6a0c <__aeabi_dmul>
    5398:	4ac6      	ldr	r2, [pc, #792]	; (56b4 <__ieee754_acos+0x394>)
    539a:	4bc7      	ldr	r3, [pc, #796]	; (56b8 <__ieee754_acos+0x398>)
    539c:	f001 fdb6 	bl	6f0c <__aeabi_dsub>
    53a0:	0022      	movs	r2, r4
    53a2:	002b      	movs	r3, r5
    53a4:	f001 fb32 	bl	6a0c <__aeabi_dmul>
    53a8:	4ac4      	ldr	r2, [pc, #784]	; (56bc <__ieee754_acos+0x39c>)
    53aa:	4bc5      	ldr	r3, [pc, #788]	; (56c0 <__ieee754_acos+0x3a0>)
    53ac:	f000 fbea 	bl	5b84 <__aeabi_dadd>
    53b0:	0022      	movs	r2, r4
    53b2:	002b      	movs	r3, r5
    53b4:	f001 fb2a 	bl	6a0c <__aeabi_dmul>
    53b8:	4ac2      	ldr	r2, [pc, #776]	; (56c4 <__ieee754_acos+0x3a4>)
    53ba:	4bc3      	ldr	r3, [pc, #780]	; (56c8 <__ieee754_acos+0x3a8>)
    53bc:	f001 fda6 	bl	6f0c <__aeabi_dsub>
    53c0:	0022      	movs	r2, r4
    53c2:	002b      	movs	r3, r5
    53c4:	f001 fb22 	bl	6a0c <__aeabi_dmul>
    53c8:	4ac0      	ldr	r2, [pc, #768]	; (56cc <__ieee754_acos+0x3ac>)
    53ca:	4bc1      	ldr	r3, [pc, #772]	; (56d0 <__ieee754_acos+0x3b0>)
    53cc:	f000 fbda 	bl	5b84 <__aeabi_dadd>
    53d0:	0022      	movs	r2, r4
    53d2:	002b      	movs	r3, r5
    53d4:	f001 fb1a 	bl	6a0c <__aeabi_dmul>
    53d8:	4abe      	ldr	r2, [pc, #760]	; (56d4 <__ieee754_acos+0x3b4>)
    53da:	9002      	str	r0, [sp, #8]
    53dc:	9103      	str	r1, [sp, #12]
    53de:	4bbe      	ldr	r3, [pc, #760]	; (56d8 <__ieee754_acos+0x3b8>)
    53e0:	0020      	movs	r0, r4
    53e2:	0029      	movs	r1, r5
    53e4:	f001 fb12 	bl	6a0c <__aeabi_dmul>
    53e8:	4abc      	ldr	r2, [pc, #752]	; (56dc <__ieee754_acos+0x3bc>)
    53ea:	4bbd      	ldr	r3, [pc, #756]	; (56e0 <__ieee754_acos+0x3c0>)
    53ec:	f001 fd8e 	bl	6f0c <__aeabi_dsub>
    53f0:	0022      	movs	r2, r4
    53f2:	002b      	movs	r3, r5
    53f4:	f001 fb0a 	bl	6a0c <__aeabi_dmul>
    53f8:	4aba      	ldr	r2, [pc, #744]	; (56e4 <__ieee754_acos+0x3c4>)
    53fa:	4bbb      	ldr	r3, [pc, #748]	; (56e8 <__ieee754_acos+0x3c8>)
    53fc:	f000 fbc2 	bl	5b84 <__aeabi_dadd>
    5400:	0022      	movs	r2, r4
    5402:	002b      	movs	r3, r5
    5404:	f001 fb02 	bl	6a0c <__aeabi_dmul>
    5408:	4ab8      	ldr	r2, [pc, #736]	; (56ec <__ieee754_acos+0x3cc>)
    540a:	4bb9      	ldr	r3, [pc, #740]	; (56f0 <__ieee754_acos+0x3d0>)
    540c:	f001 fd7e 	bl	6f0c <__aeabi_dsub>
    5410:	0022      	movs	r2, r4
    5412:	002b      	movs	r3, r5
    5414:	f001 fafa 	bl	6a0c <__aeabi_dmul>
    5418:	2200      	movs	r2, #0
    541a:	4ba0      	ldr	r3, [pc, #640]	; (569c <__ieee754_acos+0x37c>)
    541c:	f000 fbb2 	bl	5b84 <__aeabi_dadd>
    5420:	0002      	movs	r2, r0
    5422:	000b      	movs	r3, r1
    5424:	9802      	ldr	r0, [sp, #8]
    5426:	9903      	ldr	r1, [sp, #12]
    5428:	f000 febc 	bl	61a4 <__aeabi_ddiv>
    542c:	9a00      	ldr	r2, [sp, #0]
    542e:	9b01      	ldr	r3, [sp, #4]
    5430:	f001 faec 	bl	6a0c <__aeabi_dmul>
    5434:	2600      	movs	r6, #0
    5436:	9002      	str	r0, [sp, #8]
    5438:	9103      	str	r1, [sp, #12]
    543a:	0032      	movs	r2, r6
    543c:	003b      	movs	r3, r7
    543e:	0030      	movs	r0, r6
    5440:	0039      	movs	r1, r7
    5442:	f001 fae3 	bl	6a0c <__aeabi_dmul>
    5446:	0002      	movs	r2, r0
    5448:	000b      	movs	r3, r1
    544a:	0020      	movs	r0, r4
    544c:	0029      	movs	r1, r5
    544e:	f001 fd5d 	bl	6f0c <__aeabi_dsub>
    5452:	0032      	movs	r2, r6
    5454:	0004      	movs	r4, r0
    5456:	000d      	movs	r5, r1
    5458:	9800      	ldr	r0, [sp, #0]
    545a:	9901      	ldr	r1, [sp, #4]
    545c:	003b      	movs	r3, r7
    545e:	f000 fb91 	bl	5b84 <__aeabi_dadd>
    5462:	0002      	movs	r2, r0
    5464:	000b      	movs	r3, r1
    5466:	0020      	movs	r0, r4
    5468:	0029      	movs	r1, r5
    546a:	f000 fe9b 	bl	61a4 <__aeabi_ddiv>
    546e:	0002      	movs	r2, r0
    5470:	000b      	movs	r3, r1
    5472:	9802      	ldr	r0, [sp, #8]
    5474:	9903      	ldr	r1, [sp, #12]
    5476:	f000 fb85 	bl	5b84 <__aeabi_dadd>
    547a:	0032      	movs	r2, r6
    547c:	003b      	movs	r3, r7
    547e:	f000 fb81 	bl	5b84 <__aeabi_dadd>
    5482:	0002      	movs	r2, r0
    5484:	000b      	movs	r3, r1
    5486:	f000 fb7d 	bl	5b84 <__aeabi_dadd>
    548a:	e75d      	b.n	5348 <__ieee754_acos+0x28>
    548c:	4a99      	ldr	r2, [pc, #612]	; (56f4 <__ieee754_acos+0x3d4>)
    548e:	4293      	cmp	r3, r2
    5490:	dc0b      	bgt.n	54aa <__ieee754_acos+0x18a>
    5492:	4899      	ldr	r0, [pc, #612]	; (56f8 <__ieee754_acos+0x3d8>)
    5494:	4999      	ldr	r1, [pc, #612]	; (56fc <__ieee754_acos+0x3dc>)
    5496:	e757      	b.n	5348 <__ieee754_acos+0x28>
    5498:	0002      	movs	r2, r0
    549a:	000b      	movs	r3, r1
    549c:	f001 fd36 	bl	6f0c <__aeabi_dsub>
    54a0:	0002      	movs	r2, r0
    54a2:	000b      	movs	r3, r1
    54a4:	f000 fe7e 	bl	61a4 <__aeabi_ddiv>
    54a8:	e74e      	b.n	5348 <__ieee754_acos+0x28>
    54aa:	0002      	movs	r2, r0
    54ac:	000b      	movs	r3, r1
    54ae:	f001 faad 	bl	6a0c <__aeabi_dmul>
    54b2:	0004      	movs	r4, r0
    54b4:	000d      	movs	r5, r1
    54b6:	4a7b      	ldr	r2, [pc, #492]	; (56a4 <__ieee754_acos+0x384>)
    54b8:	4b7b      	ldr	r3, [pc, #492]	; (56a8 <__ieee754_acos+0x388>)
    54ba:	f001 faa7 	bl	6a0c <__aeabi_dmul>
    54be:	4a7b      	ldr	r2, [pc, #492]	; (56ac <__ieee754_acos+0x38c>)
    54c0:	4b7b      	ldr	r3, [pc, #492]	; (56b0 <__ieee754_acos+0x390>)
    54c2:	f000 fb5f 	bl	5b84 <__aeabi_dadd>
    54c6:	0022      	movs	r2, r4
    54c8:	002b      	movs	r3, r5
    54ca:	f001 fa9f 	bl	6a0c <__aeabi_dmul>
    54ce:	4a79      	ldr	r2, [pc, #484]	; (56b4 <__ieee754_acos+0x394>)
    54d0:	4b79      	ldr	r3, [pc, #484]	; (56b8 <__ieee754_acos+0x398>)
    54d2:	f001 fd1b 	bl	6f0c <__aeabi_dsub>
    54d6:	0022      	movs	r2, r4
    54d8:	002b      	movs	r3, r5
    54da:	f001 fa97 	bl	6a0c <__aeabi_dmul>
    54de:	4a77      	ldr	r2, [pc, #476]	; (56bc <__ieee754_acos+0x39c>)
    54e0:	4b77      	ldr	r3, [pc, #476]	; (56c0 <__ieee754_acos+0x3a0>)
    54e2:	f000 fb4f 	bl	5b84 <__aeabi_dadd>
    54e6:	0022      	movs	r2, r4
    54e8:	002b      	movs	r3, r5
    54ea:	f001 fa8f 	bl	6a0c <__aeabi_dmul>
    54ee:	4a75      	ldr	r2, [pc, #468]	; (56c4 <__ieee754_acos+0x3a4>)
    54f0:	4b75      	ldr	r3, [pc, #468]	; (56c8 <__ieee754_acos+0x3a8>)
    54f2:	f001 fd0b 	bl	6f0c <__aeabi_dsub>
    54f6:	0022      	movs	r2, r4
    54f8:	002b      	movs	r3, r5
    54fa:	f001 fa87 	bl	6a0c <__aeabi_dmul>
    54fe:	4a73      	ldr	r2, [pc, #460]	; (56cc <__ieee754_acos+0x3ac>)
    5500:	4b73      	ldr	r3, [pc, #460]	; (56d0 <__ieee754_acos+0x3b0>)
    5502:	f000 fb3f 	bl	5b84 <__aeabi_dadd>
    5506:	0022      	movs	r2, r4
    5508:	002b      	movs	r3, r5
    550a:	f001 fa7f 	bl	6a0c <__aeabi_dmul>
    550e:	4a71      	ldr	r2, [pc, #452]	; (56d4 <__ieee754_acos+0x3b4>)
    5510:	9000      	str	r0, [sp, #0]
    5512:	9101      	str	r1, [sp, #4]
    5514:	4b70      	ldr	r3, [pc, #448]	; (56d8 <__ieee754_acos+0x3b8>)
    5516:	0020      	movs	r0, r4
    5518:	0029      	movs	r1, r5
    551a:	f001 fa77 	bl	6a0c <__aeabi_dmul>
    551e:	4a6f      	ldr	r2, [pc, #444]	; (56dc <__ieee754_acos+0x3bc>)
    5520:	4b6f      	ldr	r3, [pc, #444]	; (56e0 <__ieee754_acos+0x3c0>)
    5522:	f001 fcf3 	bl	6f0c <__aeabi_dsub>
    5526:	0022      	movs	r2, r4
    5528:	002b      	movs	r3, r5
    552a:	f001 fa6f 	bl	6a0c <__aeabi_dmul>
    552e:	4a6d      	ldr	r2, [pc, #436]	; (56e4 <__ieee754_acos+0x3c4>)
    5530:	4b6d      	ldr	r3, [pc, #436]	; (56e8 <__ieee754_acos+0x3c8>)
    5532:	f000 fb27 	bl	5b84 <__aeabi_dadd>
    5536:	0022      	movs	r2, r4
    5538:	002b      	movs	r3, r5
    553a:	f001 fa67 	bl	6a0c <__aeabi_dmul>
    553e:	4a6b      	ldr	r2, [pc, #428]	; (56ec <__ieee754_acos+0x3cc>)
    5540:	4b6b      	ldr	r3, [pc, #428]	; (56f0 <__ieee754_acos+0x3d0>)
    5542:	f001 fce3 	bl	6f0c <__aeabi_dsub>
    5546:	0022      	movs	r2, r4
    5548:	002b      	movs	r3, r5
    554a:	f001 fa5f 	bl	6a0c <__aeabi_dmul>
    554e:	2200      	movs	r2, #0
    5550:	4b52      	ldr	r3, [pc, #328]	; (569c <__ieee754_acos+0x37c>)
    5552:	f000 fb17 	bl	5b84 <__aeabi_dadd>
    5556:	0002      	movs	r2, r0
    5558:	000b      	movs	r3, r1
    555a:	9800      	ldr	r0, [sp, #0]
    555c:	9901      	ldr	r1, [sp, #4]
    555e:	f000 fe21 	bl	61a4 <__aeabi_ddiv>
    5562:	003a      	movs	r2, r7
    5564:	0033      	movs	r3, r6
    5566:	f001 fa51 	bl	6a0c <__aeabi_dmul>
    556a:	0002      	movs	r2, r0
    556c:	000b      	movs	r3, r1
    556e:	4864      	ldr	r0, [pc, #400]	; (5700 <__ieee754_acos+0x3e0>)
    5570:	4964      	ldr	r1, [pc, #400]	; (5704 <__ieee754_acos+0x3e4>)
    5572:	f001 fccb 	bl	6f0c <__aeabi_dsub>
    5576:	0002      	movs	r2, r0
    5578:	000b      	movs	r3, r1
    557a:	0038      	movs	r0, r7
    557c:	0031      	movs	r1, r6
    557e:	f001 fcc5 	bl	6f0c <__aeabi_dsub>
    5582:	0002      	movs	r2, r0
    5584:	000b      	movs	r3, r1
    5586:	485c      	ldr	r0, [pc, #368]	; (56f8 <__ieee754_acos+0x3d8>)
    5588:	495c      	ldr	r1, [pc, #368]	; (56fc <__ieee754_acos+0x3dc>)
    558a:	f001 fcbf 	bl	6f0c <__aeabi_dsub>
    558e:	e6db      	b.n	5348 <__ieee754_acos+0x28>
    5590:	4859      	ldr	r0, [pc, #356]	; (56f8 <__ieee754_acos+0x3d8>)
    5592:	495d      	ldr	r1, [pc, #372]	; (5708 <__ieee754_acos+0x3e8>)
    5594:	e6d8      	b.n	5348 <__ieee754_acos+0x28>
    5596:	2200      	movs	r2, #0
    5598:	4b40      	ldr	r3, [pc, #256]	; (569c <__ieee754_acos+0x37c>)
    559a:	f000 faf3 	bl	5b84 <__aeabi_dadd>
    559e:	2200      	movs	r2, #0
    55a0:	4b3f      	ldr	r3, [pc, #252]	; (56a0 <__ieee754_acos+0x380>)
    55a2:	f001 fa33 	bl	6a0c <__aeabi_dmul>
    55a6:	0004      	movs	r4, r0
    55a8:	000d      	movs	r5, r1
    55aa:	4a3e      	ldr	r2, [pc, #248]	; (56a4 <__ieee754_acos+0x384>)
    55ac:	4b3e      	ldr	r3, [pc, #248]	; (56a8 <__ieee754_acos+0x388>)
    55ae:	f001 fa2d 	bl	6a0c <__aeabi_dmul>
    55b2:	4a3e      	ldr	r2, [pc, #248]	; (56ac <__ieee754_acos+0x38c>)
    55b4:	4b3e      	ldr	r3, [pc, #248]	; (56b0 <__ieee754_acos+0x390>)
    55b6:	f000 fae5 	bl	5b84 <__aeabi_dadd>
    55ba:	0022      	movs	r2, r4
    55bc:	002b      	movs	r3, r5
    55be:	f001 fa25 	bl	6a0c <__aeabi_dmul>
    55c2:	4a3c      	ldr	r2, [pc, #240]	; (56b4 <__ieee754_acos+0x394>)
    55c4:	4b3c      	ldr	r3, [pc, #240]	; (56b8 <__ieee754_acos+0x398>)
    55c6:	f001 fca1 	bl	6f0c <__aeabi_dsub>
    55ca:	0022      	movs	r2, r4
    55cc:	002b      	movs	r3, r5
    55ce:	f001 fa1d 	bl	6a0c <__aeabi_dmul>
    55d2:	4a3a      	ldr	r2, [pc, #232]	; (56bc <__ieee754_acos+0x39c>)
    55d4:	4b3a      	ldr	r3, [pc, #232]	; (56c0 <__ieee754_acos+0x3a0>)
    55d6:	f000 fad5 	bl	5b84 <__aeabi_dadd>
    55da:	0022      	movs	r2, r4
    55dc:	002b      	movs	r3, r5
    55de:	f001 fa15 	bl	6a0c <__aeabi_dmul>
    55e2:	4a38      	ldr	r2, [pc, #224]	; (56c4 <__ieee754_acos+0x3a4>)
    55e4:	4b38      	ldr	r3, [pc, #224]	; (56c8 <__ieee754_acos+0x3a8>)
    55e6:	f001 fc91 	bl	6f0c <__aeabi_dsub>
    55ea:	0022      	movs	r2, r4
    55ec:	002b      	movs	r3, r5
    55ee:	f001 fa0d 	bl	6a0c <__aeabi_dmul>
    55f2:	4a36      	ldr	r2, [pc, #216]	; (56cc <__ieee754_acos+0x3ac>)
    55f4:	4b36      	ldr	r3, [pc, #216]	; (56d0 <__ieee754_acos+0x3b0>)
    55f6:	f000 fac5 	bl	5b84 <__aeabi_dadd>
    55fa:	0022      	movs	r2, r4
    55fc:	002b      	movs	r3, r5
    55fe:	f001 fa05 	bl	6a0c <__aeabi_dmul>
    5602:	9000      	str	r0, [sp, #0]
    5604:	9101      	str	r1, [sp, #4]
    5606:	0020      	movs	r0, r4
    5608:	0029      	movs	r1, r5
    560a:	f000 f87f 	bl	570c <__ieee754_sqrt>
    560e:	4a31      	ldr	r2, [pc, #196]	; (56d4 <__ieee754_acos+0x3b4>)
    5610:	0006      	movs	r6, r0
    5612:	000f      	movs	r7, r1
    5614:	4b30      	ldr	r3, [pc, #192]	; (56d8 <__ieee754_acos+0x3b8>)
    5616:	0020      	movs	r0, r4
    5618:	0029      	movs	r1, r5
    561a:	f001 f9f7 	bl	6a0c <__aeabi_dmul>
    561e:	4a2f      	ldr	r2, [pc, #188]	; (56dc <__ieee754_acos+0x3bc>)
    5620:	4b2f      	ldr	r3, [pc, #188]	; (56e0 <__ieee754_acos+0x3c0>)
    5622:	f001 fc73 	bl	6f0c <__aeabi_dsub>
    5626:	0022      	movs	r2, r4
    5628:	002b      	movs	r3, r5
    562a:	f001 f9ef 	bl	6a0c <__aeabi_dmul>
    562e:	4a2d      	ldr	r2, [pc, #180]	; (56e4 <__ieee754_acos+0x3c4>)
    5630:	4b2d      	ldr	r3, [pc, #180]	; (56e8 <__ieee754_acos+0x3c8>)
    5632:	f000 faa7 	bl	5b84 <__aeabi_dadd>
    5636:	0022      	movs	r2, r4
    5638:	002b      	movs	r3, r5
    563a:	f001 f9e7 	bl	6a0c <__aeabi_dmul>
    563e:	4a2b      	ldr	r2, [pc, #172]	; (56ec <__ieee754_acos+0x3cc>)
    5640:	4b2b      	ldr	r3, [pc, #172]	; (56f0 <__ieee754_acos+0x3d0>)
    5642:	f001 fc63 	bl	6f0c <__aeabi_dsub>
    5646:	0022      	movs	r2, r4
    5648:	002b      	movs	r3, r5
    564a:	f001 f9df 	bl	6a0c <__aeabi_dmul>
    564e:	2200      	movs	r2, #0
    5650:	4b12      	ldr	r3, [pc, #72]	; (569c <__ieee754_acos+0x37c>)
    5652:	f000 fa97 	bl	5b84 <__aeabi_dadd>
    5656:	0002      	movs	r2, r0
    5658:	000b      	movs	r3, r1
    565a:	9800      	ldr	r0, [sp, #0]
    565c:	9901      	ldr	r1, [sp, #4]
    565e:	f000 fda1 	bl	61a4 <__aeabi_ddiv>
    5662:	0032      	movs	r2, r6
    5664:	003b      	movs	r3, r7
    5666:	f001 f9d1 	bl	6a0c <__aeabi_dmul>
    566a:	4a25      	ldr	r2, [pc, #148]	; (5700 <__ieee754_acos+0x3e0>)
    566c:	4b25      	ldr	r3, [pc, #148]	; (5704 <__ieee754_acos+0x3e4>)
    566e:	f001 fc4d 	bl	6f0c <__aeabi_dsub>
    5672:	0032      	movs	r2, r6
    5674:	003b      	movs	r3, r7
    5676:	f000 fa85 	bl	5b84 <__aeabi_dadd>
    567a:	0002      	movs	r2, r0
    567c:	000b      	movs	r3, r1
    567e:	f000 fa81 	bl	5b84 <__aeabi_dadd>
    5682:	0002      	movs	r2, r0
    5684:	000b      	movs	r3, r1
    5686:	481c      	ldr	r0, [pc, #112]	; (56f8 <__ieee754_acos+0x3d8>)
    5688:	491f      	ldr	r1, [pc, #124]	; (5708 <__ieee754_acos+0x3e8>)
    568a:	f001 fc3f 	bl	6f0c <__aeabi_dsub>
    568e:	e65b      	b.n	5348 <__ieee754_acos+0x28>
    5690:	3fefffff 	.word	0x3fefffff
    5694:	c0100000 	.word	0xc0100000
    5698:	3fdfffff 	.word	0x3fdfffff
    569c:	3ff00000 	.word	0x3ff00000
    56a0:	3fe00000 	.word	0x3fe00000
    56a4:	0dfdf709 	.word	0x0dfdf709
    56a8:	3f023de1 	.word	0x3f023de1
    56ac:	7501b288 	.word	0x7501b288
    56b0:	3f49efe0 	.word	0x3f49efe0
    56b4:	b5688f3b 	.word	0xb5688f3b
    56b8:	3fa48228 	.word	0x3fa48228
    56bc:	0e884455 	.word	0x0e884455
    56c0:	3fc9c155 	.word	0x3fc9c155
    56c4:	03eb6f7d 	.word	0x03eb6f7d
    56c8:	3fd4d612 	.word	0x3fd4d612
    56cc:	55555555 	.word	0x55555555
    56d0:	3fc55555 	.word	0x3fc55555
    56d4:	b12e9282 	.word	0xb12e9282
    56d8:	3fb3b8c5 	.word	0x3fb3b8c5
    56dc:	1b8d0159 	.word	0x1b8d0159
    56e0:	3fe6066c 	.word	0x3fe6066c
    56e4:	9c598ac8 	.word	0x9c598ac8
    56e8:	40002ae5 	.word	0x40002ae5
    56ec:	1c8a2d4b 	.word	0x1c8a2d4b
    56f0:	40033a27 	.word	0x40033a27
    56f4:	3c600000 	.word	0x3c600000
    56f8:	54442d18 	.word	0x54442d18
    56fc:	3ff921fb 	.word	0x3ff921fb
    5700:	33145c07 	.word	0x33145c07
    5704:	3c91a626 	.word	0x3c91a626
    5708:	400921fb 	.word	0x400921fb

0000570c <__ieee754_sqrt>:
    570c:	4b6c      	ldr	r3, [pc, #432]	; (58c0 <__ieee754_sqrt+0x1b4>)
    570e:	b5f0      	push	{r4, r5, r6, r7, lr}
    5710:	000a      	movs	r2, r1
    5712:	4646      	mov	r6, r8
    5714:	000d      	movs	r5, r1
    5716:	46d6      	mov	lr, sl
    5718:	464f      	mov	r7, r9
    571a:	0019      	movs	r1, r3
    571c:	b5c0      	push	{r6, r7, lr}
    571e:	0004      	movs	r4, r0
    5720:	0006      	movs	r6, r0
    5722:	4029      	ands	r1, r5
    5724:	4299      	cmp	r1, r3
    5726:	d100      	bne.n	572a <__ieee754_sqrt+0x1e>
    5728:	e0a7      	b.n	587a <__ieee754_sqrt+0x16e>
    572a:	2d00      	cmp	r5, #0
    572c:	dc00      	bgt.n	5730 <__ieee754_sqrt+0x24>
    572e:	e081      	b.n	5834 <__ieee754_sqrt+0x128>
    5730:	152f      	asrs	r7, r5, #20
    5732:	d100      	bne.n	5736 <__ieee754_sqrt+0x2a>
    5734:	e08e      	b.n	5854 <__ieee754_sqrt+0x148>
    5736:	4b63      	ldr	r3, [pc, #396]	; (58c4 <__ieee754_sqrt+0x1b8>)
    5738:	0312      	lsls	r2, r2, #12
    573a:	469c      	mov	ip, r3
    573c:	2380      	movs	r3, #128	; 0x80
    573e:	0b12      	lsrs	r2, r2, #12
    5740:	035b      	lsls	r3, r3, #13
    5742:	4467      	add	r7, ip
    5744:	431a      	orrs	r2, r3
    5746:	07fb      	lsls	r3, r7, #31
    5748:	d468      	bmi.n	581c <__ieee754_sqrt+0x110>
    574a:	107b      	asrs	r3, r7, #1
    574c:	469c      	mov	ip, r3
    574e:	0fe3      	lsrs	r3, r4, #31
    5750:	189b      	adds	r3, r3, r2
    5752:	189b      	adds	r3, r3, r2
    5754:	2280      	movs	r2, #128	; 0x80
    5756:	2116      	movs	r1, #22
    5758:	2600      	movs	r6, #0
    575a:	2500      	movs	r5, #0
    575c:	0064      	lsls	r4, r4, #1
    575e:	0392      	lsls	r2, r2, #14
    5760:	18a8      	adds	r0, r5, r2
    5762:	4298      	cmp	r0, r3
    5764:	dc02      	bgt.n	576c <__ieee754_sqrt+0x60>
    5766:	1885      	adds	r5, r0, r2
    5768:	1a1b      	subs	r3, r3, r0
    576a:	18b6      	adds	r6, r6, r2
    576c:	0fe0      	lsrs	r0, r4, #31
    576e:	005b      	lsls	r3, r3, #1
    5770:	3901      	subs	r1, #1
    5772:	181b      	adds	r3, r3, r0
    5774:	0064      	lsls	r4, r4, #1
    5776:	0852      	lsrs	r2, r2, #1
    5778:	2900      	cmp	r1, #0
    577a:	d1f1      	bne.n	5760 <__ieee754_sqrt+0x54>
    577c:	2200      	movs	r2, #0
    577e:	4692      	mov	sl, r2
    5780:	4690      	mov	r8, r2
    5782:	2280      	movs	r2, #128	; 0x80
    5784:	2020      	movs	r0, #32
    5786:	0612      	lsls	r2, r2, #24
    5788:	e009      	b.n	579e <__ieee754_sqrt+0x92>
    578a:	42ab      	cmp	r3, r5
    578c:	d038      	beq.n	5800 <__ieee754_sqrt+0xf4>
    578e:	0fe1      	lsrs	r1, r4, #31
    5790:	18c9      	adds	r1, r1, r3
    5792:	3801      	subs	r0, #1
    5794:	18cb      	adds	r3, r1, r3
    5796:	0064      	lsls	r4, r4, #1
    5798:	0852      	lsrs	r2, r2, #1
    579a:	2800      	cmp	r0, #0
    579c:	d018      	beq.n	57d0 <__ieee754_sqrt+0xc4>
    579e:	4641      	mov	r1, r8
    57a0:	1851      	adds	r1, r2, r1
    57a2:	42ab      	cmp	r3, r5
    57a4:	ddf1      	ble.n	578a <__ieee754_sqrt+0x7e>
    57a6:	188f      	adds	r7, r1, r2
    57a8:	46b8      	mov	r8, r7
    57aa:	46a9      	mov	r9, r5
    57ac:	2900      	cmp	r1, #0
    57ae:	db30      	blt.n	5812 <__ieee754_sqrt+0x106>
    57b0:	1b5b      	subs	r3, r3, r5
    57b2:	428c      	cmp	r4, r1
    57b4:	41ad      	sbcs	r5, r5
    57b6:	426d      	negs	r5, r5
    57b8:	1b5b      	subs	r3, r3, r5
    57ba:	1a64      	subs	r4, r4, r1
    57bc:	0fe1      	lsrs	r1, r4, #31
    57be:	18c9      	adds	r1, r1, r3
    57c0:	3801      	subs	r0, #1
    57c2:	4492      	add	sl, r2
    57c4:	464d      	mov	r5, r9
    57c6:	18cb      	adds	r3, r1, r3
    57c8:	0064      	lsls	r4, r4, #1
    57ca:	0852      	lsrs	r2, r2, #1
    57cc:	2800      	cmp	r0, #0
    57ce:	d1e6      	bne.n	579e <__ieee754_sqrt+0x92>
    57d0:	4323      	orrs	r3, r4
    57d2:	d128      	bne.n	5826 <__ieee754_sqrt+0x11a>
    57d4:	4653      	mov	r3, sl
    57d6:	085b      	lsrs	r3, r3, #1
    57d8:	493b      	ldr	r1, [pc, #236]	; (58c8 <__ieee754_sqrt+0x1bc>)
    57da:	1072      	asrs	r2, r6, #1
    57dc:	4688      	mov	r8, r1
    57de:	4442      	add	r2, r8
    57e0:	07f1      	lsls	r1, r6, #31
    57e2:	d502      	bpl.n	57ea <__ieee754_sqrt+0xde>
    57e4:	2180      	movs	r1, #128	; 0x80
    57e6:	0609      	lsls	r1, r1, #24
    57e8:	430b      	orrs	r3, r1
    57ea:	4661      	mov	r1, ip
    57ec:	001e      	movs	r6, r3
    57ee:	050f      	lsls	r7, r1, #20
    57f0:	18bd      	adds	r5, r7, r2
    57f2:	0030      	movs	r0, r6
    57f4:	0029      	movs	r1, r5
    57f6:	bc1c      	pop	{r2, r3, r4}
    57f8:	4690      	mov	r8, r2
    57fa:	4699      	mov	r9, r3
    57fc:	46a2      	mov	sl, r4
    57fe:	bdf0      	pop	{r4, r5, r6, r7, pc}
    5800:	42a1      	cmp	r1, r4
    5802:	d8c4      	bhi.n	578e <__ieee754_sqrt+0x82>
    5804:	188f      	adds	r7, r1, r2
    5806:	46b8      	mov	r8, r7
    5808:	2900      	cmp	r1, #0
    580a:	db42      	blt.n	5892 <__ieee754_sqrt+0x186>
    580c:	4699      	mov	r9, r3
    580e:	2300      	movs	r3, #0
    5810:	e7d3      	b.n	57ba <__ieee754_sqrt+0xae>
    5812:	2f00      	cmp	r7, #0
    5814:	db2f      	blt.n	5876 <__ieee754_sqrt+0x16a>
    5816:	1c6f      	adds	r7, r5, #1
    5818:	46b9      	mov	r9, r7
    581a:	e7c9      	b.n	57b0 <__ieee754_sqrt+0xa4>
    581c:	0fe1      	lsrs	r1, r4, #31
    581e:	0052      	lsls	r2, r2, #1
    5820:	188a      	adds	r2, r1, r2
    5822:	0064      	lsls	r4, r4, #1
    5824:	e791      	b.n	574a <__ieee754_sqrt+0x3e>
    5826:	4653      	mov	r3, sl
    5828:	3301      	adds	r3, #1
    582a:	d035      	beq.n	5898 <__ieee754_sqrt+0x18c>
    582c:	4653      	mov	r3, sl
    582e:	3301      	adds	r3, #1
    5830:	085b      	lsrs	r3, r3, #1
    5832:	e7d1      	b.n	57d8 <__ieee754_sqrt+0xcc>
    5834:	006b      	lsls	r3, r5, #1
    5836:	085b      	lsrs	r3, r3, #1
    5838:	4303      	orrs	r3, r0
    583a:	d0da      	beq.n	57f2 <__ieee754_sqrt+0xe6>
    583c:	2700      	movs	r7, #0
    583e:	2d00      	cmp	r5, #0
    5840:	d132      	bne.n	58a8 <__ieee754_sqrt+0x19c>
    5842:	0ae2      	lsrs	r2, r4, #11
    5844:	3f15      	subs	r7, #21
    5846:	0564      	lsls	r4, r4, #21
    5848:	2a00      	cmp	r2, #0
    584a:	d0fa      	beq.n	5842 <__ieee754_sqrt+0x136>
    584c:	2380      	movs	r3, #128	; 0x80
    584e:	035b      	lsls	r3, r3, #13
    5850:	421a      	tst	r2, r3
    5852:	d124      	bne.n	589e <__ieee754_sqrt+0x192>
    5854:	2080      	movs	r0, #128	; 0x80
    5856:	2300      	movs	r3, #0
    5858:	0340      	lsls	r0, r0, #13
    585a:	e000      	b.n	585e <__ieee754_sqrt+0x152>
    585c:	000b      	movs	r3, r1
    585e:	0052      	lsls	r2, r2, #1
    5860:	1c59      	adds	r1, r3, #1
    5862:	4202      	tst	r2, r0
    5864:	d0fa      	beq.n	585c <__ieee754_sqrt+0x150>
    5866:	2020      	movs	r0, #32
    5868:	1a40      	subs	r0, r0, r1
    586a:	1aff      	subs	r7, r7, r3
    586c:	0023      	movs	r3, r4
    586e:	40c3      	lsrs	r3, r0
    5870:	408c      	lsls	r4, r1
    5872:	431a      	orrs	r2, r3
    5874:	e75f      	b.n	5736 <__ieee754_sqrt+0x2a>
    5876:	46a9      	mov	r9, r5
    5878:	e79a      	b.n	57b0 <__ieee754_sqrt+0xa4>
    587a:	002b      	movs	r3, r5
    587c:	0002      	movs	r2, r0
    587e:	0029      	movs	r1, r5
    5880:	f001 f8c4 	bl	6a0c <__aeabi_dmul>
    5884:	0032      	movs	r2, r6
    5886:	002b      	movs	r3, r5
    5888:	f000 f97c 	bl	5b84 <__aeabi_dadd>
    588c:	0006      	movs	r6, r0
    588e:	000d      	movs	r5, r1
    5890:	e7af      	b.n	57f2 <__ieee754_sqrt+0xe6>
    5892:	2f00      	cmp	r7, #0
    5894:	dabf      	bge.n	5816 <__ieee754_sqrt+0x10a>
    5896:	e7b9      	b.n	580c <__ieee754_sqrt+0x100>
    5898:	3601      	adds	r6, #1
    589a:	2300      	movs	r3, #0
    589c:	e79c      	b.n	57d8 <__ieee754_sqrt+0xcc>
    589e:	2301      	movs	r3, #1
    58a0:	2100      	movs	r1, #0
    58a2:	2020      	movs	r0, #32
    58a4:	425b      	negs	r3, r3
    58a6:	e7e0      	b.n	586a <__ieee754_sqrt+0x15e>
    58a8:	002b      	movs	r3, r5
    58aa:	0002      	movs	r2, r0
    58ac:	0029      	movs	r1, r5
    58ae:	f001 fb2d 	bl	6f0c <__aeabi_dsub>
    58b2:	0002      	movs	r2, r0
    58b4:	000b      	movs	r3, r1
    58b6:	f000 fc75 	bl	61a4 <__aeabi_ddiv>
    58ba:	0006      	movs	r6, r0
    58bc:	000d      	movs	r5, r1
    58be:	e798      	b.n	57f2 <__ieee754_sqrt+0xe6>
    58c0:	7ff00000 	.word	0x7ff00000
    58c4:	fffffc01 	.word	0xfffffc01
    58c8:	3fe00000 	.word	0x3fe00000

000058cc <fabs>:
    58cc:	0049      	lsls	r1, r1, #1
    58ce:	084b      	lsrs	r3, r1, #1
    58d0:	0019      	movs	r1, r3
    58d2:	4770      	bx	lr

000058d4 <matherr>:
    58d4:	2000      	movs	r0, #0
    58d6:	4770      	bx	lr

000058d8 <nan>:
    58d8:	2000      	movs	r0, #0
    58da:	4901      	ldr	r1, [pc, #4]	; (58e0 <nan+0x8>)
    58dc:	4770      	bx	lr
    58de:	46c0      	nop			; (mov r8, r8)
    58e0:	7ff80000 	.word	0x7ff80000

000058e4 <__gnu_thumb1_case_uqi>:
    58e4:	b402      	push	{r1}
    58e6:	4671      	mov	r1, lr
    58e8:	0849      	lsrs	r1, r1, #1
    58ea:	0049      	lsls	r1, r1, #1
    58ec:	5c09      	ldrb	r1, [r1, r0]
    58ee:	0049      	lsls	r1, r1, #1
    58f0:	448e      	add	lr, r1
    58f2:	bc02      	pop	{r1}
    58f4:	4770      	bx	lr
    58f6:	46c0      	nop			; (mov r8, r8)

000058f8 <__udivsi3>:
    58f8:	2200      	movs	r2, #0
    58fa:	0843      	lsrs	r3, r0, #1
    58fc:	428b      	cmp	r3, r1
    58fe:	d374      	bcc.n	59ea <__udivsi3+0xf2>
    5900:	0903      	lsrs	r3, r0, #4
    5902:	428b      	cmp	r3, r1
    5904:	d35f      	bcc.n	59c6 <__udivsi3+0xce>
    5906:	0a03      	lsrs	r3, r0, #8
    5908:	428b      	cmp	r3, r1
    590a:	d344      	bcc.n	5996 <__udivsi3+0x9e>
    590c:	0b03      	lsrs	r3, r0, #12
    590e:	428b      	cmp	r3, r1
    5910:	d328      	bcc.n	5964 <__udivsi3+0x6c>
    5912:	0c03      	lsrs	r3, r0, #16
    5914:	428b      	cmp	r3, r1
    5916:	d30d      	bcc.n	5934 <__udivsi3+0x3c>
    5918:	22ff      	movs	r2, #255	; 0xff
    591a:	0209      	lsls	r1, r1, #8
    591c:	ba12      	rev	r2, r2
    591e:	0c03      	lsrs	r3, r0, #16
    5920:	428b      	cmp	r3, r1
    5922:	d302      	bcc.n	592a <__udivsi3+0x32>
    5924:	1212      	asrs	r2, r2, #8
    5926:	0209      	lsls	r1, r1, #8
    5928:	d065      	beq.n	59f6 <__udivsi3+0xfe>
    592a:	0b03      	lsrs	r3, r0, #12
    592c:	428b      	cmp	r3, r1
    592e:	d319      	bcc.n	5964 <__udivsi3+0x6c>
    5930:	e000      	b.n	5934 <__udivsi3+0x3c>
    5932:	0a09      	lsrs	r1, r1, #8
    5934:	0bc3      	lsrs	r3, r0, #15
    5936:	428b      	cmp	r3, r1
    5938:	d301      	bcc.n	593e <__udivsi3+0x46>
    593a:	03cb      	lsls	r3, r1, #15
    593c:	1ac0      	subs	r0, r0, r3
    593e:	4152      	adcs	r2, r2
    5940:	0b83      	lsrs	r3, r0, #14
    5942:	428b      	cmp	r3, r1
    5944:	d301      	bcc.n	594a <__udivsi3+0x52>
    5946:	038b      	lsls	r3, r1, #14
    5948:	1ac0      	subs	r0, r0, r3
    594a:	4152      	adcs	r2, r2
    594c:	0b43      	lsrs	r3, r0, #13
    594e:	428b      	cmp	r3, r1
    5950:	d301      	bcc.n	5956 <__udivsi3+0x5e>
    5952:	034b      	lsls	r3, r1, #13
    5954:	1ac0      	subs	r0, r0, r3
    5956:	4152      	adcs	r2, r2
    5958:	0b03      	lsrs	r3, r0, #12
    595a:	428b      	cmp	r3, r1
    595c:	d301      	bcc.n	5962 <__udivsi3+0x6a>
    595e:	030b      	lsls	r3, r1, #12
    5960:	1ac0      	subs	r0, r0, r3
    5962:	4152      	adcs	r2, r2
    5964:	0ac3      	lsrs	r3, r0, #11
    5966:	428b      	cmp	r3, r1
    5968:	d301      	bcc.n	596e <__udivsi3+0x76>
    596a:	02cb      	lsls	r3, r1, #11
    596c:	1ac0      	subs	r0, r0, r3
    596e:	4152      	adcs	r2, r2
    5970:	0a83      	lsrs	r3, r0, #10
    5972:	428b      	cmp	r3, r1
    5974:	d301      	bcc.n	597a <__udivsi3+0x82>
    5976:	028b      	lsls	r3, r1, #10
    5978:	1ac0      	subs	r0, r0, r3
    597a:	4152      	adcs	r2, r2
    597c:	0a43      	lsrs	r3, r0, #9
    597e:	428b      	cmp	r3, r1
    5980:	d301      	bcc.n	5986 <__udivsi3+0x8e>
    5982:	024b      	lsls	r3, r1, #9
    5984:	1ac0      	subs	r0, r0, r3
    5986:	4152      	adcs	r2, r2
    5988:	0a03      	lsrs	r3, r0, #8
    598a:	428b      	cmp	r3, r1
    598c:	d301      	bcc.n	5992 <__udivsi3+0x9a>
    598e:	020b      	lsls	r3, r1, #8
    5990:	1ac0      	subs	r0, r0, r3
    5992:	4152      	adcs	r2, r2
    5994:	d2cd      	bcs.n	5932 <__udivsi3+0x3a>
    5996:	09c3      	lsrs	r3, r0, #7
    5998:	428b      	cmp	r3, r1
    599a:	d301      	bcc.n	59a0 <__udivsi3+0xa8>
    599c:	01cb      	lsls	r3, r1, #7
    599e:	1ac0      	subs	r0, r0, r3
    59a0:	4152      	adcs	r2, r2
    59a2:	0983      	lsrs	r3, r0, #6
    59a4:	428b      	cmp	r3, r1
    59a6:	d301      	bcc.n	59ac <__udivsi3+0xb4>
    59a8:	018b      	lsls	r3, r1, #6
    59aa:	1ac0      	subs	r0, r0, r3
    59ac:	4152      	adcs	r2, r2
    59ae:	0943      	lsrs	r3, r0, #5
    59b0:	428b      	cmp	r3, r1
    59b2:	d301      	bcc.n	59b8 <__udivsi3+0xc0>
    59b4:	014b      	lsls	r3, r1, #5
    59b6:	1ac0      	subs	r0, r0, r3
    59b8:	4152      	adcs	r2, r2
    59ba:	0903      	lsrs	r3, r0, #4
    59bc:	428b      	cmp	r3, r1
    59be:	d301      	bcc.n	59c4 <__udivsi3+0xcc>
    59c0:	010b      	lsls	r3, r1, #4
    59c2:	1ac0      	subs	r0, r0, r3
    59c4:	4152      	adcs	r2, r2
    59c6:	08c3      	lsrs	r3, r0, #3
    59c8:	428b      	cmp	r3, r1
    59ca:	d301      	bcc.n	59d0 <__udivsi3+0xd8>
    59cc:	00cb      	lsls	r3, r1, #3
    59ce:	1ac0      	subs	r0, r0, r3
    59d0:	4152      	adcs	r2, r2
    59d2:	0883      	lsrs	r3, r0, #2
    59d4:	428b      	cmp	r3, r1
    59d6:	d301      	bcc.n	59dc <__udivsi3+0xe4>
    59d8:	008b      	lsls	r3, r1, #2
    59da:	1ac0      	subs	r0, r0, r3
    59dc:	4152      	adcs	r2, r2
    59de:	0843      	lsrs	r3, r0, #1
    59e0:	428b      	cmp	r3, r1
    59e2:	d301      	bcc.n	59e8 <__udivsi3+0xf0>
    59e4:	004b      	lsls	r3, r1, #1
    59e6:	1ac0      	subs	r0, r0, r3
    59e8:	4152      	adcs	r2, r2
    59ea:	1a41      	subs	r1, r0, r1
    59ec:	d200      	bcs.n	59f0 <__udivsi3+0xf8>
    59ee:	4601      	mov	r1, r0
    59f0:	4152      	adcs	r2, r2
    59f2:	4610      	mov	r0, r2
    59f4:	4770      	bx	lr
    59f6:	e7ff      	b.n	59f8 <__udivsi3+0x100>
    59f8:	b501      	push	{r0, lr}
    59fa:	2000      	movs	r0, #0
    59fc:	f000 f806 	bl	5a0c <__aeabi_idiv0>
    5a00:	bd02      	pop	{r1, pc}
    5a02:	46c0      	nop			; (mov r8, r8)

00005a04 <__aeabi_uidivmod>:
    5a04:	2900      	cmp	r1, #0
    5a06:	d0f7      	beq.n	59f8 <__udivsi3+0x100>
    5a08:	e776      	b.n	58f8 <__udivsi3>
    5a0a:	4770      	bx	lr

00005a0c <__aeabi_idiv0>:
    5a0c:	4770      	bx	lr
    5a0e:	46c0      	nop			; (mov r8, r8)

00005a10 <__aeabi_llsl>:
    5a10:	4091      	lsls	r1, r2
    5a12:	1c03      	adds	r3, r0, #0
    5a14:	4090      	lsls	r0, r2
    5a16:	469c      	mov	ip, r3
    5a18:	3a20      	subs	r2, #32
    5a1a:	4093      	lsls	r3, r2
    5a1c:	4319      	orrs	r1, r3
    5a1e:	4252      	negs	r2, r2
    5a20:	4663      	mov	r3, ip
    5a22:	40d3      	lsrs	r3, r2
    5a24:	4319      	orrs	r1, r3
    5a26:	4770      	bx	lr

00005a28 <__aeabi_cdrcmple>:
    5a28:	4684      	mov	ip, r0
    5a2a:	1c10      	adds	r0, r2, #0
    5a2c:	4662      	mov	r2, ip
    5a2e:	468c      	mov	ip, r1
    5a30:	1c19      	adds	r1, r3, #0
    5a32:	4663      	mov	r3, ip
    5a34:	e000      	b.n	5a38 <__aeabi_cdcmpeq>
    5a36:	46c0      	nop			; (mov r8, r8)

00005a38 <__aeabi_cdcmpeq>:
    5a38:	b51f      	push	{r0, r1, r2, r3, r4, lr}
    5a3a:	f000 ff85 	bl	6948 <__ledf2>
    5a3e:	2800      	cmp	r0, #0
    5a40:	d401      	bmi.n	5a46 <__aeabi_cdcmpeq+0xe>
    5a42:	2100      	movs	r1, #0
    5a44:	42c8      	cmn	r0, r1
    5a46:	bd1f      	pop	{r0, r1, r2, r3, r4, pc}

00005a48 <__aeabi_dcmpeq>:
    5a48:	b510      	push	{r4, lr}
    5a4a:	f000 fedf 	bl	680c <__eqdf2>
    5a4e:	4240      	negs	r0, r0
    5a50:	3001      	adds	r0, #1
    5a52:	bd10      	pop	{r4, pc}

00005a54 <__aeabi_dcmplt>:
    5a54:	b510      	push	{r4, lr}
    5a56:	f000 ff77 	bl	6948 <__ledf2>
    5a5a:	2800      	cmp	r0, #0
    5a5c:	db01      	blt.n	5a62 <__aeabi_dcmplt+0xe>
    5a5e:	2000      	movs	r0, #0
    5a60:	bd10      	pop	{r4, pc}
    5a62:	2001      	movs	r0, #1
    5a64:	bd10      	pop	{r4, pc}
    5a66:	46c0      	nop			; (mov r8, r8)

00005a68 <__aeabi_dcmple>:
    5a68:	b510      	push	{r4, lr}
    5a6a:	f000 ff6d 	bl	6948 <__ledf2>
    5a6e:	2800      	cmp	r0, #0
    5a70:	dd01      	ble.n	5a76 <__aeabi_dcmple+0xe>
    5a72:	2000      	movs	r0, #0
    5a74:	bd10      	pop	{r4, pc}
    5a76:	2001      	movs	r0, #1
    5a78:	bd10      	pop	{r4, pc}
    5a7a:	46c0      	nop			; (mov r8, r8)

00005a7c <__aeabi_dcmpgt>:
    5a7c:	b510      	push	{r4, lr}
    5a7e:	f000 feff 	bl	6880 <__gedf2>
    5a82:	2800      	cmp	r0, #0
    5a84:	dc01      	bgt.n	5a8a <__aeabi_dcmpgt+0xe>
    5a86:	2000      	movs	r0, #0
    5a88:	bd10      	pop	{r4, pc}
    5a8a:	2001      	movs	r0, #1
    5a8c:	bd10      	pop	{r4, pc}
    5a8e:	46c0      	nop			; (mov r8, r8)

00005a90 <__aeabi_dcmpge>:
    5a90:	b510      	push	{r4, lr}
    5a92:	f000 fef5 	bl	6880 <__gedf2>
    5a96:	2800      	cmp	r0, #0
    5a98:	da01      	bge.n	5a9e <__aeabi_dcmpge+0xe>
    5a9a:	2000      	movs	r0, #0
    5a9c:	bd10      	pop	{r4, pc}
    5a9e:	2001      	movs	r0, #1
    5aa0:	bd10      	pop	{r4, pc}
    5aa2:	46c0      	nop			; (mov r8, r8)

00005aa4 <__aeabi_lmul>:
    5aa4:	b5f0      	push	{r4, r5, r6, r7, lr}
    5aa6:	46ce      	mov	lr, r9
    5aa8:	4647      	mov	r7, r8
    5aaa:	0415      	lsls	r5, r2, #16
    5aac:	0c2d      	lsrs	r5, r5, #16
    5aae:	002e      	movs	r6, r5
    5ab0:	b580      	push	{r7, lr}
    5ab2:	0407      	lsls	r7, r0, #16
    5ab4:	0c14      	lsrs	r4, r2, #16
    5ab6:	0c3f      	lsrs	r7, r7, #16
    5ab8:	4699      	mov	r9, r3
    5aba:	0c03      	lsrs	r3, r0, #16
    5abc:	437e      	muls	r6, r7
    5abe:	435d      	muls	r5, r3
    5ac0:	4367      	muls	r7, r4
    5ac2:	4363      	muls	r3, r4
    5ac4:	197f      	adds	r7, r7, r5
    5ac6:	0c34      	lsrs	r4, r6, #16
    5ac8:	19e4      	adds	r4, r4, r7
    5aca:	469c      	mov	ip, r3
    5acc:	42a5      	cmp	r5, r4
    5ace:	d903      	bls.n	5ad8 <__aeabi_lmul+0x34>
    5ad0:	2380      	movs	r3, #128	; 0x80
    5ad2:	025b      	lsls	r3, r3, #9
    5ad4:	4698      	mov	r8, r3
    5ad6:	44c4      	add	ip, r8
    5ad8:	464b      	mov	r3, r9
    5ada:	4351      	muls	r1, r2
    5adc:	4343      	muls	r3, r0
    5ade:	0436      	lsls	r6, r6, #16
    5ae0:	0c36      	lsrs	r6, r6, #16
    5ae2:	0c25      	lsrs	r5, r4, #16
    5ae4:	0424      	lsls	r4, r4, #16
    5ae6:	4465      	add	r5, ip
    5ae8:	19a4      	adds	r4, r4, r6
    5aea:	1859      	adds	r1, r3, r1
    5aec:	1949      	adds	r1, r1, r5
    5aee:	0020      	movs	r0, r4
    5af0:	bc0c      	pop	{r2, r3}
    5af2:	4690      	mov	r8, r2
    5af4:	4699      	mov	r9, r3
    5af6:	bdf0      	pop	{r4, r5, r6, r7, pc}

00005af8 <__aeabi_ui2f>:
    5af8:	b510      	push	{r4, lr}
    5afa:	1e04      	subs	r4, r0, #0
    5afc:	d027      	beq.n	5b4e <__aeabi_ui2f+0x56>
    5afe:	f001 fec5 	bl	788c <__clzsi2>
    5b02:	239e      	movs	r3, #158	; 0x9e
    5b04:	1a1b      	subs	r3, r3, r0
    5b06:	2b96      	cmp	r3, #150	; 0x96
    5b08:	dc0a      	bgt.n	5b20 <__aeabi_ui2f+0x28>
    5b0a:	2296      	movs	r2, #150	; 0x96
    5b0c:	1ad2      	subs	r2, r2, r3
    5b0e:	4094      	lsls	r4, r2
    5b10:	0264      	lsls	r4, r4, #9
    5b12:	0a64      	lsrs	r4, r4, #9
    5b14:	b2db      	uxtb	r3, r3
    5b16:	0264      	lsls	r4, r4, #9
    5b18:	05db      	lsls	r3, r3, #23
    5b1a:	0a60      	lsrs	r0, r4, #9
    5b1c:	4318      	orrs	r0, r3
    5b1e:	bd10      	pop	{r4, pc}
    5b20:	2b99      	cmp	r3, #153	; 0x99
    5b22:	dc17      	bgt.n	5b54 <__aeabi_ui2f+0x5c>
    5b24:	2299      	movs	r2, #153	; 0x99
    5b26:	1ad2      	subs	r2, r2, r3
    5b28:	2a00      	cmp	r2, #0
    5b2a:	dd27      	ble.n	5b7c <__aeabi_ui2f+0x84>
    5b2c:	4094      	lsls	r4, r2
    5b2e:	0022      	movs	r2, r4
    5b30:	4c13      	ldr	r4, [pc, #76]	; (5b80 <__aeabi_ui2f+0x88>)
    5b32:	4014      	ands	r4, r2
    5b34:	0751      	lsls	r1, r2, #29
    5b36:	d004      	beq.n	5b42 <__aeabi_ui2f+0x4a>
    5b38:	210f      	movs	r1, #15
    5b3a:	400a      	ands	r2, r1
    5b3c:	2a04      	cmp	r2, #4
    5b3e:	d000      	beq.n	5b42 <__aeabi_ui2f+0x4a>
    5b40:	3404      	adds	r4, #4
    5b42:	0162      	lsls	r2, r4, #5
    5b44:	d412      	bmi.n	5b6c <__aeabi_ui2f+0x74>
    5b46:	01a4      	lsls	r4, r4, #6
    5b48:	0a64      	lsrs	r4, r4, #9
    5b4a:	b2db      	uxtb	r3, r3
    5b4c:	e7e3      	b.n	5b16 <__aeabi_ui2f+0x1e>
    5b4e:	2300      	movs	r3, #0
    5b50:	2400      	movs	r4, #0
    5b52:	e7e0      	b.n	5b16 <__aeabi_ui2f+0x1e>
    5b54:	22b9      	movs	r2, #185	; 0xb9
    5b56:	0021      	movs	r1, r4
    5b58:	1ad2      	subs	r2, r2, r3
    5b5a:	4091      	lsls	r1, r2
    5b5c:	000a      	movs	r2, r1
    5b5e:	1e51      	subs	r1, r2, #1
    5b60:	418a      	sbcs	r2, r1
    5b62:	2105      	movs	r1, #5
    5b64:	1a09      	subs	r1, r1, r0
    5b66:	40cc      	lsrs	r4, r1
    5b68:	4314      	orrs	r4, r2
    5b6a:	e7db      	b.n	5b24 <__aeabi_ui2f+0x2c>
    5b6c:	4b04      	ldr	r3, [pc, #16]	; (5b80 <__aeabi_ui2f+0x88>)
    5b6e:	401c      	ands	r4, r3
    5b70:	239f      	movs	r3, #159	; 0x9f
    5b72:	01a4      	lsls	r4, r4, #6
    5b74:	1a1b      	subs	r3, r3, r0
    5b76:	0a64      	lsrs	r4, r4, #9
    5b78:	b2db      	uxtb	r3, r3
    5b7a:	e7cc      	b.n	5b16 <__aeabi_ui2f+0x1e>
    5b7c:	0022      	movs	r2, r4
    5b7e:	e7d7      	b.n	5b30 <__aeabi_ui2f+0x38>
    5b80:	fbffffff 	.word	0xfbffffff

00005b84 <__aeabi_dadd>:
    5b84:	b5f8      	push	{r3, r4, r5, r6, r7, lr}
    5b86:	4645      	mov	r5, r8
    5b88:	46de      	mov	lr, fp
    5b8a:	4657      	mov	r7, sl
    5b8c:	464e      	mov	r6, r9
    5b8e:	030c      	lsls	r4, r1, #12
    5b90:	b5e0      	push	{r5, r6, r7, lr}
    5b92:	004e      	lsls	r6, r1, #1
    5b94:	0fc9      	lsrs	r1, r1, #31
    5b96:	4688      	mov	r8, r1
    5b98:	000d      	movs	r5, r1
    5b9a:	0a61      	lsrs	r1, r4, #9
    5b9c:	0f44      	lsrs	r4, r0, #29
    5b9e:	430c      	orrs	r4, r1
    5ba0:	00c7      	lsls	r7, r0, #3
    5ba2:	0319      	lsls	r1, r3, #12
    5ba4:	0058      	lsls	r0, r3, #1
    5ba6:	0fdb      	lsrs	r3, r3, #31
    5ba8:	469b      	mov	fp, r3
    5baa:	0a4b      	lsrs	r3, r1, #9
    5bac:	0f51      	lsrs	r1, r2, #29
    5bae:	430b      	orrs	r3, r1
    5bb0:	0d76      	lsrs	r6, r6, #21
    5bb2:	0d40      	lsrs	r0, r0, #21
    5bb4:	0019      	movs	r1, r3
    5bb6:	00d2      	lsls	r2, r2, #3
    5bb8:	45d8      	cmp	r8, fp
    5bba:	d100      	bne.n	5bbe <__aeabi_dadd+0x3a>
    5bbc:	e0ae      	b.n	5d1c <__aeabi_dadd+0x198>
    5bbe:	1a35      	subs	r5, r6, r0
    5bc0:	2d00      	cmp	r5, #0
    5bc2:	dc00      	bgt.n	5bc6 <__aeabi_dadd+0x42>
    5bc4:	e0f6      	b.n	5db4 <__aeabi_dadd+0x230>
    5bc6:	2800      	cmp	r0, #0
    5bc8:	d10f      	bne.n	5bea <__aeabi_dadd+0x66>
    5bca:	4313      	orrs	r3, r2
    5bcc:	d100      	bne.n	5bd0 <__aeabi_dadd+0x4c>
    5bce:	e0db      	b.n	5d88 <__aeabi_dadd+0x204>
    5bd0:	1e6b      	subs	r3, r5, #1
    5bd2:	2b00      	cmp	r3, #0
    5bd4:	d000      	beq.n	5bd8 <__aeabi_dadd+0x54>
    5bd6:	e137      	b.n	5e48 <__aeabi_dadd+0x2c4>
    5bd8:	1aba      	subs	r2, r7, r2
    5bda:	4297      	cmp	r7, r2
    5bdc:	41bf      	sbcs	r7, r7
    5bde:	1a64      	subs	r4, r4, r1
    5be0:	427f      	negs	r7, r7
    5be2:	1be4      	subs	r4, r4, r7
    5be4:	2601      	movs	r6, #1
    5be6:	0017      	movs	r7, r2
    5be8:	e024      	b.n	5c34 <__aeabi_dadd+0xb0>
    5bea:	4bc6      	ldr	r3, [pc, #792]	; (5f04 <__aeabi_dadd+0x380>)
    5bec:	429e      	cmp	r6, r3
    5bee:	d04d      	beq.n	5c8c <__aeabi_dadd+0x108>
    5bf0:	2380      	movs	r3, #128	; 0x80
    5bf2:	041b      	lsls	r3, r3, #16
    5bf4:	4319      	orrs	r1, r3
    5bf6:	2d38      	cmp	r5, #56	; 0x38
    5bf8:	dd00      	ble.n	5bfc <__aeabi_dadd+0x78>
    5bfa:	e107      	b.n	5e0c <__aeabi_dadd+0x288>
    5bfc:	2d1f      	cmp	r5, #31
    5bfe:	dd00      	ble.n	5c02 <__aeabi_dadd+0x7e>
    5c00:	e138      	b.n	5e74 <__aeabi_dadd+0x2f0>
    5c02:	2020      	movs	r0, #32
    5c04:	1b43      	subs	r3, r0, r5
    5c06:	469a      	mov	sl, r3
    5c08:	000b      	movs	r3, r1
    5c0a:	4650      	mov	r0, sl
    5c0c:	4083      	lsls	r3, r0
    5c0e:	4699      	mov	r9, r3
    5c10:	0013      	movs	r3, r2
    5c12:	4648      	mov	r0, r9
    5c14:	40eb      	lsrs	r3, r5
    5c16:	4318      	orrs	r0, r3
    5c18:	0003      	movs	r3, r0
    5c1a:	4650      	mov	r0, sl
    5c1c:	4082      	lsls	r2, r0
    5c1e:	1e50      	subs	r0, r2, #1
    5c20:	4182      	sbcs	r2, r0
    5c22:	40e9      	lsrs	r1, r5
    5c24:	431a      	orrs	r2, r3
    5c26:	1aba      	subs	r2, r7, r2
    5c28:	1a61      	subs	r1, r4, r1
    5c2a:	4297      	cmp	r7, r2
    5c2c:	41a4      	sbcs	r4, r4
    5c2e:	0017      	movs	r7, r2
    5c30:	4264      	negs	r4, r4
    5c32:	1b0c      	subs	r4, r1, r4
    5c34:	0223      	lsls	r3, r4, #8
    5c36:	d562      	bpl.n	5cfe <__aeabi_dadd+0x17a>
    5c38:	0264      	lsls	r4, r4, #9
    5c3a:	0a65      	lsrs	r5, r4, #9
    5c3c:	2d00      	cmp	r5, #0
    5c3e:	d100      	bne.n	5c42 <__aeabi_dadd+0xbe>
    5c40:	e0df      	b.n	5e02 <__aeabi_dadd+0x27e>
    5c42:	0028      	movs	r0, r5
    5c44:	f001 fe22 	bl	788c <__clzsi2>
    5c48:	0003      	movs	r3, r0
    5c4a:	3b08      	subs	r3, #8
    5c4c:	2b1f      	cmp	r3, #31
    5c4e:	dd00      	ble.n	5c52 <__aeabi_dadd+0xce>
    5c50:	e0d2      	b.n	5df8 <__aeabi_dadd+0x274>
    5c52:	2220      	movs	r2, #32
    5c54:	003c      	movs	r4, r7
    5c56:	1ad2      	subs	r2, r2, r3
    5c58:	409d      	lsls	r5, r3
    5c5a:	40d4      	lsrs	r4, r2
    5c5c:	409f      	lsls	r7, r3
    5c5e:	4325      	orrs	r5, r4
    5c60:	429e      	cmp	r6, r3
    5c62:	dd00      	ble.n	5c66 <__aeabi_dadd+0xe2>
    5c64:	e0c4      	b.n	5df0 <__aeabi_dadd+0x26c>
    5c66:	1b9e      	subs	r6, r3, r6
    5c68:	1c73      	adds	r3, r6, #1
    5c6a:	2b1f      	cmp	r3, #31
    5c6c:	dd00      	ble.n	5c70 <__aeabi_dadd+0xec>
    5c6e:	e0f1      	b.n	5e54 <__aeabi_dadd+0x2d0>
    5c70:	2220      	movs	r2, #32
    5c72:	0038      	movs	r0, r7
    5c74:	0029      	movs	r1, r5
    5c76:	1ad2      	subs	r2, r2, r3
    5c78:	40d8      	lsrs	r0, r3
    5c7a:	4091      	lsls	r1, r2
    5c7c:	4097      	lsls	r7, r2
    5c7e:	002c      	movs	r4, r5
    5c80:	4301      	orrs	r1, r0
    5c82:	1e78      	subs	r0, r7, #1
    5c84:	4187      	sbcs	r7, r0
    5c86:	40dc      	lsrs	r4, r3
    5c88:	2600      	movs	r6, #0
    5c8a:	430f      	orrs	r7, r1
    5c8c:	077b      	lsls	r3, r7, #29
    5c8e:	d009      	beq.n	5ca4 <__aeabi_dadd+0x120>
    5c90:	230f      	movs	r3, #15
    5c92:	403b      	ands	r3, r7
    5c94:	2b04      	cmp	r3, #4
    5c96:	d005      	beq.n	5ca4 <__aeabi_dadd+0x120>
    5c98:	1d3b      	adds	r3, r7, #4
    5c9a:	42bb      	cmp	r3, r7
    5c9c:	41bf      	sbcs	r7, r7
    5c9e:	427f      	negs	r7, r7
    5ca0:	19e4      	adds	r4, r4, r7
    5ca2:	001f      	movs	r7, r3
    5ca4:	0223      	lsls	r3, r4, #8
    5ca6:	d52c      	bpl.n	5d02 <__aeabi_dadd+0x17e>
    5ca8:	4b96      	ldr	r3, [pc, #600]	; (5f04 <__aeabi_dadd+0x380>)
    5caa:	3601      	adds	r6, #1
    5cac:	429e      	cmp	r6, r3
    5cae:	d100      	bne.n	5cb2 <__aeabi_dadd+0x12e>
    5cb0:	e09a      	b.n	5de8 <__aeabi_dadd+0x264>
    5cb2:	4645      	mov	r5, r8
    5cb4:	4b94      	ldr	r3, [pc, #592]	; (5f08 <__aeabi_dadd+0x384>)
    5cb6:	08ff      	lsrs	r7, r7, #3
    5cb8:	401c      	ands	r4, r3
    5cba:	0760      	lsls	r0, r4, #29
    5cbc:	0576      	lsls	r6, r6, #21
    5cbe:	0264      	lsls	r4, r4, #9
    5cc0:	4307      	orrs	r7, r0
    5cc2:	0b24      	lsrs	r4, r4, #12
    5cc4:	0d76      	lsrs	r6, r6, #21
    5cc6:	2100      	movs	r1, #0
    5cc8:	0324      	lsls	r4, r4, #12
    5cca:	0b23      	lsrs	r3, r4, #12
    5ccc:	0d0c      	lsrs	r4, r1, #20
    5cce:	4a8f      	ldr	r2, [pc, #572]	; (5f0c <__aeabi_dadd+0x388>)
    5cd0:	0524      	lsls	r4, r4, #20
    5cd2:	431c      	orrs	r4, r3
    5cd4:	4014      	ands	r4, r2
    5cd6:	0533      	lsls	r3, r6, #20
    5cd8:	4323      	orrs	r3, r4
    5cda:	005b      	lsls	r3, r3, #1
    5cdc:	07ed      	lsls	r5, r5, #31
    5cde:	085b      	lsrs	r3, r3, #1
    5ce0:	432b      	orrs	r3, r5
    5ce2:	0038      	movs	r0, r7
    5ce4:	0019      	movs	r1, r3
    5ce6:	bc3c      	pop	{r2, r3, r4, r5}
    5ce8:	4690      	mov	r8, r2
    5cea:	4699      	mov	r9, r3
    5cec:	46a2      	mov	sl, r4
    5cee:	46ab      	mov	fp, r5
    5cf0:	bdf8      	pop	{r3, r4, r5, r6, r7, pc}
    5cf2:	4664      	mov	r4, ip
    5cf4:	4304      	orrs	r4, r0
    5cf6:	d100      	bne.n	5cfa <__aeabi_dadd+0x176>
    5cf8:	e211      	b.n	611e <__aeabi_dadd+0x59a>
    5cfa:	0004      	movs	r4, r0
    5cfc:	4667      	mov	r7, ip
    5cfe:	077b      	lsls	r3, r7, #29
    5d00:	d1c6      	bne.n	5c90 <__aeabi_dadd+0x10c>
    5d02:	4645      	mov	r5, r8
    5d04:	0760      	lsls	r0, r4, #29
    5d06:	08ff      	lsrs	r7, r7, #3
    5d08:	4307      	orrs	r7, r0
    5d0a:	08e4      	lsrs	r4, r4, #3
    5d0c:	4b7d      	ldr	r3, [pc, #500]	; (5f04 <__aeabi_dadd+0x380>)
    5d0e:	429e      	cmp	r6, r3
    5d10:	d030      	beq.n	5d74 <__aeabi_dadd+0x1f0>
    5d12:	0324      	lsls	r4, r4, #12
    5d14:	0576      	lsls	r6, r6, #21
    5d16:	0b24      	lsrs	r4, r4, #12
    5d18:	0d76      	lsrs	r6, r6, #21
    5d1a:	e7d4      	b.n	5cc6 <__aeabi_dadd+0x142>
    5d1c:	1a33      	subs	r3, r6, r0
    5d1e:	469a      	mov	sl, r3
    5d20:	2b00      	cmp	r3, #0
    5d22:	dd78      	ble.n	5e16 <__aeabi_dadd+0x292>
    5d24:	2800      	cmp	r0, #0
    5d26:	d031      	beq.n	5d8c <__aeabi_dadd+0x208>
    5d28:	4876      	ldr	r0, [pc, #472]	; (5f04 <__aeabi_dadd+0x380>)
    5d2a:	4286      	cmp	r6, r0
    5d2c:	d0ae      	beq.n	5c8c <__aeabi_dadd+0x108>
    5d2e:	2080      	movs	r0, #128	; 0x80
    5d30:	0400      	lsls	r0, r0, #16
    5d32:	4301      	orrs	r1, r0
    5d34:	4653      	mov	r3, sl
    5d36:	2b38      	cmp	r3, #56	; 0x38
    5d38:	dc00      	bgt.n	5d3c <__aeabi_dadd+0x1b8>
    5d3a:	e0e9      	b.n	5f10 <__aeabi_dadd+0x38c>
    5d3c:	430a      	orrs	r2, r1
    5d3e:	1e51      	subs	r1, r2, #1
    5d40:	418a      	sbcs	r2, r1
    5d42:	2100      	movs	r1, #0
    5d44:	19d2      	adds	r2, r2, r7
    5d46:	42ba      	cmp	r2, r7
    5d48:	41bf      	sbcs	r7, r7
    5d4a:	1909      	adds	r1, r1, r4
    5d4c:	427c      	negs	r4, r7
    5d4e:	0017      	movs	r7, r2
    5d50:	190c      	adds	r4, r1, r4
    5d52:	0223      	lsls	r3, r4, #8
    5d54:	d5d3      	bpl.n	5cfe <__aeabi_dadd+0x17a>
    5d56:	4b6b      	ldr	r3, [pc, #428]	; (5f04 <__aeabi_dadd+0x380>)
    5d58:	3601      	adds	r6, #1
    5d5a:	429e      	cmp	r6, r3
    5d5c:	d100      	bne.n	5d60 <__aeabi_dadd+0x1dc>
    5d5e:	e13a      	b.n	5fd6 <__aeabi_dadd+0x452>
    5d60:	2001      	movs	r0, #1
    5d62:	4b69      	ldr	r3, [pc, #420]	; (5f08 <__aeabi_dadd+0x384>)
    5d64:	401c      	ands	r4, r3
    5d66:	087b      	lsrs	r3, r7, #1
    5d68:	4007      	ands	r7, r0
    5d6a:	431f      	orrs	r7, r3
    5d6c:	07e0      	lsls	r0, r4, #31
    5d6e:	4307      	orrs	r7, r0
    5d70:	0864      	lsrs	r4, r4, #1
    5d72:	e78b      	b.n	5c8c <__aeabi_dadd+0x108>
    5d74:	0023      	movs	r3, r4
    5d76:	433b      	orrs	r3, r7
    5d78:	d100      	bne.n	5d7c <__aeabi_dadd+0x1f8>
    5d7a:	e1cb      	b.n	6114 <__aeabi_dadd+0x590>
    5d7c:	2280      	movs	r2, #128	; 0x80
    5d7e:	0312      	lsls	r2, r2, #12
    5d80:	4314      	orrs	r4, r2
    5d82:	0324      	lsls	r4, r4, #12
    5d84:	0b24      	lsrs	r4, r4, #12
    5d86:	e79e      	b.n	5cc6 <__aeabi_dadd+0x142>
    5d88:	002e      	movs	r6, r5
    5d8a:	e77f      	b.n	5c8c <__aeabi_dadd+0x108>
    5d8c:	0008      	movs	r0, r1
    5d8e:	4310      	orrs	r0, r2
    5d90:	d100      	bne.n	5d94 <__aeabi_dadd+0x210>
    5d92:	e0b4      	b.n	5efe <__aeabi_dadd+0x37a>
    5d94:	1e58      	subs	r0, r3, #1
    5d96:	2800      	cmp	r0, #0
    5d98:	d000      	beq.n	5d9c <__aeabi_dadd+0x218>
    5d9a:	e0de      	b.n	5f5a <__aeabi_dadd+0x3d6>
    5d9c:	18ba      	adds	r2, r7, r2
    5d9e:	42ba      	cmp	r2, r7
    5da0:	419b      	sbcs	r3, r3
    5da2:	1864      	adds	r4, r4, r1
    5da4:	425b      	negs	r3, r3
    5da6:	18e4      	adds	r4, r4, r3
    5da8:	0017      	movs	r7, r2
    5daa:	2601      	movs	r6, #1
    5dac:	0223      	lsls	r3, r4, #8
    5dae:	d5a6      	bpl.n	5cfe <__aeabi_dadd+0x17a>
    5db0:	2602      	movs	r6, #2
    5db2:	e7d5      	b.n	5d60 <__aeabi_dadd+0x1dc>
    5db4:	2d00      	cmp	r5, #0
    5db6:	d16e      	bne.n	5e96 <__aeabi_dadd+0x312>
    5db8:	1c70      	adds	r0, r6, #1
    5dba:	0540      	lsls	r0, r0, #21
    5dbc:	0d40      	lsrs	r0, r0, #21
    5dbe:	2801      	cmp	r0, #1
    5dc0:	dc00      	bgt.n	5dc4 <__aeabi_dadd+0x240>
    5dc2:	e0f9      	b.n	5fb8 <__aeabi_dadd+0x434>
    5dc4:	1ab8      	subs	r0, r7, r2
    5dc6:	4684      	mov	ip, r0
    5dc8:	4287      	cmp	r7, r0
    5dca:	4180      	sbcs	r0, r0
    5dcc:	1ae5      	subs	r5, r4, r3
    5dce:	4240      	negs	r0, r0
    5dd0:	1a2d      	subs	r5, r5, r0
    5dd2:	0228      	lsls	r0, r5, #8
    5dd4:	d400      	bmi.n	5dd8 <__aeabi_dadd+0x254>
    5dd6:	e089      	b.n	5eec <__aeabi_dadd+0x368>
    5dd8:	1bd7      	subs	r7, r2, r7
    5dda:	42ba      	cmp	r2, r7
    5ddc:	4192      	sbcs	r2, r2
    5dde:	1b1c      	subs	r4, r3, r4
    5de0:	4252      	negs	r2, r2
    5de2:	1aa5      	subs	r5, r4, r2
    5de4:	46d8      	mov	r8, fp
    5de6:	e729      	b.n	5c3c <__aeabi_dadd+0xb8>
    5de8:	4645      	mov	r5, r8
    5dea:	2400      	movs	r4, #0
    5dec:	2700      	movs	r7, #0
    5dee:	e76a      	b.n	5cc6 <__aeabi_dadd+0x142>
    5df0:	4c45      	ldr	r4, [pc, #276]	; (5f08 <__aeabi_dadd+0x384>)
    5df2:	1af6      	subs	r6, r6, r3
    5df4:	402c      	ands	r4, r5
    5df6:	e749      	b.n	5c8c <__aeabi_dadd+0x108>
    5df8:	003d      	movs	r5, r7
    5dfa:	3828      	subs	r0, #40	; 0x28
    5dfc:	4085      	lsls	r5, r0
    5dfe:	2700      	movs	r7, #0
    5e00:	e72e      	b.n	5c60 <__aeabi_dadd+0xdc>
    5e02:	0038      	movs	r0, r7
    5e04:	f001 fd42 	bl	788c <__clzsi2>
    5e08:	3020      	adds	r0, #32
    5e0a:	e71d      	b.n	5c48 <__aeabi_dadd+0xc4>
    5e0c:	430a      	orrs	r2, r1
    5e0e:	1e51      	subs	r1, r2, #1
    5e10:	418a      	sbcs	r2, r1
    5e12:	2100      	movs	r1, #0
    5e14:	e707      	b.n	5c26 <__aeabi_dadd+0xa2>
    5e16:	2b00      	cmp	r3, #0
    5e18:	d000      	beq.n	5e1c <__aeabi_dadd+0x298>
    5e1a:	e0f3      	b.n	6004 <__aeabi_dadd+0x480>
    5e1c:	1c70      	adds	r0, r6, #1
    5e1e:	0543      	lsls	r3, r0, #21
    5e20:	0d5b      	lsrs	r3, r3, #21
    5e22:	2b01      	cmp	r3, #1
    5e24:	dc00      	bgt.n	5e28 <__aeabi_dadd+0x2a4>
    5e26:	e0ad      	b.n	5f84 <__aeabi_dadd+0x400>
    5e28:	4b36      	ldr	r3, [pc, #216]	; (5f04 <__aeabi_dadd+0x380>)
    5e2a:	4298      	cmp	r0, r3
    5e2c:	d100      	bne.n	5e30 <__aeabi_dadd+0x2ac>
    5e2e:	e0d1      	b.n	5fd4 <__aeabi_dadd+0x450>
    5e30:	18ba      	adds	r2, r7, r2
    5e32:	42ba      	cmp	r2, r7
    5e34:	41bf      	sbcs	r7, r7
    5e36:	1864      	adds	r4, r4, r1
    5e38:	427f      	negs	r7, r7
    5e3a:	19e4      	adds	r4, r4, r7
    5e3c:	07e7      	lsls	r7, r4, #31
    5e3e:	0852      	lsrs	r2, r2, #1
    5e40:	4317      	orrs	r7, r2
    5e42:	0864      	lsrs	r4, r4, #1
    5e44:	0006      	movs	r6, r0
    5e46:	e721      	b.n	5c8c <__aeabi_dadd+0x108>
    5e48:	482e      	ldr	r0, [pc, #184]	; (5f04 <__aeabi_dadd+0x380>)
    5e4a:	4285      	cmp	r5, r0
    5e4c:	d100      	bne.n	5e50 <__aeabi_dadd+0x2cc>
    5e4e:	e093      	b.n	5f78 <__aeabi_dadd+0x3f4>
    5e50:	001d      	movs	r5, r3
    5e52:	e6d0      	b.n	5bf6 <__aeabi_dadd+0x72>
    5e54:	0029      	movs	r1, r5
    5e56:	3e1f      	subs	r6, #31
    5e58:	40f1      	lsrs	r1, r6
    5e5a:	2b20      	cmp	r3, #32
    5e5c:	d100      	bne.n	5e60 <__aeabi_dadd+0x2dc>
    5e5e:	e08d      	b.n	5f7c <__aeabi_dadd+0x3f8>
    5e60:	2240      	movs	r2, #64	; 0x40
    5e62:	1ad3      	subs	r3, r2, r3
    5e64:	409d      	lsls	r5, r3
    5e66:	432f      	orrs	r7, r5
    5e68:	1e7d      	subs	r5, r7, #1
    5e6a:	41af      	sbcs	r7, r5
    5e6c:	2400      	movs	r4, #0
    5e6e:	430f      	orrs	r7, r1
    5e70:	2600      	movs	r6, #0
    5e72:	e744      	b.n	5cfe <__aeabi_dadd+0x17a>
    5e74:	002b      	movs	r3, r5
    5e76:	0008      	movs	r0, r1
    5e78:	3b20      	subs	r3, #32
    5e7a:	40d8      	lsrs	r0, r3
    5e7c:	0003      	movs	r3, r0
    5e7e:	2d20      	cmp	r5, #32
    5e80:	d100      	bne.n	5e84 <__aeabi_dadd+0x300>
    5e82:	e07d      	b.n	5f80 <__aeabi_dadd+0x3fc>
    5e84:	2040      	movs	r0, #64	; 0x40
    5e86:	1b45      	subs	r5, r0, r5
    5e88:	40a9      	lsls	r1, r5
    5e8a:	430a      	orrs	r2, r1
    5e8c:	1e51      	subs	r1, r2, #1
    5e8e:	418a      	sbcs	r2, r1
    5e90:	2100      	movs	r1, #0
    5e92:	431a      	orrs	r2, r3
    5e94:	e6c7      	b.n	5c26 <__aeabi_dadd+0xa2>
    5e96:	2e00      	cmp	r6, #0
    5e98:	d050      	beq.n	5f3c <__aeabi_dadd+0x3b8>
    5e9a:	4e1a      	ldr	r6, [pc, #104]	; (5f04 <__aeabi_dadd+0x380>)
    5e9c:	42b0      	cmp	r0, r6
    5e9e:	d057      	beq.n	5f50 <__aeabi_dadd+0x3cc>
    5ea0:	2680      	movs	r6, #128	; 0x80
    5ea2:	426b      	negs	r3, r5
    5ea4:	4699      	mov	r9, r3
    5ea6:	0436      	lsls	r6, r6, #16
    5ea8:	4334      	orrs	r4, r6
    5eaa:	464b      	mov	r3, r9
    5eac:	2b38      	cmp	r3, #56	; 0x38
    5eae:	dd00      	ble.n	5eb2 <__aeabi_dadd+0x32e>
    5eb0:	e0d6      	b.n	6060 <__aeabi_dadd+0x4dc>
    5eb2:	2b1f      	cmp	r3, #31
    5eb4:	dd00      	ble.n	5eb8 <__aeabi_dadd+0x334>
    5eb6:	e135      	b.n	6124 <__aeabi_dadd+0x5a0>
    5eb8:	2620      	movs	r6, #32
    5eba:	1af5      	subs	r5, r6, r3
    5ebc:	0026      	movs	r6, r4
    5ebe:	40ae      	lsls	r6, r5
    5ec0:	46b2      	mov	sl, r6
    5ec2:	003e      	movs	r6, r7
    5ec4:	40de      	lsrs	r6, r3
    5ec6:	46ac      	mov	ip, r5
    5ec8:	0035      	movs	r5, r6
    5eca:	4656      	mov	r6, sl
    5ecc:	432e      	orrs	r6, r5
    5ece:	4665      	mov	r5, ip
    5ed0:	40af      	lsls	r7, r5
    5ed2:	1e7d      	subs	r5, r7, #1
    5ed4:	41af      	sbcs	r7, r5
    5ed6:	40dc      	lsrs	r4, r3
    5ed8:	4337      	orrs	r7, r6
    5eda:	1bd7      	subs	r7, r2, r7
    5edc:	42ba      	cmp	r2, r7
    5ede:	4192      	sbcs	r2, r2
    5ee0:	1b0c      	subs	r4, r1, r4
    5ee2:	4252      	negs	r2, r2
    5ee4:	1aa4      	subs	r4, r4, r2
    5ee6:	0006      	movs	r6, r0
    5ee8:	46d8      	mov	r8, fp
    5eea:	e6a3      	b.n	5c34 <__aeabi_dadd+0xb0>
    5eec:	4664      	mov	r4, ip
    5eee:	4667      	mov	r7, ip
    5ef0:	432c      	orrs	r4, r5
    5ef2:	d000      	beq.n	5ef6 <__aeabi_dadd+0x372>
    5ef4:	e6a2      	b.n	5c3c <__aeabi_dadd+0xb8>
    5ef6:	2500      	movs	r5, #0
    5ef8:	2600      	movs	r6, #0
    5efa:	2700      	movs	r7, #0
    5efc:	e706      	b.n	5d0c <__aeabi_dadd+0x188>
    5efe:	001e      	movs	r6, r3
    5f00:	e6c4      	b.n	5c8c <__aeabi_dadd+0x108>
    5f02:	46c0      	nop			; (mov r8, r8)
    5f04:	000007ff 	.word	0x000007ff
    5f08:	ff7fffff 	.word	0xff7fffff
    5f0c:	800fffff 	.word	0x800fffff
    5f10:	2b1f      	cmp	r3, #31
    5f12:	dc63      	bgt.n	5fdc <__aeabi_dadd+0x458>
    5f14:	2020      	movs	r0, #32
    5f16:	1ac3      	subs	r3, r0, r3
    5f18:	0008      	movs	r0, r1
    5f1a:	4098      	lsls	r0, r3
    5f1c:	469c      	mov	ip, r3
    5f1e:	4683      	mov	fp, r0
    5f20:	4653      	mov	r3, sl
    5f22:	0010      	movs	r0, r2
    5f24:	40d8      	lsrs	r0, r3
    5f26:	0003      	movs	r3, r0
    5f28:	4658      	mov	r0, fp
    5f2a:	4318      	orrs	r0, r3
    5f2c:	4663      	mov	r3, ip
    5f2e:	409a      	lsls	r2, r3
    5f30:	1e53      	subs	r3, r2, #1
    5f32:	419a      	sbcs	r2, r3
    5f34:	4653      	mov	r3, sl
    5f36:	4302      	orrs	r2, r0
    5f38:	40d9      	lsrs	r1, r3
    5f3a:	e703      	b.n	5d44 <__aeabi_dadd+0x1c0>
    5f3c:	0026      	movs	r6, r4
    5f3e:	433e      	orrs	r6, r7
    5f40:	d006      	beq.n	5f50 <__aeabi_dadd+0x3cc>
    5f42:	43eb      	mvns	r3, r5
    5f44:	4699      	mov	r9, r3
    5f46:	2b00      	cmp	r3, #0
    5f48:	d0c7      	beq.n	5eda <__aeabi_dadd+0x356>
    5f4a:	4e94      	ldr	r6, [pc, #592]	; (619c <__aeabi_dadd+0x618>)
    5f4c:	42b0      	cmp	r0, r6
    5f4e:	d1ac      	bne.n	5eaa <__aeabi_dadd+0x326>
    5f50:	000c      	movs	r4, r1
    5f52:	0017      	movs	r7, r2
    5f54:	0006      	movs	r6, r0
    5f56:	46d8      	mov	r8, fp
    5f58:	e698      	b.n	5c8c <__aeabi_dadd+0x108>
    5f5a:	4b90      	ldr	r3, [pc, #576]	; (619c <__aeabi_dadd+0x618>)
    5f5c:	459a      	cmp	sl, r3
    5f5e:	d00b      	beq.n	5f78 <__aeabi_dadd+0x3f4>
    5f60:	4682      	mov	sl, r0
    5f62:	e6e7      	b.n	5d34 <__aeabi_dadd+0x1b0>
    5f64:	2800      	cmp	r0, #0
    5f66:	d000      	beq.n	5f6a <__aeabi_dadd+0x3e6>
    5f68:	e09e      	b.n	60a8 <__aeabi_dadd+0x524>
    5f6a:	0018      	movs	r0, r3
    5f6c:	4310      	orrs	r0, r2
    5f6e:	d100      	bne.n	5f72 <__aeabi_dadd+0x3ee>
    5f70:	e0e9      	b.n	6146 <__aeabi_dadd+0x5c2>
    5f72:	001c      	movs	r4, r3
    5f74:	0017      	movs	r7, r2
    5f76:	46d8      	mov	r8, fp
    5f78:	4e88      	ldr	r6, [pc, #544]	; (619c <__aeabi_dadd+0x618>)
    5f7a:	e687      	b.n	5c8c <__aeabi_dadd+0x108>
    5f7c:	2500      	movs	r5, #0
    5f7e:	e772      	b.n	5e66 <__aeabi_dadd+0x2e2>
    5f80:	2100      	movs	r1, #0
    5f82:	e782      	b.n	5e8a <__aeabi_dadd+0x306>
    5f84:	0023      	movs	r3, r4
    5f86:	433b      	orrs	r3, r7
    5f88:	2e00      	cmp	r6, #0
    5f8a:	d000      	beq.n	5f8e <__aeabi_dadd+0x40a>
    5f8c:	e0ab      	b.n	60e6 <__aeabi_dadd+0x562>
    5f8e:	2b00      	cmp	r3, #0
    5f90:	d100      	bne.n	5f94 <__aeabi_dadd+0x410>
    5f92:	e0e7      	b.n	6164 <__aeabi_dadd+0x5e0>
    5f94:	000b      	movs	r3, r1
    5f96:	4313      	orrs	r3, r2
    5f98:	d100      	bne.n	5f9c <__aeabi_dadd+0x418>
    5f9a:	e677      	b.n	5c8c <__aeabi_dadd+0x108>
    5f9c:	18ba      	adds	r2, r7, r2
    5f9e:	42ba      	cmp	r2, r7
    5fa0:	41bf      	sbcs	r7, r7
    5fa2:	1864      	adds	r4, r4, r1
    5fa4:	427f      	negs	r7, r7
    5fa6:	19e4      	adds	r4, r4, r7
    5fa8:	0223      	lsls	r3, r4, #8
    5faa:	d400      	bmi.n	5fae <__aeabi_dadd+0x42a>
    5fac:	e0f2      	b.n	6194 <__aeabi_dadd+0x610>
    5fae:	4b7c      	ldr	r3, [pc, #496]	; (61a0 <__aeabi_dadd+0x61c>)
    5fb0:	0017      	movs	r7, r2
    5fb2:	401c      	ands	r4, r3
    5fb4:	0006      	movs	r6, r0
    5fb6:	e669      	b.n	5c8c <__aeabi_dadd+0x108>
    5fb8:	0020      	movs	r0, r4
    5fba:	4338      	orrs	r0, r7
    5fbc:	2e00      	cmp	r6, #0
    5fbe:	d1d1      	bne.n	5f64 <__aeabi_dadd+0x3e0>
    5fc0:	2800      	cmp	r0, #0
    5fc2:	d15b      	bne.n	607c <__aeabi_dadd+0x4f8>
    5fc4:	001c      	movs	r4, r3
    5fc6:	4314      	orrs	r4, r2
    5fc8:	d100      	bne.n	5fcc <__aeabi_dadd+0x448>
    5fca:	e0a8      	b.n	611e <__aeabi_dadd+0x59a>
    5fcc:	001c      	movs	r4, r3
    5fce:	0017      	movs	r7, r2
    5fd0:	46d8      	mov	r8, fp
    5fd2:	e65b      	b.n	5c8c <__aeabi_dadd+0x108>
    5fd4:	0006      	movs	r6, r0
    5fd6:	2400      	movs	r4, #0
    5fd8:	2700      	movs	r7, #0
    5fda:	e697      	b.n	5d0c <__aeabi_dadd+0x188>
    5fdc:	4650      	mov	r0, sl
    5fde:	000b      	movs	r3, r1
    5fe0:	3820      	subs	r0, #32
    5fe2:	40c3      	lsrs	r3, r0
    5fe4:	4699      	mov	r9, r3
    5fe6:	4653      	mov	r3, sl
    5fe8:	2b20      	cmp	r3, #32
    5fea:	d100      	bne.n	5fee <__aeabi_dadd+0x46a>
    5fec:	e095      	b.n	611a <__aeabi_dadd+0x596>
    5fee:	2340      	movs	r3, #64	; 0x40
    5ff0:	4650      	mov	r0, sl
    5ff2:	1a1b      	subs	r3, r3, r0
    5ff4:	4099      	lsls	r1, r3
    5ff6:	430a      	orrs	r2, r1
    5ff8:	1e51      	subs	r1, r2, #1
    5ffa:	418a      	sbcs	r2, r1
    5ffc:	464b      	mov	r3, r9
    5ffe:	2100      	movs	r1, #0
    6000:	431a      	orrs	r2, r3
    6002:	e69f      	b.n	5d44 <__aeabi_dadd+0x1c0>
    6004:	2e00      	cmp	r6, #0
    6006:	d130      	bne.n	606a <__aeabi_dadd+0x4e6>
    6008:	0026      	movs	r6, r4
    600a:	433e      	orrs	r6, r7
    600c:	d067      	beq.n	60de <__aeabi_dadd+0x55a>
    600e:	43db      	mvns	r3, r3
    6010:	469a      	mov	sl, r3
    6012:	2b00      	cmp	r3, #0
    6014:	d01c      	beq.n	6050 <__aeabi_dadd+0x4cc>
    6016:	4e61      	ldr	r6, [pc, #388]	; (619c <__aeabi_dadd+0x618>)
    6018:	42b0      	cmp	r0, r6
    601a:	d060      	beq.n	60de <__aeabi_dadd+0x55a>
    601c:	4653      	mov	r3, sl
    601e:	2b38      	cmp	r3, #56	; 0x38
    6020:	dd00      	ble.n	6024 <__aeabi_dadd+0x4a0>
    6022:	e096      	b.n	6152 <__aeabi_dadd+0x5ce>
    6024:	2b1f      	cmp	r3, #31
    6026:	dd00      	ble.n	602a <__aeabi_dadd+0x4a6>
    6028:	e09f      	b.n	616a <__aeabi_dadd+0x5e6>
    602a:	2620      	movs	r6, #32
    602c:	1af3      	subs	r3, r6, r3
    602e:	0026      	movs	r6, r4
    6030:	409e      	lsls	r6, r3
    6032:	469c      	mov	ip, r3
    6034:	46b3      	mov	fp, r6
    6036:	4653      	mov	r3, sl
    6038:	003e      	movs	r6, r7
    603a:	40de      	lsrs	r6, r3
    603c:	0033      	movs	r3, r6
    603e:	465e      	mov	r6, fp
    6040:	431e      	orrs	r6, r3
    6042:	4663      	mov	r3, ip
    6044:	409f      	lsls	r7, r3
    6046:	1e7b      	subs	r3, r7, #1
    6048:	419f      	sbcs	r7, r3
    604a:	4653      	mov	r3, sl
    604c:	40dc      	lsrs	r4, r3
    604e:	4337      	orrs	r7, r6
    6050:	18bf      	adds	r7, r7, r2
    6052:	4297      	cmp	r7, r2
    6054:	4192      	sbcs	r2, r2
    6056:	1864      	adds	r4, r4, r1
    6058:	4252      	negs	r2, r2
    605a:	18a4      	adds	r4, r4, r2
    605c:	0006      	movs	r6, r0
    605e:	e678      	b.n	5d52 <__aeabi_dadd+0x1ce>
    6060:	4327      	orrs	r7, r4
    6062:	1e7c      	subs	r4, r7, #1
    6064:	41a7      	sbcs	r7, r4
    6066:	2400      	movs	r4, #0
    6068:	e737      	b.n	5eda <__aeabi_dadd+0x356>
    606a:	4e4c      	ldr	r6, [pc, #304]	; (619c <__aeabi_dadd+0x618>)
    606c:	42b0      	cmp	r0, r6
    606e:	d036      	beq.n	60de <__aeabi_dadd+0x55a>
    6070:	2680      	movs	r6, #128	; 0x80
    6072:	425b      	negs	r3, r3
    6074:	0436      	lsls	r6, r6, #16
    6076:	469a      	mov	sl, r3
    6078:	4334      	orrs	r4, r6
    607a:	e7cf      	b.n	601c <__aeabi_dadd+0x498>
    607c:	0018      	movs	r0, r3
    607e:	4310      	orrs	r0, r2
    6080:	d100      	bne.n	6084 <__aeabi_dadd+0x500>
    6082:	e603      	b.n	5c8c <__aeabi_dadd+0x108>
    6084:	1ab8      	subs	r0, r7, r2
    6086:	4684      	mov	ip, r0
    6088:	4567      	cmp	r7, ip
    608a:	41ad      	sbcs	r5, r5
    608c:	1ae0      	subs	r0, r4, r3
    608e:	426d      	negs	r5, r5
    6090:	1b40      	subs	r0, r0, r5
    6092:	0205      	lsls	r5, r0, #8
    6094:	d400      	bmi.n	6098 <__aeabi_dadd+0x514>
    6096:	e62c      	b.n	5cf2 <__aeabi_dadd+0x16e>
    6098:	1bd7      	subs	r7, r2, r7
    609a:	42ba      	cmp	r2, r7
    609c:	4192      	sbcs	r2, r2
    609e:	1b1c      	subs	r4, r3, r4
    60a0:	4252      	negs	r2, r2
    60a2:	1aa4      	subs	r4, r4, r2
    60a4:	46d8      	mov	r8, fp
    60a6:	e5f1      	b.n	5c8c <__aeabi_dadd+0x108>
    60a8:	0018      	movs	r0, r3
    60aa:	4310      	orrs	r0, r2
    60ac:	d100      	bne.n	60b0 <__aeabi_dadd+0x52c>
    60ae:	e763      	b.n	5f78 <__aeabi_dadd+0x3f4>
    60b0:	08f8      	lsrs	r0, r7, #3
    60b2:	0767      	lsls	r7, r4, #29
    60b4:	4307      	orrs	r7, r0
    60b6:	2080      	movs	r0, #128	; 0x80
    60b8:	08e4      	lsrs	r4, r4, #3
    60ba:	0300      	lsls	r0, r0, #12
    60bc:	4204      	tst	r4, r0
    60be:	d008      	beq.n	60d2 <__aeabi_dadd+0x54e>
    60c0:	08dd      	lsrs	r5, r3, #3
    60c2:	4205      	tst	r5, r0
    60c4:	d105      	bne.n	60d2 <__aeabi_dadd+0x54e>
    60c6:	08d2      	lsrs	r2, r2, #3
    60c8:	0759      	lsls	r1, r3, #29
    60ca:	4311      	orrs	r1, r2
    60cc:	000f      	movs	r7, r1
    60ce:	002c      	movs	r4, r5
    60d0:	46d8      	mov	r8, fp
    60d2:	0f7b      	lsrs	r3, r7, #29
    60d4:	00e4      	lsls	r4, r4, #3
    60d6:	431c      	orrs	r4, r3
    60d8:	00ff      	lsls	r7, r7, #3
    60da:	4e30      	ldr	r6, [pc, #192]	; (619c <__aeabi_dadd+0x618>)
    60dc:	e5d6      	b.n	5c8c <__aeabi_dadd+0x108>
    60de:	000c      	movs	r4, r1
    60e0:	0017      	movs	r7, r2
    60e2:	0006      	movs	r6, r0
    60e4:	e5d2      	b.n	5c8c <__aeabi_dadd+0x108>
    60e6:	2b00      	cmp	r3, #0
    60e8:	d038      	beq.n	615c <__aeabi_dadd+0x5d8>
    60ea:	000b      	movs	r3, r1
    60ec:	4313      	orrs	r3, r2
    60ee:	d100      	bne.n	60f2 <__aeabi_dadd+0x56e>
    60f0:	e742      	b.n	5f78 <__aeabi_dadd+0x3f4>
    60f2:	08f8      	lsrs	r0, r7, #3
    60f4:	0767      	lsls	r7, r4, #29
    60f6:	4307      	orrs	r7, r0
    60f8:	2080      	movs	r0, #128	; 0x80
    60fa:	08e4      	lsrs	r4, r4, #3
    60fc:	0300      	lsls	r0, r0, #12
    60fe:	4204      	tst	r4, r0
    6100:	d0e7      	beq.n	60d2 <__aeabi_dadd+0x54e>
    6102:	08cb      	lsrs	r3, r1, #3
    6104:	4203      	tst	r3, r0
    6106:	d1e4      	bne.n	60d2 <__aeabi_dadd+0x54e>
    6108:	08d2      	lsrs	r2, r2, #3
    610a:	0749      	lsls	r1, r1, #29
    610c:	4311      	orrs	r1, r2
    610e:	000f      	movs	r7, r1
    6110:	001c      	movs	r4, r3
    6112:	e7de      	b.n	60d2 <__aeabi_dadd+0x54e>
    6114:	2700      	movs	r7, #0
    6116:	2400      	movs	r4, #0
    6118:	e5d5      	b.n	5cc6 <__aeabi_dadd+0x142>
    611a:	2100      	movs	r1, #0
    611c:	e76b      	b.n	5ff6 <__aeabi_dadd+0x472>
    611e:	2500      	movs	r5, #0
    6120:	2700      	movs	r7, #0
    6122:	e5f3      	b.n	5d0c <__aeabi_dadd+0x188>
    6124:	464e      	mov	r6, r9
    6126:	0025      	movs	r5, r4
    6128:	3e20      	subs	r6, #32
    612a:	40f5      	lsrs	r5, r6
    612c:	464b      	mov	r3, r9
    612e:	002e      	movs	r6, r5
    6130:	2b20      	cmp	r3, #32
    6132:	d02d      	beq.n	6190 <__aeabi_dadd+0x60c>
    6134:	2540      	movs	r5, #64	; 0x40
    6136:	1aed      	subs	r5, r5, r3
    6138:	40ac      	lsls	r4, r5
    613a:	4327      	orrs	r7, r4
    613c:	1e7c      	subs	r4, r7, #1
    613e:	41a7      	sbcs	r7, r4
    6140:	2400      	movs	r4, #0
    6142:	4337      	orrs	r7, r6
    6144:	e6c9      	b.n	5eda <__aeabi_dadd+0x356>
    6146:	2480      	movs	r4, #128	; 0x80
    6148:	2500      	movs	r5, #0
    614a:	0324      	lsls	r4, r4, #12
    614c:	4e13      	ldr	r6, [pc, #76]	; (619c <__aeabi_dadd+0x618>)
    614e:	2700      	movs	r7, #0
    6150:	e5dc      	b.n	5d0c <__aeabi_dadd+0x188>
    6152:	4327      	orrs	r7, r4
    6154:	1e7c      	subs	r4, r7, #1
    6156:	41a7      	sbcs	r7, r4
    6158:	2400      	movs	r4, #0
    615a:	e779      	b.n	6050 <__aeabi_dadd+0x4cc>
    615c:	000c      	movs	r4, r1
    615e:	0017      	movs	r7, r2
    6160:	4e0e      	ldr	r6, [pc, #56]	; (619c <__aeabi_dadd+0x618>)
    6162:	e593      	b.n	5c8c <__aeabi_dadd+0x108>
    6164:	000c      	movs	r4, r1
    6166:	0017      	movs	r7, r2
    6168:	e590      	b.n	5c8c <__aeabi_dadd+0x108>
    616a:	4656      	mov	r6, sl
    616c:	0023      	movs	r3, r4
    616e:	3e20      	subs	r6, #32
    6170:	40f3      	lsrs	r3, r6
    6172:	4699      	mov	r9, r3
    6174:	4653      	mov	r3, sl
    6176:	2b20      	cmp	r3, #32
    6178:	d00e      	beq.n	6198 <__aeabi_dadd+0x614>
    617a:	2340      	movs	r3, #64	; 0x40
    617c:	4656      	mov	r6, sl
    617e:	1b9b      	subs	r3, r3, r6
    6180:	409c      	lsls	r4, r3
    6182:	4327      	orrs	r7, r4
    6184:	1e7c      	subs	r4, r7, #1
    6186:	41a7      	sbcs	r7, r4
    6188:	464b      	mov	r3, r9
    618a:	2400      	movs	r4, #0
    618c:	431f      	orrs	r7, r3
    618e:	e75f      	b.n	6050 <__aeabi_dadd+0x4cc>
    6190:	2400      	movs	r4, #0
    6192:	e7d2      	b.n	613a <__aeabi_dadd+0x5b6>
    6194:	0017      	movs	r7, r2
    6196:	e5b2      	b.n	5cfe <__aeabi_dadd+0x17a>
    6198:	2400      	movs	r4, #0
    619a:	e7f2      	b.n	6182 <__aeabi_dadd+0x5fe>
    619c:	000007ff 	.word	0x000007ff
    61a0:	ff7fffff 	.word	0xff7fffff

000061a4 <__aeabi_ddiv>:
    61a4:	b5f0      	push	{r4, r5, r6, r7, lr}
    61a6:	4657      	mov	r7, sl
    61a8:	4645      	mov	r5, r8
    61aa:	46de      	mov	lr, fp
    61ac:	464e      	mov	r6, r9
    61ae:	b5e0      	push	{r5, r6, r7, lr}
    61b0:	004c      	lsls	r4, r1, #1
    61b2:	030e      	lsls	r6, r1, #12
    61b4:	b087      	sub	sp, #28
    61b6:	4683      	mov	fp, r0
    61b8:	4692      	mov	sl, r2
    61ba:	001d      	movs	r5, r3
    61bc:	4680      	mov	r8, r0
    61be:	0b36      	lsrs	r6, r6, #12
    61c0:	0d64      	lsrs	r4, r4, #21
    61c2:	0fcf      	lsrs	r7, r1, #31
    61c4:	2c00      	cmp	r4, #0
    61c6:	d04f      	beq.n	6268 <__aeabi_ddiv+0xc4>
    61c8:	4b6f      	ldr	r3, [pc, #444]	; (6388 <__aeabi_ddiv+0x1e4>)
    61ca:	429c      	cmp	r4, r3
    61cc:	d035      	beq.n	623a <__aeabi_ddiv+0x96>
    61ce:	2380      	movs	r3, #128	; 0x80
    61d0:	0f42      	lsrs	r2, r0, #29
    61d2:	041b      	lsls	r3, r3, #16
    61d4:	00f6      	lsls	r6, r6, #3
    61d6:	4313      	orrs	r3, r2
    61d8:	4333      	orrs	r3, r6
    61da:	4699      	mov	r9, r3
    61dc:	00c3      	lsls	r3, r0, #3
    61de:	4698      	mov	r8, r3
    61e0:	4b6a      	ldr	r3, [pc, #424]	; (638c <__aeabi_ddiv+0x1e8>)
    61e2:	2600      	movs	r6, #0
    61e4:	469c      	mov	ip, r3
    61e6:	2300      	movs	r3, #0
    61e8:	4464      	add	r4, ip
    61ea:	9303      	str	r3, [sp, #12]
    61ec:	032b      	lsls	r3, r5, #12
    61ee:	0b1b      	lsrs	r3, r3, #12
    61f0:	469b      	mov	fp, r3
    61f2:	006b      	lsls	r3, r5, #1
    61f4:	0fed      	lsrs	r5, r5, #31
    61f6:	4650      	mov	r0, sl
    61f8:	0d5b      	lsrs	r3, r3, #21
    61fa:	9501      	str	r5, [sp, #4]
    61fc:	d05e      	beq.n	62bc <__aeabi_ddiv+0x118>
    61fe:	4a62      	ldr	r2, [pc, #392]	; (6388 <__aeabi_ddiv+0x1e4>)
    6200:	4293      	cmp	r3, r2
    6202:	d053      	beq.n	62ac <__aeabi_ddiv+0x108>
    6204:	465a      	mov	r2, fp
    6206:	00d1      	lsls	r1, r2, #3
    6208:	2280      	movs	r2, #128	; 0x80
    620a:	0f40      	lsrs	r0, r0, #29
    620c:	0412      	lsls	r2, r2, #16
    620e:	4302      	orrs	r2, r0
    6210:	430a      	orrs	r2, r1
    6212:	4693      	mov	fp, r2
    6214:	4652      	mov	r2, sl
    6216:	00d1      	lsls	r1, r2, #3
    6218:	4a5c      	ldr	r2, [pc, #368]	; (638c <__aeabi_ddiv+0x1e8>)
    621a:	4694      	mov	ip, r2
    621c:	2200      	movs	r2, #0
    621e:	4463      	add	r3, ip
    6220:	0038      	movs	r0, r7
    6222:	4068      	eors	r0, r5
    6224:	4684      	mov	ip, r0
    6226:	9002      	str	r0, [sp, #8]
    6228:	1ae4      	subs	r4, r4, r3
    622a:	4316      	orrs	r6, r2
    622c:	2e0f      	cmp	r6, #15
    622e:	d900      	bls.n	6232 <__aeabi_ddiv+0x8e>
    6230:	e0b4      	b.n	639c <__aeabi_ddiv+0x1f8>
    6232:	4b57      	ldr	r3, [pc, #348]	; (6390 <__aeabi_ddiv+0x1ec>)
    6234:	00b6      	lsls	r6, r6, #2
    6236:	599b      	ldr	r3, [r3, r6]
    6238:	469f      	mov	pc, r3
    623a:	0003      	movs	r3, r0
    623c:	4333      	orrs	r3, r6
    623e:	4699      	mov	r9, r3
    6240:	d16c      	bne.n	631c <__aeabi_ddiv+0x178>
    6242:	2300      	movs	r3, #0
    6244:	4698      	mov	r8, r3
    6246:	3302      	adds	r3, #2
    6248:	2608      	movs	r6, #8
    624a:	9303      	str	r3, [sp, #12]
    624c:	e7ce      	b.n	61ec <__aeabi_ddiv+0x48>
    624e:	46cb      	mov	fp, r9
    6250:	4641      	mov	r1, r8
    6252:	9a03      	ldr	r2, [sp, #12]
    6254:	9701      	str	r7, [sp, #4]
    6256:	2a02      	cmp	r2, #2
    6258:	d165      	bne.n	6326 <__aeabi_ddiv+0x182>
    625a:	9b01      	ldr	r3, [sp, #4]
    625c:	4c4a      	ldr	r4, [pc, #296]	; (6388 <__aeabi_ddiv+0x1e4>)
    625e:	469c      	mov	ip, r3
    6260:	2300      	movs	r3, #0
    6262:	2200      	movs	r2, #0
    6264:	4698      	mov	r8, r3
    6266:	e06b      	b.n	6340 <__aeabi_ddiv+0x19c>
    6268:	0003      	movs	r3, r0
    626a:	4333      	orrs	r3, r6
    626c:	4699      	mov	r9, r3
    626e:	d04e      	beq.n	630e <__aeabi_ddiv+0x16a>
    6270:	2e00      	cmp	r6, #0
    6272:	d100      	bne.n	6276 <__aeabi_ddiv+0xd2>
    6274:	e1bc      	b.n	65f0 <__aeabi_ddiv+0x44c>
    6276:	0030      	movs	r0, r6
    6278:	f001 fb08 	bl	788c <__clzsi2>
    627c:	0003      	movs	r3, r0
    627e:	3b0b      	subs	r3, #11
    6280:	2b1c      	cmp	r3, #28
    6282:	dd00      	ble.n	6286 <__aeabi_ddiv+0xe2>
    6284:	e1ac      	b.n	65e0 <__aeabi_ddiv+0x43c>
    6286:	221d      	movs	r2, #29
    6288:	1ad3      	subs	r3, r2, r3
    628a:	465a      	mov	r2, fp
    628c:	0001      	movs	r1, r0
    628e:	40da      	lsrs	r2, r3
    6290:	3908      	subs	r1, #8
    6292:	408e      	lsls	r6, r1
    6294:	0013      	movs	r3, r2
    6296:	4333      	orrs	r3, r6
    6298:	4699      	mov	r9, r3
    629a:	465b      	mov	r3, fp
    629c:	408b      	lsls	r3, r1
    629e:	4698      	mov	r8, r3
    62a0:	2300      	movs	r3, #0
    62a2:	4c3c      	ldr	r4, [pc, #240]	; (6394 <__aeabi_ddiv+0x1f0>)
    62a4:	2600      	movs	r6, #0
    62a6:	1a24      	subs	r4, r4, r0
    62a8:	9303      	str	r3, [sp, #12]
    62aa:	e79f      	b.n	61ec <__aeabi_ddiv+0x48>
    62ac:	4651      	mov	r1, sl
    62ae:	465a      	mov	r2, fp
    62b0:	4311      	orrs	r1, r2
    62b2:	d129      	bne.n	6308 <__aeabi_ddiv+0x164>
    62b4:	2200      	movs	r2, #0
    62b6:	4693      	mov	fp, r2
    62b8:	3202      	adds	r2, #2
    62ba:	e7b1      	b.n	6220 <__aeabi_ddiv+0x7c>
    62bc:	4659      	mov	r1, fp
    62be:	4301      	orrs	r1, r0
    62c0:	d01e      	beq.n	6300 <__aeabi_ddiv+0x15c>
    62c2:	465b      	mov	r3, fp
    62c4:	2b00      	cmp	r3, #0
    62c6:	d100      	bne.n	62ca <__aeabi_ddiv+0x126>
    62c8:	e19e      	b.n	6608 <__aeabi_ddiv+0x464>
    62ca:	4658      	mov	r0, fp
    62cc:	f001 fade 	bl	788c <__clzsi2>
    62d0:	0003      	movs	r3, r0
    62d2:	3b0b      	subs	r3, #11
    62d4:	2b1c      	cmp	r3, #28
    62d6:	dd00      	ble.n	62da <__aeabi_ddiv+0x136>
    62d8:	e18f      	b.n	65fa <__aeabi_ddiv+0x456>
    62da:	0002      	movs	r2, r0
    62dc:	4659      	mov	r1, fp
    62de:	3a08      	subs	r2, #8
    62e0:	4091      	lsls	r1, r2
    62e2:	468b      	mov	fp, r1
    62e4:	211d      	movs	r1, #29
    62e6:	1acb      	subs	r3, r1, r3
    62e8:	4651      	mov	r1, sl
    62ea:	40d9      	lsrs	r1, r3
    62ec:	000b      	movs	r3, r1
    62ee:	4659      	mov	r1, fp
    62f0:	430b      	orrs	r3, r1
    62f2:	4651      	mov	r1, sl
    62f4:	469b      	mov	fp, r3
    62f6:	4091      	lsls	r1, r2
    62f8:	4b26      	ldr	r3, [pc, #152]	; (6394 <__aeabi_ddiv+0x1f0>)
    62fa:	2200      	movs	r2, #0
    62fc:	1a1b      	subs	r3, r3, r0
    62fe:	e78f      	b.n	6220 <__aeabi_ddiv+0x7c>
    6300:	2300      	movs	r3, #0
    6302:	2201      	movs	r2, #1
    6304:	469b      	mov	fp, r3
    6306:	e78b      	b.n	6220 <__aeabi_ddiv+0x7c>
    6308:	4651      	mov	r1, sl
    630a:	2203      	movs	r2, #3
    630c:	e788      	b.n	6220 <__aeabi_ddiv+0x7c>
    630e:	2300      	movs	r3, #0
    6310:	4698      	mov	r8, r3
    6312:	3301      	adds	r3, #1
    6314:	2604      	movs	r6, #4
    6316:	2400      	movs	r4, #0
    6318:	9303      	str	r3, [sp, #12]
    631a:	e767      	b.n	61ec <__aeabi_ddiv+0x48>
    631c:	2303      	movs	r3, #3
    631e:	46b1      	mov	r9, r6
    6320:	9303      	str	r3, [sp, #12]
    6322:	260c      	movs	r6, #12
    6324:	e762      	b.n	61ec <__aeabi_ddiv+0x48>
    6326:	2a03      	cmp	r2, #3
    6328:	d100      	bne.n	632c <__aeabi_ddiv+0x188>
    632a:	e25c      	b.n	67e6 <__aeabi_ddiv+0x642>
    632c:	9b01      	ldr	r3, [sp, #4]
    632e:	2a01      	cmp	r2, #1
    6330:	d000      	beq.n	6334 <__aeabi_ddiv+0x190>
    6332:	e1e4      	b.n	66fe <__aeabi_ddiv+0x55a>
    6334:	4013      	ands	r3, r2
    6336:	469c      	mov	ip, r3
    6338:	2300      	movs	r3, #0
    633a:	2400      	movs	r4, #0
    633c:	2200      	movs	r2, #0
    633e:	4698      	mov	r8, r3
    6340:	2100      	movs	r1, #0
    6342:	0312      	lsls	r2, r2, #12
    6344:	0b13      	lsrs	r3, r2, #12
    6346:	0d0a      	lsrs	r2, r1, #20
    6348:	0512      	lsls	r2, r2, #20
    634a:	431a      	orrs	r2, r3
    634c:	0523      	lsls	r3, r4, #20
    634e:	4c12      	ldr	r4, [pc, #72]	; (6398 <__aeabi_ddiv+0x1f4>)
    6350:	4640      	mov	r0, r8
    6352:	4022      	ands	r2, r4
    6354:	4313      	orrs	r3, r2
    6356:	4662      	mov	r2, ip
    6358:	005b      	lsls	r3, r3, #1
    635a:	07d2      	lsls	r2, r2, #31
    635c:	085b      	lsrs	r3, r3, #1
    635e:	4313      	orrs	r3, r2
    6360:	0019      	movs	r1, r3
    6362:	b007      	add	sp, #28
    6364:	bc3c      	pop	{r2, r3, r4, r5}
    6366:	4690      	mov	r8, r2
    6368:	4699      	mov	r9, r3
    636a:	46a2      	mov	sl, r4
    636c:	46ab      	mov	fp, r5
    636e:	bdf0      	pop	{r4, r5, r6, r7, pc}
    6370:	2300      	movs	r3, #0
    6372:	2280      	movs	r2, #128	; 0x80
    6374:	469c      	mov	ip, r3
    6376:	0312      	lsls	r2, r2, #12
    6378:	4698      	mov	r8, r3
    637a:	4c03      	ldr	r4, [pc, #12]	; (6388 <__aeabi_ddiv+0x1e4>)
    637c:	e7e0      	b.n	6340 <__aeabi_ddiv+0x19c>
    637e:	2300      	movs	r3, #0
    6380:	4c01      	ldr	r4, [pc, #4]	; (6388 <__aeabi_ddiv+0x1e4>)
    6382:	2200      	movs	r2, #0
    6384:	4698      	mov	r8, r3
    6386:	e7db      	b.n	6340 <__aeabi_ddiv+0x19c>
    6388:	000007ff 	.word	0x000007ff
    638c:	fffffc01 	.word	0xfffffc01
    6390:	0000d3a0 	.word	0x0000d3a0
    6394:	fffffc0d 	.word	0xfffffc0d
    6398:	800fffff 	.word	0x800fffff
    639c:	45d9      	cmp	r9, fp
    639e:	d900      	bls.n	63a2 <__aeabi_ddiv+0x1fe>
    63a0:	e139      	b.n	6616 <__aeabi_ddiv+0x472>
    63a2:	d100      	bne.n	63a6 <__aeabi_ddiv+0x202>
    63a4:	e134      	b.n	6610 <__aeabi_ddiv+0x46c>
    63a6:	2300      	movs	r3, #0
    63a8:	4646      	mov	r6, r8
    63aa:	464d      	mov	r5, r9
    63ac:	469a      	mov	sl, r3
    63ae:	3c01      	subs	r4, #1
    63b0:	465b      	mov	r3, fp
    63b2:	0e0a      	lsrs	r2, r1, #24
    63b4:	021b      	lsls	r3, r3, #8
    63b6:	431a      	orrs	r2, r3
    63b8:	020b      	lsls	r3, r1, #8
    63ba:	0c17      	lsrs	r7, r2, #16
    63bc:	9303      	str	r3, [sp, #12]
    63be:	0413      	lsls	r3, r2, #16
    63c0:	0c1b      	lsrs	r3, r3, #16
    63c2:	0039      	movs	r1, r7
    63c4:	0028      	movs	r0, r5
    63c6:	4690      	mov	r8, r2
    63c8:	9301      	str	r3, [sp, #4]
    63ca:	f7ff fa95 	bl	58f8 <__udivsi3>
    63ce:	0002      	movs	r2, r0
    63d0:	9b01      	ldr	r3, [sp, #4]
    63d2:	4683      	mov	fp, r0
    63d4:	435a      	muls	r2, r3
    63d6:	0028      	movs	r0, r5
    63d8:	0039      	movs	r1, r7
    63da:	4691      	mov	r9, r2
    63dc:	f7ff fb12 	bl	5a04 <__aeabi_uidivmod>
    63e0:	0c35      	lsrs	r5, r6, #16
    63e2:	0409      	lsls	r1, r1, #16
    63e4:	430d      	orrs	r5, r1
    63e6:	45a9      	cmp	r9, r5
    63e8:	d90d      	bls.n	6406 <__aeabi_ddiv+0x262>
    63ea:	465b      	mov	r3, fp
    63ec:	4445      	add	r5, r8
    63ee:	3b01      	subs	r3, #1
    63f0:	45a8      	cmp	r8, r5
    63f2:	d900      	bls.n	63f6 <__aeabi_ddiv+0x252>
    63f4:	e13a      	b.n	666c <__aeabi_ddiv+0x4c8>
    63f6:	45a9      	cmp	r9, r5
    63f8:	d800      	bhi.n	63fc <__aeabi_ddiv+0x258>
    63fa:	e137      	b.n	666c <__aeabi_ddiv+0x4c8>
    63fc:	2302      	movs	r3, #2
    63fe:	425b      	negs	r3, r3
    6400:	469c      	mov	ip, r3
    6402:	4445      	add	r5, r8
    6404:	44e3      	add	fp, ip
    6406:	464b      	mov	r3, r9
    6408:	1aeb      	subs	r3, r5, r3
    640a:	0039      	movs	r1, r7
    640c:	0018      	movs	r0, r3
    640e:	9304      	str	r3, [sp, #16]
    6410:	f7ff fa72 	bl	58f8 <__udivsi3>
    6414:	9b01      	ldr	r3, [sp, #4]
    6416:	0005      	movs	r5, r0
    6418:	4343      	muls	r3, r0
    641a:	0039      	movs	r1, r7
    641c:	9804      	ldr	r0, [sp, #16]
    641e:	4699      	mov	r9, r3
    6420:	f7ff faf0 	bl	5a04 <__aeabi_uidivmod>
    6424:	0433      	lsls	r3, r6, #16
    6426:	0409      	lsls	r1, r1, #16
    6428:	0c1b      	lsrs	r3, r3, #16
    642a:	430b      	orrs	r3, r1
    642c:	4599      	cmp	r9, r3
    642e:	d909      	bls.n	6444 <__aeabi_ddiv+0x2a0>
    6430:	4443      	add	r3, r8
    6432:	1e6a      	subs	r2, r5, #1
    6434:	4598      	cmp	r8, r3
    6436:	d900      	bls.n	643a <__aeabi_ddiv+0x296>
    6438:	e11a      	b.n	6670 <__aeabi_ddiv+0x4cc>
    643a:	4599      	cmp	r9, r3
    643c:	d800      	bhi.n	6440 <__aeabi_ddiv+0x29c>
    643e:	e117      	b.n	6670 <__aeabi_ddiv+0x4cc>
    6440:	3d02      	subs	r5, #2
    6442:	4443      	add	r3, r8
    6444:	464a      	mov	r2, r9
    6446:	1a9b      	subs	r3, r3, r2
    6448:	465a      	mov	r2, fp
    644a:	0412      	lsls	r2, r2, #16
    644c:	432a      	orrs	r2, r5
    644e:	9903      	ldr	r1, [sp, #12]
    6450:	4693      	mov	fp, r2
    6452:	0c10      	lsrs	r0, r2, #16
    6454:	0c0a      	lsrs	r2, r1, #16
    6456:	4691      	mov	r9, r2
    6458:	0409      	lsls	r1, r1, #16
    645a:	465a      	mov	r2, fp
    645c:	0c09      	lsrs	r1, r1, #16
    645e:	464e      	mov	r6, r9
    6460:	000d      	movs	r5, r1
    6462:	0412      	lsls	r2, r2, #16
    6464:	0c12      	lsrs	r2, r2, #16
    6466:	4345      	muls	r5, r0
    6468:	9105      	str	r1, [sp, #20]
    646a:	4351      	muls	r1, r2
    646c:	4372      	muls	r2, r6
    646e:	4370      	muls	r0, r6
    6470:	1952      	adds	r2, r2, r5
    6472:	0c0e      	lsrs	r6, r1, #16
    6474:	18b2      	adds	r2, r6, r2
    6476:	4295      	cmp	r5, r2
    6478:	d903      	bls.n	6482 <__aeabi_ddiv+0x2de>
    647a:	2580      	movs	r5, #128	; 0x80
    647c:	026d      	lsls	r5, r5, #9
    647e:	46ac      	mov	ip, r5
    6480:	4460      	add	r0, ip
    6482:	0c15      	lsrs	r5, r2, #16
    6484:	0409      	lsls	r1, r1, #16
    6486:	0412      	lsls	r2, r2, #16
    6488:	0c09      	lsrs	r1, r1, #16
    648a:	1828      	adds	r0, r5, r0
    648c:	1852      	adds	r2, r2, r1
    648e:	4283      	cmp	r3, r0
    6490:	d200      	bcs.n	6494 <__aeabi_ddiv+0x2f0>
    6492:	e0ce      	b.n	6632 <__aeabi_ddiv+0x48e>
    6494:	d100      	bne.n	6498 <__aeabi_ddiv+0x2f4>
    6496:	e0c8      	b.n	662a <__aeabi_ddiv+0x486>
    6498:	1a1d      	subs	r5, r3, r0
    649a:	4653      	mov	r3, sl
    649c:	1a9e      	subs	r6, r3, r2
    649e:	45b2      	cmp	sl, r6
    64a0:	4192      	sbcs	r2, r2
    64a2:	4252      	negs	r2, r2
    64a4:	1aab      	subs	r3, r5, r2
    64a6:	469a      	mov	sl, r3
    64a8:	4598      	cmp	r8, r3
    64aa:	d100      	bne.n	64ae <__aeabi_ddiv+0x30a>
    64ac:	e117      	b.n	66de <__aeabi_ddiv+0x53a>
    64ae:	0039      	movs	r1, r7
    64b0:	0018      	movs	r0, r3
    64b2:	f7ff fa21 	bl	58f8 <__udivsi3>
    64b6:	9b01      	ldr	r3, [sp, #4]
    64b8:	0005      	movs	r5, r0
    64ba:	4343      	muls	r3, r0
    64bc:	0039      	movs	r1, r7
    64be:	4650      	mov	r0, sl
    64c0:	9304      	str	r3, [sp, #16]
    64c2:	f7ff fa9f 	bl	5a04 <__aeabi_uidivmod>
    64c6:	9804      	ldr	r0, [sp, #16]
    64c8:	040b      	lsls	r3, r1, #16
    64ca:	0c31      	lsrs	r1, r6, #16
    64cc:	4319      	orrs	r1, r3
    64ce:	4288      	cmp	r0, r1
    64d0:	d909      	bls.n	64e6 <__aeabi_ddiv+0x342>
    64d2:	4441      	add	r1, r8
    64d4:	1e6b      	subs	r3, r5, #1
    64d6:	4588      	cmp	r8, r1
    64d8:	d900      	bls.n	64dc <__aeabi_ddiv+0x338>
    64da:	e107      	b.n	66ec <__aeabi_ddiv+0x548>
    64dc:	4288      	cmp	r0, r1
    64de:	d800      	bhi.n	64e2 <__aeabi_ddiv+0x33e>
    64e0:	e104      	b.n	66ec <__aeabi_ddiv+0x548>
    64e2:	3d02      	subs	r5, #2
    64e4:	4441      	add	r1, r8
    64e6:	9b04      	ldr	r3, [sp, #16]
    64e8:	1acb      	subs	r3, r1, r3
    64ea:	0018      	movs	r0, r3
    64ec:	0039      	movs	r1, r7
    64ee:	9304      	str	r3, [sp, #16]
    64f0:	f7ff fa02 	bl	58f8 <__udivsi3>
    64f4:	9b01      	ldr	r3, [sp, #4]
    64f6:	4682      	mov	sl, r0
    64f8:	4343      	muls	r3, r0
    64fa:	0039      	movs	r1, r7
    64fc:	9804      	ldr	r0, [sp, #16]
    64fe:	9301      	str	r3, [sp, #4]
    6500:	f7ff fa80 	bl	5a04 <__aeabi_uidivmod>
    6504:	9801      	ldr	r0, [sp, #4]
    6506:	040b      	lsls	r3, r1, #16
    6508:	0431      	lsls	r1, r6, #16
    650a:	0c09      	lsrs	r1, r1, #16
    650c:	4319      	orrs	r1, r3
    650e:	4288      	cmp	r0, r1
    6510:	d90d      	bls.n	652e <__aeabi_ddiv+0x38a>
    6512:	4653      	mov	r3, sl
    6514:	4441      	add	r1, r8
    6516:	3b01      	subs	r3, #1
    6518:	4588      	cmp	r8, r1
    651a:	d900      	bls.n	651e <__aeabi_ddiv+0x37a>
    651c:	e0e8      	b.n	66f0 <__aeabi_ddiv+0x54c>
    651e:	4288      	cmp	r0, r1
    6520:	d800      	bhi.n	6524 <__aeabi_ddiv+0x380>
    6522:	e0e5      	b.n	66f0 <__aeabi_ddiv+0x54c>
    6524:	2302      	movs	r3, #2
    6526:	425b      	negs	r3, r3
    6528:	469c      	mov	ip, r3
    652a:	4441      	add	r1, r8
    652c:	44e2      	add	sl, ip
    652e:	9b01      	ldr	r3, [sp, #4]
    6530:	042d      	lsls	r5, r5, #16
    6532:	1ace      	subs	r6, r1, r3
    6534:	4651      	mov	r1, sl
    6536:	4329      	orrs	r1, r5
    6538:	9d05      	ldr	r5, [sp, #20]
    653a:	464f      	mov	r7, r9
    653c:	002a      	movs	r2, r5
    653e:	040b      	lsls	r3, r1, #16
    6540:	0c08      	lsrs	r0, r1, #16
    6542:	0c1b      	lsrs	r3, r3, #16
    6544:	435a      	muls	r2, r3
    6546:	4345      	muls	r5, r0
    6548:	437b      	muls	r3, r7
    654a:	4378      	muls	r0, r7
    654c:	195b      	adds	r3, r3, r5
    654e:	0c17      	lsrs	r7, r2, #16
    6550:	18fb      	adds	r3, r7, r3
    6552:	429d      	cmp	r5, r3
    6554:	d903      	bls.n	655e <__aeabi_ddiv+0x3ba>
    6556:	2580      	movs	r5, #128	; 0x80
    6558:	026d      	lsls	r5, r5, #9
    655a:	46ac      	mov	ip, r5
    655c:	4460      	add	r0, ip
    655e:	0c1d      	lsrs	r5, r3, #16
    6560:	0412      	lsls	r2, r2, #16
    6562:	041b      	lsls	r3, r3, #16
    6564:	0c12      	lsrs	r2, r2, #16
    6566:	1828      	adds	r0, r5, r0
    6568:	189b      	adds	r3, r3, r2
    656a:	4286      	cmp	r6, r0
    656c:	d200      	bcs.n	6570 <__aeabi_ddiv+0x3cc>
    656e:	e093      	b.n	6698 <__aeabi_ddiv+0x4f4>
    6570:	d100      	bne.n	6574 <__aeabi_ddiv+0x3d0>
    6572:	e08e      	b.n	6692 <__aeabi_ddiv+0x4ee>
    6574:	2301      	movs	r3, #1
    6576:	4319      	orrs	r1, r3
    6578:	4ba0      	ldr	r3, [pc, #640]	; (67fc <__aeabi_ddiv+0x658>)
    657a:	18e3      	adds	r3, r4, r3
    657c:	2b00      	cmp	r3, #0
    657e:	dc00      	bgt.n	6582 <__aeabi_ddiv+0x3de>
    6580:	e099      	b.n	66b6 <__aeabi_ddiv+0x512>
    6582:	074a      	lsls	r2, r1, #29
    6584:	d000      	beq.n	6588 <__aeabi_ddiv+0x3e4>
    6586:	e09e      	b.n	66c6 <__aeabi_ddiv+0x522>
    6588:	465a      	mov	r2, fp
    658a:	01d2      	lsls	r2, r2, #7
    658c:	d506      	bpl.n	659c <__aeabi_ddiv+0x3f8>
    658e:	465a      	mov	r2, fp
    6590:	4b9b      	ldr	r3, [pc, #620]	; (6800 <__aeabi_ddiv+0x65c>)
    6592:	401a      	ands	r2, r3
    6594:	2380      	movs	r3, #128	; 0x80
    6596:	4693      	mov	fp, r2
    6598:	00db      	lsls	r3, r3, #3
    659a:	18e3      	adds	r3, r4, r3
    659c:	4a99      	ldr	r2, [pc, #612]	; (6804 <__aeabi_ddiv+0x660>)
    659e:	4293      	cmp	r3, r2
    65a0:	dd68      	ble.n	6674 <__aeabi_ddiv+0x4d0>
    65a2:	2301      	movs	r3, #1
    65a4:	9a02      	ldr	r2, [sp, #8]
    65a6:	4c98      	ldr	r4, [pc, #608]	; (6808 <__aeabi_ddiv+0x664>)
    65a8:	401a      	ands	r2, r3
    65aa:	2300      	movs	r3, #0
    65ac:	4694      	mov	ip, r2
    65ae:	4698      	mov	r8, r3
    65b0:	2200      	movs	r2, #0
    65b2:	e6c5      	b.n	6340 <__aeabi_ddiv+0x19c>
    65b4:	2280      	movs	r2, #128	; 0x80
    65b6:	464b      	mov	r3, r9
    65b8:	0312      	lsls	r2, r2, #12
    65ba:	4213      	tst	r3, r2
    65bc:	d00a      	beq.n	65d4 <__aeabi_ddiv+0x430>
    65be:	465b      	mov	r3, fp
    65c0:	4213      	tst	r3, r2
    65c2:	d106      	bne.n	65d2 <__aeabi_ddiv+0x42e>
    65c4:	431a      	orrs	r2, r3
    65c6:	0312      	lsls	r2, r2, #12
    65c8:	0b12      	lsrs	r2, r2, #12
    65ca:	46ac      	mov	ip, r5
    65cc:	4688      	mov	r8, r1
    65ce:	4c8e      	ldr	r4, [pc, #568]	; (6808 <__aeabi_ddiv+0x664>)
    65d0:	e6b6      	b.n	6340 <__aeabi_ddiv+0x19c>
    65d2:	464b      	mov	r3, r9
    65d4:	431a      	orrs	r2, r3
    65d6:	0312      	lsls	r2, r2, #12
    65d8:	0b12      	lsrs	r2, r2, #12
    65da:	46bc      	mov	ip, r7
    65dc:	4c8a      	ldr	r4, [pc, #552]	; (6808 <__aeabi_ddiv+0x664>)
    65de:	e6af      	b.n	6340 <__aeabi_ddiv+0x19c>
    65e0:	0003      	movs	r3, r0
    65e2:	465a      	mov	r2, fp
    65e4:	3b28      	subs	r3, #40	; 0x28
    65e6:	409a      	lsls	r2, r3
    65e8:	2300      	movs	r3, #0
    65ea:	4691      	mov	r9, r2
    65ec:	4698      	mov	r8, r3
    65ee:	e657      	b.n	62a0 <__aeabi_ddiv+0xfc>
    65f0:	4658      	mov	r0, fp
    65f2:	f001 f94b 	bl	788c <__clzsi2>
    65f6:	3020      	adds	r0, #32
    65f8:	e640      	b.n	627c <__aeabi_ddiv+0xd8>
    65fa:	0003      	movs	r3, r0
    65fc:	4652      	mov	r2, sl
    65fe:	3b28      	subs	r3, #40	; 0x28
    6600:	409a      	lsls	r2, r3
    6602:	2100      	movs	r1, #0
    6604:	4693      	mov	fp, r2
    6606:	e677      	b.n	62f8 <__aeabi_ddiv+0x154>
    6608:	f001 f940 	bl	788c <__clzsi2>
    660c:	3020      	adds	r0, #32
    660e:	e65f      	b.n	62d0 <__aeabi_ddiv+0x12c>
    6610:	4588      	cmp	r8, r1
    6612:	d200      	bcs.n	6616 <__aeabi_ddiv+0x472>
    6614:	e6c7      	b.n	63a6 <__aeabi_ddiv+0x202>
    6616:	464b      	mov	r3, r9
    6618:	07de      	lsls	r6, r3, #31
    661a:	085d      	lsrs	r5, r3, #1
    661c:	4643      	mov	r3, r8
    661e:	085b      	lsrs	r3, r3, #1
    6620:	431e      	orrs	r6, r3
    6622:	4643      	mov	r3, r8
    6624:	07db      	lsls	r3, r3, #31
    6626:	469a      	mov	sl, r3
    6628:	e6c2      	b.n	63b0 <__aeabi_ddiv+0x20c>
    662a:	2500      	movs	r5, #0
    662c:	4592      	cmp	sl, r2
    662e:	d300      	bcc.n	6632 <__aeabi_ddiv+0x48e>
    6630:	e733      	b.n	649a <__aeabi_ddiv+0x2f6>
    6632:	9e03      	ldr	r6, [sp, #12]
    6634:	4659      	mov	r1, fp
    6636:	46b4      	mov	ip, r6
    6638:	44e2      	add	sl, ip
    663a:	45b2      	cmp	sl, r6
    663c:	41ad      	sbcs	r5, r5
    663e:	426d      	negs	r5, r5
    6640:	4445      	add	r5, r8
    6642:	18eb      	adds	r3, r5, r3
    6644:	3901      	subs	r1, #1
    6646:	4598      	cmp	r8, r3
    6648:	d207      	bcs.n	665a <__aeabi_ddiv+0x4b6>
    664a:	4298      	cmp	r0, r3
    664c:	d900      	bls.n	6650 <__aeabi_ddiv+0x4ac>
    664e:	e07f      	b.n	6750 <__aeabi_ddiv+0x5ac>
    6650:	d100      	bne.n	6654 <__aeabi_ddiv+0x4b0>
    6652:	e0bc      	b.n	67ce <__aeabi_ddiv+0x62a>
    6654:	1a1d      	subs	r5, r3, r0
    6656:	468b      	mov	fp, r1
    6658:	e71f      	b.n	649a <__aeabi_ddiv+0x2f6>
    665a:	4598      	cmp	r8, r3
    665c:	d1fa      	bne.n	6654 <__aeabi_ddiv+0x4b0>
    665e:	9d03      	ldr	r5, [sp, #12]
    6660:	4555      	cmp	r5, sl
    6662:	d9f2      	bls.n	664a <__aeabi_ddiv+0x4a6>
    6664:	4643      	mov	r3, r8
    6666:	468b      	mov	fp, r1
    6668:	1a1d      	subs	r5, r3, r0
    666a:	e716      	b.n	649a <__aeabi_ddiv+0x2f6>
    666c:	469b      	mov	fp, r3
    666e:	e6ca      	b.n	6406 <__aeabi_ddiv+0x262>
    6670:	0015      	movs	r5, r2
    6672:	e6e7      	b.n	6444 <__aeabi_ddiv+0x2a0>
    6674:	465a      	mov	r2, fp
    6676:	08c9      	lsrs	r1, r1, #3
    6678:	0752      	lsls	r2, r2, #29
    667a:	430a      	orrs	r2, r1
    667c:	055b      	lsls	r3, r3, #21
    667e:	4690      	mov	r8, r2
    6680:	0d5c      	lsrs	r4, r3, #21
    6682:	465a      	mov	r2, fp
    6684:	2301      	movs	r3, #1
    6686:	9902      	ldr	r1, [sp, #8]
    6688:	0252      	lsls	r2, r2, #9
    668a:	4019      	ands	r1, r3
    668c:	0b12      	lsrs	r2, r2, #12
    668e:	468c      	mov	ip, r1
    6690:	e656      	b.n	6340 <__aeabi_ddiv+0x19c>
    6692:	2b00      	cmp	r3, #0
    6694:	d100      	bne.n	6698 <__aeabi_ddiv+0x4f4>
    6696:	e76f      	b.n	6578 <__aeabi_ddiv+0x3d4>
    6698:	4446      	add	r6, r8
    669a:	1e4a      	subs	r2, r1, #1
    669c:	45b0      	cmp	r8, r6
    669e:	d929      	bls.n	66f4 <__aeabi_ddiv+0x550>
    66a0:	0011      	movs	r1, r2
    66a2:	4286      	cmp	r6, r0
    66a4:	d000      	beq.n	66a8 <__aeabi_ddiv+0x504>
    66a6:	e765      	b.n	6574 <__aeabi_ddiv+0x3d0>
    66a8:	9a03      	ldr	r2, [sp, #12]
    66aa:	4293      	cmp	r3, r2
    66ac:	d000      	beq.n	66b0 <__aeabi_ddiv+0x50c>
    66ae:	e761      	b.n	6574 <__aeabi_ddiv+0x3d0>
    66b0:	e762      	b.n	6578 <__aeabi_ddiv+0x3d4>
    66b2:	2101      	movs	r1, #1
    66b4:	4249      	negs	r1, r1
    66b6:	2001      	movs	r0, #1
    66b8:	1ac2      	subs	r2, r0, r3
    66ba:	2a38      	cmp	r2, #56	; 0x38
    66bc:	dd21      	ble.n	6702 <__aeabi_ddiv+0x55e>
    66be:	9b02      	ldr	r3, [sp, #8]
    66c0:	4003      	ands	r3, r0
    66c2:	469c      	mov	ip, r3
    66c4:	e638      	b.n	6338 <__aeabi_ddiv+0x194>
    66c6:	220f      	movs	r2, #15
    66c8:	400a      	ands	r2, r1
    66ca:	2a04      	cmp	r2, #4
    66cc:	d100      	bne.n	66d0 <__aeabi_ddiv+0x52c>
    66ce:	e75b      	b.n	6588 <__aeabi_ddiv+0x3e4>
    66d0:	000a      	movs	r2, r1
    66d2:	1d11      	adds	r1, r2, #4
    66d4:	4291      	cmp	r1, r2
    66d6:	4192      	sbcs	r2, r2
    66d8:	4252      	negs	r2, r2
    66da:	4493      	add	fp, r2
    66dc:	e754      	b.n	6588 <__aeabi_ddiv+0x3e4>
    66de:	4b47      	ldr	r3, [pc, #284]	; (67fc <__aeabi_ddiv+0x658>)
    66e0:	18e3      	adds	r3, r4, r3
    66e2:	2b00      	cmp	r3, #0
    66e4:	dde5      	ble.n	66b2 <__aeabi_ddiv+0x50e>
    66e6:	2201      	movs	r2, #1
    66e8:	4252      	negs	r2, r2
    66ea:	e7f2      	b.n	66d2 <__aeabi_ddiv+0x52e>
    66ec:	001d      	movs	r5, r3
    66ee:	e6fa      	b.n	64e6 <__aeabi_ddiv+0x342>
    66f0:	469a      	mov	sl, r3
    66f2:	e71c      	b.n	652e <__aeabi_ddiv+0x38a>
    66f4:	42b0      	cmp	r0, r6
    66f6:	d839      	bhi.n	676c <__aeabi_ddiv+0x5c8>
    66f8:	d06e      	beq.n	67d8 <__aeabi_ddiv+0x634>
    66fa:	0011      	movs	r1, r2
    66fc:	e73a      	b.n	6574 <__aeabi_ddiv+0x3d0>
    66fe:	9302      	str	r3, [sp, #8]
    6700:	e73a      	b.n	6578 <__aeabi_ddiv+0x3d4>
    6702:	2a1f      	cmp	r2, #31
    6704:	dc3c      	bgt.n	6780 <__aeabi_ddiv+0x5dc>
    6706:	2320      	movs	r3, #32
    6708:	1a9b      	subs	r3, r3, r2
    670a:	000c      	movs	r4, r1
    670c:	4658      	mov	r0, fp
    670e:	4099      	lsls	r1, r3
    6710:	4098      	lsls	r0, r3
    6712:	1e4b      	subs	r3, r1, #1
    6714:	4199      	sbcs	r1, r3
    6716:	465b      	mov	r3, fp
    6718:	40d4      	lsrs	r4, r2
    671a:	40d3      	lsrs	r3, r2
    671c:	4320      	orrs	r0, r4
    671e:	4308      	orrs	r0, r1
    6720:	001a      	movs	r2, r3
    6722:	0743      	lsls	r3, r0, #29
    6724:	d009      	beq.n	673a <__aeabi_ddiv+0x596>
    6726:	230f      	movs	r3, #15
    6728:	4003      	ands	r3, r0
    672a:	2b04      	cmp	r3, #4
    672c:	d005      	beq.n	673a <__aeabi_ddiv+0x596>
    672e:	0001      	movs	r1, r0
    6730:	1d08      	adds	r0, r1, #4
    6732:	4288      	cmp	r0, r1
    6734:	419b      	sbcs	r3, r3
    6736:	425b      	negs	r3, r3
    6738:	18d2      	adds	r2, r2, r3
    673a:	0213      	lsls	r3, r2, #8
    673c:	d53a      	bpl.n	67b4 <__aeabi_ddiv+0x610>
    673e:	2301      	movs	r3, #1
    6740:	9a02      	ldr	r2, [sp, #8]
    6742:	2401      	movs	r4, #1
    6744:	401a      	ands	r2, r3
    6746:	2300      	movs	r3, #0
    6748:	4694      	mov	ip, r2
    674a:	4698      	mov	r8, r3
    674c:	2200      	movs	r2, #0
    674e:	e5f7      	b.n	6340 <__aeabi_ddiv+0x19c>
    6750:	2102      	movs	r1, #2
    6752:	4249      	negs	r1, r1
    6754:	468c      	mov	ip, r1
    6756:	9d03      	ldr	r5, [sp, #12]
    6758:	44e3      	add	fp, ip
    675a:	46ac      	mov	ip, r5
    675c:	44e2      	add	sl, ip
    675e:	45aa      	cmp	sl, r5
    6760:	41ad      	sbcs	r5, r5
    6762:	426d      	negs	r5, r5
    6764:	4445      	add	r5, r8
    6766:	18ed      	adds	r5, r5, r3
    6768:	1a2d      	subs	r5, r5, r0
    676a:	e696      	b.n	649a <__aeabi_ddiv+0x2f6>
    676c:	1e8a      	subs	r2, r1, #2
    676e:	9903      	ldr	r1, [sp, #12]
    6770:	004d      	lsls	r5, r1, #1
    6772:	428d      	cmp	r5, r1
    6774:	4189      	sbcs	r1, r1
    6776:	4249      	negs	r1, r1
    6778:	4441      	add	r1, r8
    677a:	1876      	adds	r6, r6, r1
    677c:	9503      	str	r5, [sp, #12]
    677e:	e78f      	b.n	66a0 <__aeabi_ddiv+0x4fc>
    6780:	201f      	movs	r0, #31
    6782:	4240      	negs	r0, r0
    6784:	1ac3      	subs	r3, r0, r3
    6786:	4658      	mov	r0, fp
    6788:	40d8      	lsrs	r0, r3
    678a:	0003      	movs	r3, r0
    678c:	2a20      	cmp	r2, #32
    678e:	d028      	beq.n	67e2 <__aeabi_ddiv+0x63e>
    6790:	2040      	movs	r0, #64	; 0x40
    6792:	465d      	mov	r5, fp
    6794:	1a82      	subs	r2, r0, r2
    6796:	4095      	lsls	r5, r2
    6798:	4329      	orrs	r1, r5
    679a:	1e4a      	subs	r2, r1, #1
    679c:	4191      	sbcs	r1, r2
    679e:	4319      	orrs	r1, r3
    67a0:	2307      	movs	r3, #7
    67a2:	2200      	movs	r2, #0
    67a4:	400b      	ands	r3, r1
    67a6:	d009      	beq.n	67bc <__aeabi_ddiv+0x618>
    67a8:	230f      	movs	r3, #15
    67aa:	2200      	movs	r2, #0
    67ac:	400b      	ands	r3, r1
    67ae:	0008      	movs	r0, r1
    67b0:	2b04      	cmp	r3, #4
    67b2:	d1bd      	bne.n	6730 <__aeabi_ddiv+0x58c>
    67b4:	0001      	movs	r1, r0
    67b6:	0753      	lsls	r3, r2, #29
    67b8:	0252      	lsls	r2, r2, #9
    67ba:	0b12      	lsrs	r2, r2, #12
    67bc:	08c9      	lsrs	r1, r1, #3
    67be:	4319      	orrs	r1, r3
    67c0:	2301      	movs	r3, #1
    67c2:	4688      	mov	r8, r1
    67c4:	9902      	ldr	r1, [sp, #8]
    67c6:	2400      	movs	r4, #0
    67c8:	4019      	ands	r1, r3
    67ca:	468c      	mov	ip, r1
    67cc:	e5b8      	b.n	6340 <__aeabi_ddiv+0x19c>
    67ce:	4552      	cmp	r2, sl
    67d0:	d8be      	bhi.n	6750 <__aeabi_ddiv+0x5ac>
    67d2:	468b      	mov	fp, r1
    67d4:	2500      	movs	r5, #0
    67d6:	e660      	b.n	649a <__aeabi_ddiv+0x2f6>
    67d8:	9d03      	ldr	r5, [sp, #12]
    67da:	429d      	cmp	r5, r3
    67dc:	d3c6      	bcc.n	676c <__aeabi_ddiv+0x5c8>
    67de:	0011      	movs	r1, r2
    67e0:	e762      	b.n	66a8 <__aeabi_ddiv+0x504>
    67e2:	2500      	movs	r5, #0
    67e4:	e7d8      	b.n	6798 <__aeabi_ddiv+0x5f4>
    67e6:	2280      	movs	r2, #128	; 0x80
    67e8:	465b      	mov	r3, fp
    67ea:	0312      	lsls	r2, r2, #12
    67ec:	431a      	orrs	r2, r3
    67ee:	9b01      	ldr	r3, [sp, #4]
    67f0:	0312      	lsls	r2, r2, #12
    67f2:	0b12      	lsrs	r2, r2, #12
    67f4:	469c      	mov	ip, r3
    67f6:	4688      	mov	r8, r1
    67f8:	4c03      	ldr	r4, [pc, #12]	; (6808 <__aeabi_ddiv+0x664>)
    67fa:	e5a1      	b.n	6340 <__aeabi_ddiv+0x19c>
    67fc:	000003ff 	.word	0x000003ff
    6800:	feffffff 	.word	0xfeffffff
    6804:	000007fe 	.word	0x000007fe
    6808:	000007ff 	.word	0x000007ff

0000680c <__eqdf2>:
    680c:	b5f0      	push	{r4, r5, r6, r7, lr}
    680e:	464f      	mov	r7, r9
    6810:	4646      	mov	r6, r8
    6812:	46d6      	mov	lr, sl
    6814:	005c      	lsls	r4, r3, #1
    6816:	b5c0      	push	{r6, r7, lr}
    6818:	031f      	lsls	r7, r3, #12
    681a:	0fdb      	lsrs	r3, r3, #31
    681c:	469a      	mov	sl, r3
    681e:	4b17      	ldr	r3, [pc, #92]	; (687c <__eqdf2+0x70>)
    6820:	030e      	lsls	r6, r1, #12
    6822:	004d      	lsls	r5, r1, #1
    6824:	4684      	mov	ip, r0
    6826:	4680      	mov	r8, r0
    6828:	0b36      	lsrs	r6, r6, #12
    682a:	0d6d      	lsrs	r5, r5, #21
    682c:	0fc9      	lsrs	r1, r1, #31
    682e:	4691      	mov	r9, r2
    6830:	0b3f      	lsrs	r7, r7, #12
    6832:	0d64      	lsrs	r4, r4, #21
    6834:	2001      	movs	r0, #1
    6836:	429d      	cmp	r5, r3
    6838:	d008      	beq.n	684c <__eqdf2+0x40>
    683a:	429c      	cmp	r4, r3
    683c:	d001      	beq.n	6842 <__eqdf2+0x36>
    683e:	42a5      	cmp	r5, r4
    6840:	d00b      	beq.n	685a <__eqdf2+0x4e>
    6842:	bc1c      	pop	{r2, r3, r4}
    6844:	4690      	mov	r8, r2
    6846:	4699      	mov	r9, r3
    6848:	46a2      	mov	sl, r4
    684a:	bdf0      	pop	{r4, r5, r6, r7, pc}
    684c:	4663      	mov	r3, ip
    684e:	4333      	orrs	r3, r6
    6850:	d1f7      	bne.n	6842 <__eqdf2+0x36>
    6852:	42ac      	cmp	r4, r5
    6854:	d1f5      	bne.n	6842 <__eqdf2+0x36>
    6856:	433a      	orrs	r2, r7
    6858:	d1f3      	bne.n	6842 <__eqdf2+0x36>
    685a:	2001      	movs	r0, #1
    685c:	42be      	cmp	r6, r7
    685e:	d1f0      	bne.n	6842 <__eqdf2+0x36>
    6860:	45c8      	cmp	r8, r9
    6862:	d1ee      	bne.n	6842 <__eqdf2+0x36>
    6864:	4551      	cmp	r1, sl
    6866:	d007      	beq.n	6878 <__eqdf2+0x6c>
    6868:	2d00      	cmp	r5, #0
    686a:	d1ea      	bne.n	6842 <__eqdf2+0x36>
    686c:	4663      	mov	r3, ip
    686e:	431e      	orrs	r6, r3
    6870:	0030      	movs	r0, r6
    6872:	1e46      	subs	r6, r0, #1
    6874:	41b0      	sbcs	r0, r6
    6876:	e7e4      	b.n	6842 <__eqdf2+0x36>
    6878:	2000      	movs	r0, #0
    687a:	e7e2      	b.n	6842 <__eqdf2+0x36>
    687c:	000007ff 	.word	0x000007ff

00006880 <__gedf2>:
    6880:	b5f0      	push	{r4, r5, r6, r7, lr}
    6882:	4645      	mov	r5, r8
    6884:	46de      	mov	lr, fp
    6886:	4657      	mov	r7, sl
    6888:	464e      	mov	r6, r9
    688a:	b5e0      	push	{r5, r6, r7, lr}
    688c:	031f      	lsls	r7, r3, #12
    688e:	0b3d      	lsrs	r5, r7, #12
    6890:	4f2c      	ldr	r7, [pc, #176]	; (6944 <__gedf2+0xc4>)
    6892:	030e      	lsls	r6, r1, #12
    6894:	004c      	lsls	r4, r1, #1
    6896:	46ab      	mov	fp, r5
    6898:	005d      	lsls	r5, r3, #1
    689a:	4684      	mov	ip, r0
    689c:	0b36      	lsrs	r6, r6, #12
    689e:	0d64      	lsrs	r4, r4, #21
    68a0:	0fc9      	lsrs	r1, r1, #31
    68a2:	4690      	mov	r8, r2
    68a4:	0d6d      	lsrs	r5, r5, #21
    68a6:	0fdb      	lsrs	r3, r3, #31
    68a8:	42bc      	cmp	r4, r7
    68aa:	d02a      	beq.n	6902 <__gedf2+0x82>
    68ac:	4f25      	ldr	r7, [pc, #148]	; (6944 <__gedf2+0xc4>)
    68ae:	42bd      	cmp	r5, r7
    68b0:	d02d      	beq.n	690e <__gedf2+0x8e>
    68b2:	2c00      	cmp	r4, #0
    68b4:	d10f      	bne.n	68d6 <__gedf2+0x56>
    68b6:	4330      	orrs	r0, r6
    68b8:	0007      	movs	r7, r0
    68ba:	4681      	mov	r9, r0
    68bc:	4278      	negs	r0, r7
    68be:	4178      	adcs	r0, r7
    68c0:	b2c0      	uxtb	r0, r0
    68c2:	2d00      	cmp	r5, #0
    68c4:	d117      	bne.n	68f6 <__gedf2+0x76>
    68c6:	465f      	mov	r7, fp
    68c8:	433a      	orrs	r2, r7
    68ca:	d114      	bne.n	68f6 <__gedf2+0x76>
    68cc:	464b      	mov	r3, r9
    68ce:	2000      	movs	r0, #0
    68d0:	2b00      	cmp	r3, #0
    68d2:	d00a      	beq.n	68ea <__gedf2+0x6a>
    68d4:	e006      	b.n	68e4 <__gedf2+0x64>
    68d6:	2d00      	cmp	r5, #0
    68d8:	d102      	bne.n	68e0 <__gedf2+0x60>
    68da:	4658      	mov	r0, fp
    68dc:	4302      	orrs	r2, r0
    68de:	d001      	beq.n	68e4 <__gedf2+0x64>
    68e0:	4299      	cmp	r1, r3
    68e2:	d018      	beq.n	6916 <__gedf2+0x96>
    68e4:	4248      	negs	r0, r1
    68e6:	2101      	movs	r1, #1
    68e8:	4308      	orrs	r0, r1
    68ea:	bc3c      	pop	{r2, r3, r4, r5}
    68ec:	4690      	mov	r8, r2
    68ee:	4699      	mov	r9, r3
    68f0:	46a2      	mov	sl, r4
    68f2:	46ab      	mov	fp, r5
    68f4:	bdf0      	pop	{r4, r5, r6, r7, pc}
    68f6:	2800      	cmp	r0, #0
    68f8:	d0f2      	beq.n	68e0 <__gedf2+0x60>
    68fa:	2001      	movs	r0, #1
    68fc:	3b01      	subs	r3, #1
    68fe:	4318      	orrs	r0, r3
    6900:	e7f3      	b.n	68ea <__gedf2+0x6a>
    6902:	0037      	movs	r7, r6
    6904:	4307      	orrs	r7, r0
    6906:	d0d1      	beq.n	68ac <__gedf2+0x2c>
    6908:	2002      	movs	r0, #2
    690a:	4240      	negs	r0, r0
    690c:	e7ed      	b.n	68ea <__gedf2+0x6a>
    690e:	465f      	mov	r7, fp
    6910:	4317      	orrs	r7, r2
    6912:	d0ce      	beq.n	68b2 <__gedf2+0x32>
    6914:	e7f8      	b.n	6908 <__gedf2+0x88>
    6916:	42ac      	cmp	r4, r5
    6918:	dce4      	bgt.n	68e4 <__gedf2+0x64>
    691a:	da03      	bge.n	6924 <__gedf2+0xa4>
    691c:	1e48      	subs	r0, r1, #1
    691e:	2101      	movs	r1, #1
    6920:	4308      	orrs	r0, r1
    6922:	e7e2      	b.n	68ea <__gedf2+0x6a>
    6924:	455e      	cmp	r6, fp
    6926:	d8dd      	bhi.n	68e4 <__gedf2+0x64>
    6928:	d006      	beq.n	6938 <__gedf2+0xb8>
    692a:	2000      	movs	r0, #0
    692c:	455e      	cmp	r6, fp
    692e:	d2dc      	bcs.n	68ea <__gedf2+0x6a>
    6930:	2301      	movs	r3, #1
    6932:	1e48      	subs	r0, r1, #1
    6934:	4318      	orrs	r0, r3
    6936:	e7d8      	b.n	68ea <__gedf2+0x6a>
    6938:	45c4      	cmp	ip, r8
    693a:	d8d3      	bhi.n	68e4 <__gedf2+0x64>
    693c:	2000      	movs	r0, #0
    693e:	45c4      	cmp	ip, r8
    6940:	d3f6      	bcc.n	6930 <__gedf2+0xb0>
    6942:	e7d2      	b.n	68ea <__gedf2+0x6a>
    6944:	000007ff 	.word	0x000007ff

00006948 <__ledf2>:
    6948:	b5f0      	push	{r4, r5, r6, r7, lr}
    694a:	464e      	mov	r6, r9
    694c:	4645      	mov	r5, r8
    694e:	46de      	mov	lr, fp
    6950:	4657      	mov	r7, sl
    6952:	005c      	lsls	r4, r3, #1
    6954:	b5e0      	push	{r5, r6, r7, lr}
    6956:	031f      	lsls	r7, r3, #12
    6958:	0fdb      	lsrs	r3, r3, #31
    695a:	4699      	mov	r9, r3
    695c:	4b2a      	ldr	r3, [pc, #168]	; (6a08 <__ledf2+0xc0>)
    695e:	030e      	lsls	r6, r1, #12
    6960:	004d      	lsls	r5, r1, #1
    6962:	0fc9      	lsrs	r1, r1, #31
    6964:	4684      	mov	ip, r0
    6966:	0b36      	lsrs	r6, r6, #12
    6968:	0d6d      	lsrs	r5, r5, #21
    696a:	468b      	mov	fp, r1
    696c:	4690      	mov	r8, r2
    696e:	0b3f      	lsrs	r7, r7, #12
    6970:	0d64      	lsrs	r4, r4, #21
    6972:	429d      	cmp	r5, r3
    6974:	d020      	beq.n	69b8 <__ledf2+0x70>
    6976:	4b24      	ldr	r3, [pc, #144]	; (6a08 <__ledf2+0xc0>)
    6978:	429c      	cmp	r4, r3
    697a:	d022      	beq.n	69c2 <__ledf2+0x7a>
    697c:	2d00      	cmp	r5, #0
    697e:	d112      	bne.n	69a6 <__ledf2+0x5e>
    6980:	4330      	orrs	r0, r6
    6982:	4243      	negs	r3, r0
    6984:	4143      	adcs	r3, r0
    6986:	b2db      	uxtb	r3, r3
    6988:	2c00      	cmp	r4, #0
    698a:	d01f      	beq.n	69cc <__ledf2+0x84>
    698c:	2b00      	cmp	r3, #0
    698e:	d00c      	beq.n	69aa <__ledf2+0x62>
    6990:	464b      	mov	r3, r9
    6992:	2001      	movs	r0, #1
    6994:	3b01      	subs	r3, #1
    6996:	4303      	orrs	r3, r0
    6998:	0018      	movs	r0, r3
    699a:	bc3c      	pop	{r2, r3, r4, r5}
    699c:	4690      	mov	r8, r2
    699e:	4699      	mov	r9, r3
    69a0:	46a2      	mov	sl, r4
    69a2:	46ab      	mov	fp, r5
    69a4:	bdf0      	pop	{r4, r5, r6, r7, pc}
    69a6:	2c00      	cmp	r4, #0
    69a8:	d016      	beq.n	69d8 <__ledf2+0x90>
    69aa:	45cb      	cmp	fp, r9
    69ac:	d017      	beq.n	69de <__ledf2+0x96>
    69ae:	465b      	mov	r3, fp
    69b0:	4259      	negs	r1, r3
    69b2:	2301      	movs	r3, #1
    69b4:	430b      	orrs	r3, r1
    69b6:	e7ef      	b.n	6998 <__ledf2+0x50>
    69b8:	0031      	movs	r1, r6
    69ba:	2302      	movs	r3, #2
    69bc:	4301      	orrs	r1, r0
    69be:	d1eb      	bne.n	6998 <__ledf2+0x50>
    69c0:	e7d9      	b.n	6976 <__ledf2+0x2e>
    69c2:	0039      	movs	r1, r7
    69c4:	2302      	movs	r3, #2
    69c6:	4311      	orrs	r1, r2
    69c8:	d1e6      	bne.n	6998 <__ledf2+0x50>
    69ca:	e7d7      	b.n	697c <__ledf2+0x34>
    69cc:	433a      	orrs	r2, r7
    69ce:	d1dd      	bne.n	698c <__ledf2+0x44>
    69d0:	2300      	movs	r3, #0
    69d2:	2800      	cmp	r0, #0
    69d4:	d0e0      	beq.n	6998 <__ledf2+0x50>
    69d6:	e7ea      	b.n	69ae <__ledf2+0x66>
    69d8:	433a      	orrs	r2, r7
    69da:	d1e6      	bne.n	69aa <__ledf2+0x62>
    69dc:	e7e7      	b.n	69ae <__ledf2+0x66>
    69de:	42a5      	cmp	r5, r4
    69e0:	dce5      	bgt.n	69ae <__ledf2+0x66>
    69e2:	db05      	blt.n	69f0 <__ledf2+0xa8>
    69e4:	42be      	cmp	r6, r7
    69e6:	d8e2      	bhi.n	69ae <__ledf2+0x66>
    69e8:	d007      	beq.n	69fa <__ledf2+0xb2>
    69ea:	2300      	movs	r3, #0
    69ec:	42be      	cmp	r6, r7
    69ee:	d2d3      	bcs.n	6998 <__ledf2+0x50>
    69f0:	4659      	mov	r1, fp
    69f2:	2301      	movs	r3, #1
    69f4:	3901      	subs	r1, #1
    69f6:	430b      	orrs	r3, r1
    69f8:	e7ce      	b.n	6998 <__ledf2+0x50>
    69fa:	45c4      	cmp	ip, r8
    69fc:	d8d7      	bhi.n	69ae <__ledf2+0x66>
    69fe:	2300      	movs	r3, #0
    6a00:	45c4      	cmp	ip, r8
    6a02:	d3f5      	bcc.n	69f0 <__ledf2+0xa8>
    6a04:	e7c8      	b.n	6998 <__ledf2+0x50>
    6a06:	46c0      	nop			; (mov r8, r8)
    6a08:	000007ff 	.word	0x000007ff

00006a0c <__aeabi_dmul>:
    6a0c:	b5f0      	push	{r4, r5, r6, r7, lr}
    6a0e:	4657      	mov	r7, sl
    6a10:	4645      	mov	r5, r8
    6a12:	46de      	mov	lr, fp
    6a14:	464e      	mov	r6, r9
    6a16:	b5e0      	push	{r5, r6, r7, lr}
    6a18:	030c      	lsls	r4, r1, #12
    6a1a:	4698      	mov	r8, r3
    6a1c:	004e      	lsls	r6, r1, #1
    6a1e:	0b23      	lsrs	r3, r4, #12
    6a20:	b087      	sub	sp, #28
    6a22:	0007      	movs	r7, r0
    6a24:	4692      	mov	sl, r2
    6a26:	469b      	mov	fp, r3
    6a28:	0d76      	lsrs	r6, r6, #21
    6a2a:	0fcd      	lsrs	r5, r1, #31
    6a2c:	2e00      	cmp	r6, #0
    6a2e:	d06b      	beq.n	6b08 <__aeabi_dmul+0xfc>
    6a30:	4b6d      	ldr	r3, [pc, #436]	; (6be8 <__aeabi_dmul+0x1dc>)
    6a32:	429e      	cmp	r6, r3
    6a34:	d035      	beq.n	6aa2 <__aeabi_dmul+0x96>
    6a36:	2480      	movs	r4, #128	; 0x80
    6a38:	465b      	mov	r3, fp
    6a3a:	0f42      	lsrs	r2, r0, #29
    6a3c:	0424      	lsls	r4, r4, #16
    6a3e:	00db      	lsls	r3, r3, #3
    6a40:	4314      	orrs	r4, r2
    6a42:	431c      	orrs	r4, r3
    6a44:	00c3      	lsls	r3, r0, #3
    6a46:	4699      	mov	r9, r3
    6a48:	4b68      	ldr	r3, [pc, #416]	; (6bec <__aeabi_dmul+0x1e0>)
    6a4a:	46a3      	mov	fp, r4
    6a4c:	469c      	mov	ip, r3
    6a4e:	2300      	movs	r3, #0
    6a50:	2700      	movs	r7, #0
    6a52:	4466      	add	r6, ip
    6a54:	9302      	str	r3, [sp, #8]
    6a56:	4643      	mov	r3, r8
    6a58:	031c      	lsls	r4, r3, #12
    6a5a:	005a      	lsls	r2, r3, #1
    6a5c:	0fdb      	lsrs	r3, r3, #31
    6a5e:	4650      	mov	r0, sl
    6a60:	0b24      	lsrs	r4, r4, #12
    6a62:	0d52      	lsrs	r2, r2, #21
    6a64:	4698      	mov	r8, r3
    6a66:	d100      	bne.n	6a6a <__aeabi_dmul+0x5e>
    6a68:	e076      	b.n	6b58 <__aeabi_dmul+0x14c>
    6a6a:	4b5f      	ldr	r3, [pc, #380]	; (6be8 <__aeabi_dmul+0x1dc>)
    6a6c:	429a      	cmp	r2, r3
    6a6e:	d06d      	beq.n	6b4c <__aeabi_dmul+0x140>
    6a70:	2380      	movs	r3, #128	; 0x80
    6a72:	0f41      	lsrs	r1, r0, #29
    6a74:	041b      	lsls	r3, r3, #16
    6a76:	430b      	orrs	r3, r1
    6a78:	495c      	ldr	r1, [pc, #368]	; (6bec <__aeabi_dmul+0x1e0>)
    6a7a:	00e4      	lsls	r4, r4, #3
    6a7c:	468c      	mov	ip, r1
    6a7e:	431c      	orrs	r4, r3
    6a80:	00c3      	lsls	r3, r0, #3
    6a82:	2000      	movs	r0, #0
    6a84:	4462      	add	r2, ip
    6a86:	4641      	mov	r1, r8
    6a88:	18b6      	adds	r6, r6, r2
    6a8a:	4069      	eors	r1, r5
    6a8c:	1c72      	adds	r2, r6, #1
    6a8e:	9101      	str	r1, [sp, #4]
    6a90:	4694      	mov	ip, r2
    6a92:	4307      	orrs	r7, r0
    6a94:	2f0f      	cmp	r7, #15
    6a96:	d900      	bls.n	6a9a <__aeabi_dmul+0x8e>
    6a98:	e0b0      	b.n	6bfc <__aeabi_dmul+0x1f0>
    6a9a:	4a55      	ldr	r2, [pc, #340]	; (6bf0 <__aeabi_dmul+0x1e4>)
    6a9c:	00bf      	lsls	r7, r7, #2
    6a9e:	59d2      	ldr	r2, [r2, r7]
    6aa0:	4697      	mov	pc, r2
    6aa2:	465b      	mov	r3, fp
    6aa4:	4303      	orrs	r3, r0
    6aa6:	4699      	mov	r9, r3
    6aa8:	d000      	beq.n	6aac <__aeabi_dmul+0xa0>
    6aaa:	e087      	b.n	6bbc <__aeabi_dmul+0x1b0>
    6aac:	2300      	movs	r3, #0
    6aae:	469b      	mov	fp, r3
    6ab0:	3302      	adds	r3, #2
    6ab2:	2708      	movs	r7, #8
    6ab4:	9302      	str	r3, [sp, #8]
    6ab6:	e7ce      	b.n	6a56 <__aeabi_dmul+0x4a>
    6ab8:	4642      	mov	r2, r8
    6aba:	9201      	str	r2, [sp, #4]
    6abc:	2802      	cmp	r0, #2
    6abe:	d067      	beq.n	6b90 <__aeabi_dmul+0x184>
    6ac0:	2803      	cmp	r0, #3
    6ac2:	d100      	bne.n	6ac6 <__aeabi_dmul+0xba>
    6ac4:	e20e      	b.n	6ee4 <__aeabi_dmul+0x4d8>
    6ac6:	2801      	cmp	r0, #1
    6ac8:	d000      	beq.n	6acc <__aeabi_dmul+0xc0>
    6aca:	e162      	b.n	6d92 <__aeabi_dmul+0x386>
    6acc:	2300      	movs	r3, #0
    6ace:	2400      	movs	r4, #0
    6ad0:	2200      	movs	r2, #0
    6ad2:	4699      	mov	r9, r3
    6ad4:	9901      	ldr	r1, [sp, #4]
    6ad6:	4001      	ands	r1, r0
    6ad8:	b2cd      	uxtb	r5, r1
    6ada:	2100      	movs	r1, #0
    6adc:	0312      	lsls	r2, r2, #12
    6ade:	0d0b      	lsrs	r3, r1, #20
    6ae0:	0b12      	lsrs	r2, r2, #12
    6ae2:	051b      	lsls	r3, r3, #20
    6ae4:	4313      	orrs	r3, r2
    6ae6:	4a43      	ldr	r2, [pc, #268]	; (6bf4 <__aeabi_dmul+0x1e8>)
    6ae8:	0524      	lsls	r4, r4, #20
    6aea:	4013      	ands	r3, r2
    6aec:	431c      	orrs	r4, r3
    6aee:	0064      	lsls	r4, r4, #1
    6af0:	07ed      	lsls	r5, r5, #31
    6af2:	0864      	lsrs	r4, r4, #1
    6af4:	432c      	orrs	r4, r5
    6af6:	4648      	mov	r0, r9
    6af8:	0021      	movs	r1, r4
    6afa:	b007      	add	sp, #28
    6afc:	bc3c      	pop	{r2, r3, r4, r5}
    6afe:	4690      	mov	r8, r2
    6b00:	4699      	mov	r9, r3
    6b02:	46a2      	mov	sl, r4
    6b04:	46ab      	mov	fp, r5
    6b06:	bdf0      	pop	{r4, r5, r6, r7, pc}
    6b08:	4303      	orrs	r3, r0
    6b0a:	4699      	mov	r9, r3
    6b0c:	d04f      	beq.n	6bae <__aeabi_dmul+0x1a2>
    6b0e:	465b      	mov	r3, fp
    6b10:	2b00      	cmp	r3, #0
    6b12:	d100      	bne.n	6b16 <__aeabi_dmul+0x10a>
    6b14:	e189      	b.n	6e2a <__aeabi_dmul+0x41e>
    6b16:	4658      	mov	r0, fp
    6b18:	f000 feb8 	bl	788c <__clzsi2>
    6b1c:	0003      	movs	r3, r0
    6b1e:	3b0b      	subs	r3, #11
    6b20:	2b1c      	cmp	r3, #28
    6b22:	dd00      	ble.n	6b26 <__aeabi_dmul+0x11a>
    6b24:	e17a      	b.n	6e1c <__aeabi_dmul+0x410>
    6b26:	221d      	movs	r2, #29
    6b28:	1ad3      	subs	r3, r2, r3
    6b2a:	003a      	movs	r2, r7
    6b2c:	0001      	movs	r1, r0
    6b2e:	465c      	mov	r4, fp
    6b30:	40da      	lsrs	r2, r3
    6b32:	3908      	subs	r1, #8
    6b34:	408c      	lsls	r4, r1
    6b36:	0013      	movs	r3, r2
    6b38:	408f      	lsls	r7, r1
    6b3a:	4323      	orrs	r3, r4
    6b3c:	469b      	mov	fp, r3
    6b3e:	46b9      	mov	r9, r7
    6b40:	2300      	movs	r3, #0
    6b42:	4e2d      	ldr	r6, [pc, #180]	; (6bf8 <__aeabi_dmul+0x1ec>)
    6b44:	2700      	movs	r7, #0
    6b46:	1a36      	subs	r6, r6, r0
    6b48:	9302      	str	r3, [sp, #8]
    6b4a:	e784      	b.n	6a56 <__aeabi_dmul+0x4a>
    6b4c:	4653      	mov	r3, sl
    6b4e:	4323      	orrs	r3, r4
    6b50:	d12a      	bne.n	6ba8 <__aeabi_dmul+0x19c>
    6b52:	2400      	movs	r4, #0
    6b54:	2002      	movs	r0, #2
    6b56:	e796      	b.n	6a86 <__aeabi_dmul+0x7a>
    6b58:	4653      	mov	r3, sl
    6b5a:	4323      	orrs	r3, r4
    6b5c:	d020      	beq.n	6ba0 <__aeabi_dmul+0x194>
    6b5e:	2c00      	cmp	r4, #0
    6b60:	d100      	bne.n	6b64 <__aeabi_dmul+0x158>
    6b62:	e157      	b.n	6e14 <__aeabi_dmul+0x408>
    6b64:	0020      	movs	r0, r4
    6b66:	f000 fe91 	bl	788c <__clzsi2>
    6b6a:	0003      	movs	r3, r0
    6b6c:	3b0b      	subs	r3, #11
    6b6e:	2b1c      	cmp	r3, #28
    6b70:	dd00      	ble.n	6b74 <__aeabi_dmul+0x168>
    6b72:	e149      	b.n	6e08 <__aeabi_dmul+0x3fc>
    6b74:	211d      	movs	r1, #29
    6b76:	1acb      	subs	r3, r1, r3
    6b78:	4651      	mov	r1, sl
    6b7a:	0002      	movs	r2, r0
    6b7c:	40d9      	lsrs	r1, r3
    6b7e:	4653      	mov	r3, sl
    6b80:	3a08      	subs	r2, #8
    6b82:	4094      	lsls	r4, r2
    6b84:	4093      	lsls	r3, r2
    6b86:	430c      	orrs	r4, r1
    6b88:	4a1b      	ldr	r2, [pc, #108]	; (6bf8 <__aeabi_dmul+0x1ec>)
    6b8a:	1a12      	subs	r2, r2, r0
    6b8c:	2000      	movs	r0, #0
    6b8e:	e77a      	b.n	6a86 <__aeabi_dmul+0x7a>
    6b90:	2501      	movs	r5, #1
    6b92:	9b01      	ldr	r3, [sp, #4]
    6b94:	4c14      	ldr	r4, [pc, #80]	; (6be8 <__aeabi_dmul+0x1dc>)
    6b96:	401d      	ands	r5, r3
    6b98:	2300      	movs	r3, #0
    6b9a:	2200      	movs	r2, #0
    6b9c:	4699      	mov	r9, r3
    6b9e:	e79c      	b.n	6ada <__aeabi_dmul+0xce>
    6ba0:	2400      	movs	r4, #0
    6ba2:	2200      	movs	r2, #0
    6ba4:	2001      	movs	r0, #1
    6ba6:	e76e      	b.n	6a86 <__aeabi_dmul+0x7a>
    6ba8:	4653      	mov	r3, sl
    6baa:	2003      	movs	r0, #3
    6bac:	e76b      	b.n	6a86 <__aeabi_dmul+0x7a>
    6bae:	2300      	movs	r3, #0
    6bb0:	469b      	mov	fp, r3
    6bb2:	3301      	adds	r3, #1
    6bb4:	2704      	movs	r7, #4
    6bb6:	2600      	movs	r6, #0
    6bb8:	9302      	str	r3, [sp, #8]
    6bba:	e74c      	b.n	6a56 <__aeabi_dmul+0x4a>
    6bbc:	2303      	movs	r3, #3
    6bbe:	4681      	mov	r9, r0
    6bc0:	270c      	movs	r7, #12
    6bc2:	9302      	str	r3, [sp, #8]
    6bc4:	e747      	b.n	6a56 <__aeabi_dmul+0x4a>
    6bc6:	2280      	movs	r2, #128	; 0x80
    6bc8:	2300      	movs	r3, #0
    6bca:	2500      	movs	r5, #0
    6bcc:	0312      	lsls	r2, r2, #12
    6bce:	4699      	mov	r9, r3
    6bd0:	4c05      	ldr	r4, [pc, #20]	; (6be8 <__aeabi_dmul+0x1dc>)
    6bd2:	e782      	b.n	6ada <__aeabi_dmul+0xce>
    6bd4:	465c      	mov	r4, fp
    6bd6:	464b      	mov	r3, r9
    6bd8:	9802      	ldr	r0, [sp, #8]
    6bda:	e76f      	b.n	6abc <__aeabi_dmul+0xb0>
    6bdc:	465c      	mov	r4, fp
    6bde:	464b      	mov	r3, r9
    6be0:	9501      	str	r5, [sp, #4]
    6be2:	9802      	ldr	r0, [sp, #8]
    6be4:	e76a      	b.n	6abc <__aeabi_dmul+0xb0>
    6be6:	46c0      	nop			; (mov r8, r8)
    6be8:	000007ff 	.word	0x000007ff
    6bec:	fffffc01 	.word	0xfffffc01
    6bf0:	0000d3e0 	.word	0x0000d3e0
    6bf4:	800fffff 	.word	0x800fffff
    6bf8:	fffffc0d 	.word	0xfffffc0d
    6bfc:	464a      	mov	r2, r9
    6bfe:	4649      	mov	r1, r9
    6c00:	0c17      	lsrs	r7, r2, #16
    6c02:	0c1a      	lsrs	r2, r3, #16
    6c04:	041b      	lsls	r3, r3, #16
    6c06:	0c1b      	lsrs	r3, r3, #16
    6c08:	0408      	lsls	r0, r1, #16
    6c0a:	0019      	movs	r1, r3
    6c0c:	0c00      	lsrs	r0, r0, #16
    6c0e:	4341      	muls	r1, r0
    6c10:	0015      	movs	r5, r2
    6c12:	4688      	mov	r8, r1
    6c14:	0019      	movs	r1, r3
    6c16:	437d      	muls	r5, r7
    6c18:	4379      	muls	r1, r7
    6c1a:	9503      	str	r5, [sp, #12]
    6c1c:	4689      	mov	r9, r1
    6c1e:	0029      	movs	r1, r5
    6c20:	0015      	movs	r5, r2
    6c22:	4345      	muls	r5, r0
    6c24:	444d      	add	r5, r9
    6c26:	9502      	str	r5, [sp, #8]
    6c28:	4645      	mov	r5, r8
    6c2a:	0c2d      	lsrs	r5, r5, #16
    6c2c:	46aa      	mov	sl, r5
    6c2e:	9d02      	ldr	r5, [sp, #8]
    6c30:	4455      	add	r5, sl
    6c32:	45a9      	cmp	r9, r5
    6c34:	d906      	bls.n	6c44 <__aeabi_dmul+0x238>
    6c36:	468a      	mov	sl, r1
    6c38:	2180      	movs	r1, #128	; 0x80
    6c3a:	0249      	lsls	r1, r1, #9
    6c3c:	4689      	mov	r9, r1
    6c3e:	44ca      	add	sl, r9
    6c40:	4651      	mov	r1, sl
    6c42:	9103      	str	r1, [sp, #12]
    6c44:	0c29      	lsrs	r1, r5, #16
    6c46:	9104      	str	r1, [sp, #16]
    6c48:	4641      	mov	r1, r8
    6c4a:	0409      	lsls	r1, r1, #16
    6c4c:	042d      	lsls	r5, r5, #16
    6c4e:	0c09      	lsrs	r1, r1, #16
    6c50:	4688      	mov	r8, r1
    6c52:	0029      	movs	r1, r5
    6c54:	0c25      	lsrs	r5, r4, #16
    6c56:	0424      	lsls	r4, r4, #16
    6c58:	4441      	add	r1, r8
    6c5a:	0c24      	lsrs	r4, r4, #16
    6c5c:	9105      	str	r1, [sp, #20]
    6c5e:	0021      	movs	r1, r4
    6c60:	4341      	muls	r1, r0
    6c62:	4688      	mov	r8, r1
    6c64:	0021      	movs	r1, r4
    6c66:	4379      	muls	r1, r7
    6c68:	468a      	mov	sl, r1
    6c6a:	4368      	muls	r0, r5
    6c6c:	4641      	mov	r1, r8
    6c6e:	4450      	add	r0, sl
    6c70:	4681      	mov	r9, r0
    6c72:	0c08      	lsrs	r0, r1, #16
    6c74:	4448      	add	r0, r9
    6c76:	436f      	muls	r7, r5
    6c78:	4582      	cmp	sl, r0
    6c7a:	d903      	bls.n	6c84 <__aeabi_dmul+0x278>
    6c7c:	2180      	movs	r1, #128	; 0x80
    6c7e:	0249      	lsls	r1, r1, #9
    6c80:	4689      	mov	r9, r1
    6c82:	444f      	add	r7, r9
    6c84:	0c01      	lsrs	r1, r0, #16
    6c86:	4689      	mov	r9, r1
    6c88:	0039      	movs	r1, r7
    6c8a:	4449      	add	r1, r9
    6c8c:	9102      	str	r1, [sp, #8]
    6c8e:	4641      	mov	r1, r8
    6c90:	040f      	lsls	r7, r1, #16
    6c92:	9904      	ldr	r1, [sp, #16]
    6c94:	0c3f      	lsrs	r7, r7, #16
    6c96:	4688      	mov	r8, r1
    6c98:	0400      	lsls	r0, r0, #16
    6c9a:	19c0      	adds	r0, r0, r7
    6c9c:	4480      	add	r8, r0
    6c9e:	4641      	mov	r1, r8
    6ca0:	9104      	str	r1, [sp, #16]
    6ca2:	4659      	mov	r1, fp
    6ca4:	0c0f      	lsrs	r7, r1, #16
    6ca6:	0409      	lsls	r1, r1, #16
    6ca8:	0c09      	lsrs	r1, r1, #16
    6caa:	4688      	mov	r8, r1
    6cac:	4359      	muls	r1, r3
    6cae:	468a      	mov	sl, r1
    6cb0:	0039      	movs	r1, r7
    6cb2:	4351      	muls	r1, r2
    6cb4:	4689      	mov	r9, r1
    6cb6:	4641      	mov	r1, r8
    6cb8:	434a      	muls	r2, r1
    6cba:	4651      	mov	r1, sl
    6cbc:	0c09      	lsrs	r1, r1, #16
    6cbe:	468b      	mov	fp, r1
    6cc0:	437b      	muls	r3, r7
    6cc2:	18d2      	adds	r2, r2, r3
    6cc4:	445a      	add	r2, fp
    6cc6:	4293      	cmp	r3, r2
    6cc8:	d903      	bls.n	6cd2 <__aeabi_dmul+0x2c6>
    6cca:	2380      	movs	r3, #128	; 0x80
    6ccc:	025b      	lsls	r3, r3, #9
    6cce:	469b      	mov	fp, r3
    6cd0:	44d9      	add	r9, fp
    6cd2:	4651      	mov	r1, sl
    6cd4:	0409      	lsls	r1, r1, #16
    6cd6:	0c09      	lsrs	r1, r1, #16
    6cd8:	468a      	mov	sl, r1
    6cda:	4641      	mov	r1, r8
    6cdc:	4361      	muls	r1, r4
    6cde:	437c      	muls	r4, r7
    6ce0:	0c13      	lsrs	r3, r2, #16
    6ce2:	0412      	lsls	r2, r2, #16
    6ce4:	444b      	add	r3, r9
    6ce6:	4452      	add	r2, sl
    6ce8:	46a1      	mov	r9, r4
    6cea:	468a      	mov	sl, r1
    6cec:	003c      	movs	r4, r7
    6cee:	4641      	mov	r1, r8
    6cf0:	436c      	muls	r4, r5
    6cf2:	434d      	muls	r5, r1
    6cf4:	4651      	mov	r1, sl
    6cf6:	444d      	add	r5, r9
    6cf8:	0c0f      	lsrs	r7, r1, #16
    6cfa:	197d      	adds	r5, r7, r5
    6cfc:	45a9      	cmp	r9, r5
    6cfe:	d903      	bls.n	6d08 <__aeabi_dmul+0x2fc>
    6d00:	2180      	movs	r1, #128	; 0x80
    6d02:	0249      	lsls	r1, r1, #9
    6d04:	4688      	mov	r8, r1
    6d06:	4444      	add	r4, r8
    6d08:	9f04      	ldr	r7, [sp, #16]
    6d0a:	9903      	ldr	r1, [sp, #12]
    6d0c:	46b8      	mov	r8, r7
    6d0e:	4441      	add	r1, r8
    6d10:	468b      	mov	fp, r1
    6d12:	4583      	cmp	fp, r0
    6d14:	4180      	sbcs	r0, r0
    6d16:	4241      	negs	r1, r0
    6d18:	4688      	mov	r8, r1
    6d1a:	4651      	mov	r1, sl
    6d1c:	0408      	lsls	r0, r1, #16
    6d1e:	042f      	lsls	r7, r5, #16
    6d20:	0c00      	lsrs	r0, r0, #16
    6d22:	183f      	adds	r7, r7, r0
    6d24:	4658      	mov	r0, fp
    6d26:	9902      	ldr	r1, [sp, #8]
    6d28:	1810      	adds	r0, r2, r0
    6d2a:	4689      	mov	r9, r1
    6d2c:	4290      	cmp	r0, r2
    6d2e:	4192      	sbcs	r2, r2
    6d30:	444f      	add	r7, r9
    6d32:	46ba      	mov	sl, r7
    6d34:	4252      	negs	r2, r2
    6d36:	4699      	mov	r9, r3
    6d38:	4693      	mov	fp, r2
    6d3a:	44c2      	add	sl, r8
    6d3c:	44d1      	add	r9, sl
    6d3e:	44cb      	add	fp, r9
    6d40:	428f      	cmp	r7, r1
    6d42:	41bf      	sbcs	r7, r7
    6d44:	45c2      	cmp	sl, r8
    6d46:	4189      	sbcs	r1, r1
    6d48:	4599      	cmp	r9, r3
    6d4a:	419b      	sbcs	r3, r3
    6d4c:	4593      	cmp	fp, r2
    6d4e:	4192      	sbcs	r2, r2
    6d50:	427f      	negs	r7, r7
    6d52:	4249      	negs	r1, r1
    6d54:	0c2d      	lsrs	r5, r5, #16
    6d56:	4252      	negs	r2, r2
    6d58:	430f      	orrs	r7, r1
    6d5a:	425b      	negs	r3, r3
    6d5c:	4313      	orrs	r3, r2
    6d5e:	197f      	adds	r7, r7, r5
    6d60:	18ff      	adds	r7, r7, r3
    6d62:	465b      	mov	r3, fp
    6d64:	193c      	adds	r4, r7, r4
    6d66:	0ddb      	lsrs	r3, r3, #23
    6d68:	9a05      	ldr	r2, [sp, #20]
    6d6a:	0264      	lsls	r4, r4, #9
    6d6c:	431c      	orrs	r4, r3
    6d6e:	0243      	lsls	r3, r0, #9
    6d70:	4313      	orrs	r3, r2
    6d72:	1e5d      	subs	r5, r3, #1
    6d74:	41ab      	sbcs	r3, r5
    6d76:	465a      	mov	r2, fp
    6d78:	0dc0      	lsrs	r0, r0, #23
    6d7a:	4303      	orrs	r3, r0
    6d7c:	0252      	lsls	r2, r2, #9
    6d7e:	4313      	orrs	r3, r2
    6d80:	01e2      	lsls	r2, r4, #7
    6d82:	d556      	bpl.n	6e32 <__aeabi_dmul+0x426>
    6d84:	2001      	movs	r0, #1
    6d86:	085a      	lsrs	r2, r3, #1
    6d88:	4003      	ands	r3, r0
    6d8a:	4313      	orrs	r3, r2
    6d8c:	07e2      	lsls	r2, r4, #31
    6d8e:	4313      	orrs	r3, r2
    6d90:	0864      	lsrs	r4, r4, #1
    6d92:	485a      	ldr	r0, [pc, #360]	; (6efc <__aeabi_dmul+0x4f0>)
    6d94:	4460      	add	r0, ip
    6d96:	2800      	cmp	r0, #0
    6d98:	dd4d      	ble.n	6e36 <__aeabi_dmul+0x42a>
    6d9a:	075a      	lsls	r2, r3, #29
    6d9c:	d009      	beq.n	6db2 <__aeabi_dmul+0x3a6>
    6d9e:	220f      	movs	r2, #15
    6da0:	401a      	ands	r2, r3
    6da2:	2a04      	cmp	r2, #4
    6da4:	d005      	beq.n	6db2 <__aeabi_dmul+0x3a6>
    6da6:	1d1a      	adds	r2, r3, #4
    6da8:	429a      	cmp	r2, r3
    6daa:	419b      	sbcs	r3, r3
    6dac:	425b      	negs	r3, r3
    6dae:	18e4      	adds	r4, r4, r3
    6db0:	0013      	movs	r3, r2
    6db2:	01e2      	lsls	r2, r4, #7
    6db4:	d504      	bpl.n	6dc0 <__aeabi_dmul+0x3b4>
    6db6:	2080      	movs	r0, #128	; 0x80
    6db8:	4a51      	ldr	r2, [pc, #324]	; (6f00 <__aeabi_dmul+0x4f4>)
    6dba:	00c0      	lsls	r0, r0, #3
    6dbc:	4014      	ands	r4, r2
    6dbe:	4460      	add	r0, ip
    6dc0:	4a50      	ldr	r2, [pc, #320]	; (6f04 <__aeabi_dmul+0x4f8>)
    6dc2:	4290      	cmp	r0, r2
    6dc4:	dd00      	ble.n	6dc8 <__aeabi_dmul+0x3bc>
    6dc6:	e6e3      	b.n	6b90 <__aeabi_dmul+0x184>
    6dc8:	2501      	movs	r5, #1
    6dca:	08db      	lsrs	r3, r3, #3
    6dcc:	0762      	lsls	r2, r4, #29
    6dce:	431a      	orrs	r2, r3
    6dd0:	0264      	lsls	r4, r4, #9
    6dd2:	9b01      	ldr	r3, [sp, #4]
    6dd4:	4691      	mov	r9, r2
    6dd6:	0b22      	lsrs	r2, r4, #12
    6dd8:	0544      	lsls	r4, r0, #21
    6dda:	0d64      	lsrs	r4, r4, #21
    6ddc:	401d      	ands	r5, r3
    6dde:	e67c      	b.n	6ada <__aeabi_dmul+0xce>
    6de0:	2280      	movs	r2, #128	; 0x80
    6de2:	4659      	mov	r1, fp
    6de4:	0312      	lsls	r2, r2, #12
    6de6:	4211      	tst	r1, r2
    6de8:	d008      	beq.n	6dfc <__aeabi_dmul+0x3f0>
    6dea:	4214      	tst	r4, r2
    6dec:	d106      	bne.n	6dfc <__aeabi_dmul+0x3f0>
    6dee:	4322      	orrs	r2, r4
    6df0:	0312      	lsls	r2, r2, #12
    6df2:	0b12      	lsrs	r2, r2, #12
    6df4:	4645      	mov	r5, r8
    6df6:	4699      	mov	r9, r3
    6df8:	4c43      	ldr	r4, [pc, #268]	; (6f08 <__aeabi_dmul+0x4fc>)
    6dfa:	e66e      	b.n	6ada <__aeabi_dmul+0xce>
    6dfc:	465b      	mov	r3, fp
    6dfe:	431a      	orrs	r2, r3
    6e00:	0312      	lsls	r2, r2, #12
    6e02:	0b12      	lsrs	r2, r2, #12
    6e04:	4c40      	ldr	r4, [pc, #256]	; (6f08 <__aeabi_dmul+0x4fc>)
    6e06:	e668      	b.n	6ada <__aeabi_dmul+0xce>
    6e08:	0003      	movs	r3, r0
    6e0a:	4654      	mov	r4, sl
    6e0c:	3b28      	subs	r3, #40	; 0x28
    6e0e:	409c      	lsls	r4, r3
    6e10:	2300      	movs	r3, #0
    6e12:	e6b9      	b.n	6b88 <__aeabi_dmul+0x17c>
    6e14:	f000 fd3a 	bl	788c <__clzsi2>
    6e18:	3020      	adds	r0, #32
    6e1a:	e6a6      	b.n	6b6a <__aeabi_dmul+0x15e>
    6e1c:	0003      	movs	r3, r0
    6e1e:	3b28      	subs	r3, #40	; 0x28
    6e20:	409f      	lsls	r7, r3
    6e22:	2300      	movs	r3, #0
    6e24:	46bb      	mov	fp, r7
    6e26:	4699      	mov	r9, r3
    6e28:	e68a      	b.n	6b40 <__aeabi_dmul+0x134>
    6e2a:	f000 fd2f 	bl	788c <__clzsi2>
    6e2e:	3020      	adds	r0, #32
    6e30:	e674      	b.n	6b1c <__aeabi_dmul+0x110>
    6e32:	46b4      	mov	ip, r6
    6e34:	e7ad      	b.n	6d92 <__aeabi_dmul+0x386>
    6e36:	2501      	movs	r5, #1
    6e38:	1a2a      	subs	r2, r5, r0
    6e3a:	2a38      	cmp	r2, #56	; 0x38
    6e3c:	dd06      	ble.n	6e4c <__aeabi_dmul+0x440>
    6e3e:	9b01      	ldr	r3, [sp, #4]
    6e40:	2400      	movs	r4, #0
    6e42:	401d      	ands	r5, r3
    6e44:	2300      	movs	r3, #0
    6e46:	2200      	movs	r2, #0
    6e48:	4699      	mov	r9, r3
    6e4a:	e646      	b.n	6ada <__aeabi_dmul+0xce>
    6e4c:	2a1f      	cmp	r2, #31
    6e4e:	dc21      	bgt.n	6e94 <__aeabi_dmul+0x488>
    6e50:	2520      	movs	r5, #32
    6e52:	0020      	movs	r0, r4
    6e54:	1aad      	subs	r5, r5, r2
    6e56:	001e      	movs	r6, r3
    6e58:	40ab      	lsls	r3, r5
    6e5a:	40a8      	lsls	r0, r5
    6e5c:	40d6      	lsrs	r6, r2
    6e5e:	1e5d      	subs	r5, r3, #1
    6e60:	41ab      	sbcs	r3, r5
    6e62:	4330      	orrs	r0, r6
    6e64:	4318      	orrs	r0, r3
    6e66:	40d4      	lsrs	r4, r2
    6e68:	0743      	lsls	r3, r0, #29
    6e6a:	d009      	beq.n	6e80 <__aeabi_dmul+0x474>
    6e6c:	230f      	movs	r3, #15
    6e6e:	4003      	ands	r3, r0
    6e70:	2b04      	cmp	r3, #4
    6e72:	d005      	beq.n	6e80 <__aeabi_dmul+0x474>
    6e74:	0003      	movs	r3, r0
    6e76:	1d18      	adds	r0, r3, #4
    6e78:	4298      	cmp	r0, r3
    6e7a:	419b      	sbcs	r3, r3
    6e7c:	425b      	negs	r3, r3
    6e7e:	18e4      	adds	r4, r4, r3
    6e80:	0223      	lsls	r3, r4, #8
    6e82:	d521      	bpl.n	6ec8 <__aeabi_dmul+0x4bc>
    6e84:	2501      	movs	r5, #1
    6e86:	9b01      	ldr	r3, [sp, #4]
    6e88:	2401      	movs	r4, #1
    6e8a:	401d      	ands	r5, r3
    6e8c:	2300      	movs	r3, #0
    6e8e:	2200      	movs	r2, #0
    6e90:	4699      	mov	r9, r3
    6e92:	e622      	b.n	6ada <__aeabi_dmul+0xce>
    6e94:	251f      	movs	r5, #31
    6e96:	0021      	movs	r1, r4
    6e98:	426d      	negs	r5, r5
    6e9a:	1a28      	subs	r0, r5, r0
    6e9c:	40c1      	lsrs	r1, r0
    6e9e:	0008      	movs	r0, r1
    6ea0:	2a20      	cmp	r2, #32
    6ea2:	d01d      	beq.n	6ee0 <__aeabi_dmul+0x4d4>
    6ea4:	355f      	adds	r5, #95	; 0x5f
    6ea6:	1aaa      	subs	r2, r5, r2
    6ea8:	4094      	lsls	r4, r2
    6eaa:	4323      	orrs	r3, r4
    6eac:	1e5c      	subs	r4, r3, #1
    6eae:	41a3      	sbcs	r3, r4
    6eb0:	2507      	movs	r5, #7
    6eb2:	4303      	orrs	r3, r0
    6eb4:	401d      	ands	r5, r3
    6eb6:	2200      	movs	r2, #0
    6eb8:	2d00      	cmp	r5, #0
    6eba:	d009      	beq.n	6ed0 <__aeabi_dmul+0x4c4>
    6ebc:	220f      	movs	r2, #15
    6ebe:	2400      	movs	r4, #0
    6ec0:	401a      	ands	r2, r3
    6ec2:	0018      	movs	r0, r3
    6ec4:	2a04      	cmp	r2, #4
    6ec6:	d1d6      	bne.n	6e76 <__aeabi_dmul+0x46a>
    6ec8:	0003      	movs	r3, r0
    6eca:	0765      	lsls	r5, r4, #29
    6ecc:	0264      	lsls	r4, r4, #9
    6ece:	0b22      	lsrs	r2, r4, #12
    6ed0:	08db      	lsrs	r3, r3, #3
    6ed2:	432b      	orrs	r3, r5
    6ed4:	2501      	movs	r5, #1
    6ed6:	4699      	mov	r9, r3
    6ed8:	9b01      	ldr	r3, [sp, #4]
    6eda:	2400      	movs	r4, #0
    6edc:	401d      	ands	r5, r3
    6ede:	e5fc      	b.n	6ada <__aeabi_dmul+0xce>
    6ee0:	2400      	movs	r4, #0
    6ee2:	e7e2      	b.n	6eaa <__aeabi_dmul+0x49e>
    6ee4:	2280      	movs	r2, #128	; 0x80
    6ee6:	2501      	movs	r5, #1
    6ee8:	0312      	lsls	r2, r2, #12
    6eea:	4322      	orrs	r2, r4
    6eec:	9901      	ldr	r1, [sp, #4]
    6eee:	0312      	lsls	r2, r2, #12
    6ef0:	0b12      	lsrs	r2, r2, #12
    6ef2:	400d      	ands	r5, r1
    6ef4:	4699      	mov	r9, r3
    6ef6:	4c04      	ldr	r4, [pc, #16]	; (6f08 <__aeabi_dmul+0x4fc>)
    6ef8:	e5ef      	b.n	6ada <__aeabi_dmul+0xce>
    6efa:	46c0      	nop			; (mov r8, r8)
    6efc:	000003ff 	.word	0x000003ff
    6f00:	feffffff 	.word	0xfeffffff
    6f04:	000007fe 	.word	0x000007fe
    6f08:	000007ff 	.word	0x000007ff

00006f0c <__aeabi_dsub>:
    6f0c:	b5f0      	push	{r4, r5, r6, r7, lr}
    6f0e:	4646      	mov	r6, r8
    6f10:	46d6      	mov	lr, sl
    6f12:	464f      	mov	r7, r9
    6f14:	030c      	lsls	r4, r1, #12
    6f16:	b5c0      	push	{r6, r7, lr}
    6f18:	0fcd      	lsrs	r5, r1, #31
    6f1a:	004e      	lsls	r6, r1, #1
    6f1c:	0a61      	lsrs	r1, r4, #9
    6f1e:	0f44      	lsrs	r4, r0, #29
    6f20:	430c      	orrs	r4, r1
    6f22:	00c1      	lsls	r1, r0, #3
    6f24:	0058      	lsls	r0, r3, #1
    6f26:	0d40      	lsrs	r0, r0, #21
    6f28:	4684      	mov	ip, r0
    6f2a:	468a      	mov	sl, r1
    6f2c:	000f      	movs	r7, r1
    6f2e:	0319      	lsls	r1, r3, #12
    6f30:	0f50      	lsrs	r0, r2, #29
    6f32:	0a49      	lsrs	r1, r1, #9
    6f34:	4301      	orrs	r1, r0
    6f36:	48c6      	ldr	r0, [pc, #792]	; (7250 <__aeabi_dsub+0x344>)
    6f38:	0d76      	lsrs	r6, r6, #21
    6f3a:	46a8      	mov	r8, r5
    6f3c:	0fdb      	lsrs	r3, r3, #31
    6f3e:	00d2      	lsls	r2, r2, #3
    6f40:	4584      	cmp	ip, r0
    6f42:	d100      	bne.n	6f46 <__aeabi_dsub+0x3a>
    6f44:	e0d8      	b.n	70f8 <__aeabi_dsub+0x1ec>
    6f46:	2001      	movs	r0, #1
    6f48:	4043      	eors	r3, r0
    6f4a:	42ab      	cmp	r3, r5
    6f4c:	d100      	bne.n	6f50 <__aeabi_dsub+0x44>
    6f4e:	e0a6      	b.n	709e <__aeabi_dsub+0x192>
    6f50:	4660      	mov	r0, ip
    6f52:	1a35      	subs	r5, r6, r0
    6f54:	2d00      	cmp	r5, #0
    6f56:	dc00      	bgt.n	6f5a <__aeabi_dsub+0x4e>
    6f58:	e105      	b.n	7166 <__aeabi_dsub+0x25a>
    6f5a:	2800      	cmp	r0, #0
    6f5c:	d110      	bne.n	6f80 <__aeabi_dsub+0x74>
    6f5e:	000b      	movs	r3, r1
    6f60:	4313      	orrs	r3, r2
    6f62:	d100      	bne.n	6f66 <__aeabi_dsub+0x5a>
    6f64:	e0d7      	b.n	7116 <__aeabi_dsub+0x20a>
    6f66:	1e6b      	subs	r3, r5, #1
    6f68:	2b00      	cmp	r3, #0
    6f6a:	d000      	beq.n	6f6e <__aeabi_dsub+0x62>
    6f6c:	e14b      	b.n	7206 <__aeabi_dsub+0x2fa>
    6f6e:	4653      	mov	r3, sl
    6f70:	1a9f      	subs	r7, r3, r2
    6f72:	45ba      	cmp	sl, r7
    6f74:	4180      	sbcs	r0, r0
    6f76:	1a64      	subs	r4, r4, r1
    6f78:	4240      	negs	r0, r0
    6f7a:	1a24      	subs	r4, r4, r0
    6f7c:	2601      	movs	r6, #1
    6f7e:	e01e      	b.n	6fbe <__aeabi_dsub+0xb2>
    6f80:	4bb3      	ldr	r3, [pc, #716]	; (7250 <__aeabi_dsub+0x344>)
    6f82:	429e      	cmp	r6, r3
    6f84:	d048      	beq.n	7018 <__aeabi_dsub+0x10c>
    6f86:	2380      	movs	r3, #128	; 0x80
    6f88:	041b      	lsls	r3, r3, #16
    6f8a:	4319      	orrs	r1, r3
    6f8c:	2d38      	cmp	r5, #56	; 0x38
    6f8e:	dd00      	ble.n	6f92 <__aeabi_dsub+0x86>
    6f90:	e119      	b.n	71c6 <__aeabi_dsub+0x2ba>
    6f92:	2d1f      	cmp	r5, #31
    6f94:	dd00      	ble.n	6f98 <__aeabi_dsub+0x8c>
    6f96:	e14c      	b.n	7232 <__aeabi_dsub+0x326>
    6f98:	2320      	movs	r3, #32
    6f9a:	000f      	movs	r7, r1
    6f9c:	1b5b      	subs	r3, r3, r5
    6f9e:	0010      	movs	r0, r2
    6fa0:	409a      	lsls	r2, r3
    6fa2:	409f      	lsls	r7, r3
    6fa4:	40e8      	lsrs	r0, r5
    6fa6:	1e53      	subs	r3, r2, #1
    6fa8:	419a      	sbcs	r2, r3
    6faa:	40e9      	lsrs	r1, r5
    6fac:	4307      	orrs	r7, r0
    6fae:	4317      	orrs	r7, r2
    6fb0:	4653      	mov	r3, sl
    6fb2:	1bdf      	subs	r7, r3, r7
    6fb4:	1a61      	subs	r1, r4, r1
    6fb6:	45ba      	cmp	sl, r7
    6fb8:	41a4      	sbcs	r4, r4
    6fba:	4264      	negs	r4, r4
    6fbc:	1b0c      	subs	r4, r1, r4
    6fbe:	0223      	lsls	r3, r4, #8
    6fc0:	d400      	bmi.n	6fc4 <__aeabi_dsub+0xb8>
    6fc2:	e0c5      	b.n	7150 <__aeabi_dsub+0x244>
    6fc4:	0264      	lsls	r4, r4, #9
    6fc6:	0a65      	lsrs	r5, r4, #9
    6fc8:	2d00      	cmp	r5, #0
    6fca:	d100      	bne.n	6fce <__aeabi_dsub+0xc2>
    6fcc:	e0f6      	b.n	71bc <__aeabi_dsub+0x2b0>
    6fce:	0028      	movs	r0, r5
    6fd0:	f000 fc5c 	bl	788c <__clzsi2>
    6fd4:	0003      	movs	r3, r0
    6fd6:	3b08      	subs	r3, #8
    6fd8:	2b1f      	cmp	r3, #31
    6fda:	dd00      	ble.n	6fde <__aeabi_dsub+0xd2>
    6fdc:	e0e9      	b.n	71b2 <__aeabi_dsub+0x2a6>
    6fde:	2220      	movs	r2, #32
    6fe0:	003c      	movs	r4, r7
    6fe2:	1ad2      	subs	r2, r2, r3
    6fe4:	409d      	lsls	r5, r3
    6fe6:	40d4      	lsrs	r4, r2
    6fe8:	409f      	lsls	r7, r3
    6fea:	4325      	orrs	r5, r4
    6fec:	429e      	cmp	r6, r3
    6fee:	dd00      	ble.n	6ff2 <__aeabi_dsub+0xe6>
    6ff0:	e0db      	b.n	71aa <__aeabi_dsub+0x29e>
    6ff2:	1b9e      	subs	r6, r3, r6
    6ff4:	1c73      	adds	r3, r6, #1
    6ff6:	2b1f      	cmp	r3, #31
    6ff8:	dd00      	ble.n	6ffc <__aeabi_dsub+0xf0>
    6ffa:	e10a      	b.n	7212 <__aeabi_dsub+0x306>
    6ffc:	2220      	movs	r2, #32
    6ffe:	0038      	movs	r0, r7
    7000:	1ad2      	subs	r2, r2, r3
    7002:	0029      	movs	r1, r5
    7004:	4097      	lsls	r7, r2
    7006:	002c      	movs	r4, r5
    7008:	4091      	lsls	r1, r2
    700a:	40d8      	lsrs	r0, r3
    700c:	1e7a      	subs	r2, r7, #1
    700e:	4197      	sbcs	r7, r2
    7010:	40dc      	lsrs	r4, r3
    7012:	2600      	movs	r6, #0
    7014:	4301      	orrs	r1, r0
    7016:	430f      	orrs	r7, r1
    7018:	077b      	lsls	r3, r7, #29
    701a:	d009      	beq.n	7030 <__aeabi_dsub+0x124>
    701c:	230f      	movs	r3, #15
    701e:	403b      	ands	r3, r7
    7020:	2b04      	cmp	r3, #4
    7022:	d005      	beq.n	7030 <__aeabi_dsub+0x124>
    7024:	1d3b      	adds	r3, r7, #4
    7026:	42bb      	cmp	r3, r7
    7028:	41bf      	sbcs	r7, r7
    702a:	427f      	negs	r7, r7
    702c:	19e4      	adds	r4, r4, r7
    702e:	001f      	movs	r7, r3
    7030:	0223      	lsls	r3, r4, #8
    7032:	d525      	bpl.n	7080 <__aeabi_dsub+0x174>
    7034:	4b86      	ldr	r3, [pc, #536]	; (7250 <__aeabi_dsub+0x344>)
    7036:	3601      	adds	r6, #1
    7038:	429e      	cmp	r6, r3
    703a:	d100      	bne.n	703e <__aeabi_dsub+0x132>
    703c:	e0af      	b.n	719e <__aeabi_dsub+0x292>
    703e:	4b85      	ldr	r3, [pc, #532]	; (7254 <__aeabi_dsub+0x348>)
    7040:	2501      	movs	r5, #1
    7042:	401c      	ands	r4, r3
    7044:	4643      	mov	r3, r8
    7046:	0762      	lsls	r2, r4, #29
    7048:	08ff      	lsrs	r7, r7, #3
    704a:	0264      	lsls	r4, r4, #9
    704c:	0576      	lsls	r6, r6, #21
    704e:	4317      	orrs	r7, r2
    7050:	0b24      	lsrs	r4, r4, #12
    7052:	0d76      	lsrs	r6, r6, #21
    7054:	401d      	ands	r5, r3
    7056:	2100      	movs	r1, #0
    7058:	0324      	lsls	r4, r4, #12
    705a:	0b23      	lsrs	r3, r4, #12
    705c:	0d0c      	lsrs	r4, r1, #20
    705e:	4a7e      	ldr	r2, [pc, #504]	; (7258 <__aeabi_dsub+0x34c>)
    7060:	0524      	lsls	r4, r4, #20
    7062:	431c      	orrs	r4, r3
    7064:	4014      	ands	r4, r2
    7066:	0533      	lsls	r3, r6, #20
    7068:	4323      	orrs	r3, r4
    706a:	005b      	lsls	r3, r3, #1
    706c:	07ed      	lsls	r5, r5, #31
    706e:	085b      	lsrs	r3, r3, #1
    7070:	432b      	orrs	r3, r5
    7072:	0038      	movs	r0, r7
    7074:	0019      	movs	r1, r3
    7076:	bc1c      	pop	{r2, r3, r4}
    7078:	4690      	mov	r8, r2
    707a:	4699      	mov	r9, r3
    707c:	46a2      	mov	sl, r4
    707e:	bdf0      	pop	{r4, r5, r6, r7, pc}
    7080:	2501      	movs	r5, #1
    7082:	4643      	mov	r3, r8
    7084:	0762      	lsls	r2, r4, #29
    7086:	08ff      	lsrs	r7, r7, #3
    7088:	4317      	orrs	r7, r2
    708a:	08e4      	lsrs	r4, r4, #3
    708c:	401d      	ands	r5, r3
    708e:	4b70      	ldr	r3, [pc, #448]	; (7250 <__aeabi_dsub+0x344>)
    7090:	429e      	cmp	r6, r3
    7092:	d036      	beq.n	7102 <__aeabi_dsub+0x1f6>
    7094:	0324      	lsls	r4, r4, #12
    7096:	0576      	lsls	r6, r6, #21
    7098:	0b24      	lsrs	r4, r4, #12
    709a:	0d76      	lsrs	r6, r6, #21
    709c:	e7db      	b.n	7056 <__aeabi_dsub+0x14a>
    709e:	4663      	mov	r3, ip
    70a0:	1af3      	subs	r3, r6, r3
    70a2:	2b00      	cmp	r3, #0
    70a4:	dc00      	bgt.n	70a8 <__aeabi_dsub+0x19c>
    70a6:	e094      	b.n	71d2 <__aeabi_dsub+0x2c6>
    70a8:	4660      	mov	r0, ip
    70aa:	2800      	cmp	r0, #0
    70ac:	d035      	beq.n	711a <__aeabi_dsub+0x20e>
    70ae:	4868      	ldr	r0, [pc, #416]	; (7250 <__aeabi_dsub+0x344>)
    70b0:	4286      	cmp	r6, r0
    70b2:	d0b1      	beq.n	7018 <__aeabi_dsub+0x10c>
    70b4:	2780      	movs	r7, #128	; 0x80
    70b6:	043f      	lsls	r7, r7, #16
    70b8:	4339      	orrs	r1, r7
    70ba:	2b38      	cmp	r3, #56	; 0x38
    70bc:	dc00      	bgt.n	70c0 <__aeabi_dsub+0x1b4>
    70be:	e0fd      	b.n	72bc <__aeabi_dsub+0x3b0>
    70c0:	430a      	orrs	r2, r1
    70c2:	0017      	movs	r7, r2
    70c4:	2100      	movs	r1, #0
    70c6:	1e7a      	subs	r2, r7, #1
    70c8:	4197      	sbcs	r7, r2
    70ca:	4457      	add	r7, sl
    70cc:	4557      	cmp	r7, sl
    70ce:	4180      	sbcs	r0, r0
    70d0:	1909      	adds	r1, r1, r4
    70d2:	4244      	negs	r4, r0
    70d4:	190c      	adds	r4, r1, r4
    70d6:	0223      	lsls	r3, r4, #8
    70d8:	d53a      	bpl.n	7150 <__aeabi_dsub+0x244>
    70da:	4b5d      	ldr	r3, [pc, #372]	; (7250 <__aeabi_dsub+0x344>)
    70dc:	3601      	adds	r6, #1
    70de:	429e      	cmp	r6, r3
    70e0:	d100      	bne.n	70e4 <__aeabi_dsub+0x1d8>
    70e2:	e14b      	b.n	737c <__aeabi_dsub+0x470>
    70e4:	2201      	movs	r2, #1
    70e6:	4b5b      	ldr	r3, [pc, #364]	; (7254 <__aeabi_dsub+0x348>)
    70e8:	401c      	ands	r4, r3
    70ea:	087b      	lsrs	r3, r7, #1
    70ec:	4017      	ands	r7, r2
    70ee:	431f      	orrs	r7, r3
    70f0:	07e2      	lsls	r2, r4, #31
    70f2:	4317      	orrs	r7, r2
    70f4:	0864      	lsrs	r4, r4, #1
    70f6:	e78f      	b.n	7018 <__aeabi_dsub+0x10c>
    70f8:	0008      	movs	r0, r1
    70fa:	4310      	orrs	r0, r2
    70fc:	d000      	beq.n	7100 <__aeabi_dsub+0x1f4>
    70fe:	e724      	b.n	6f4a <__aeabi_dsub+0x3e>
    7100:	e721      	b.n	6f46 <__aeabi_dsub+0x3a>
    7102:	0023      	movs	r3, r4
    7104:	433b      	orrs	r3, r7
    7106:	d100      	bne.n	710a <__aeabi_dsub+0x1fe>
    7108:	e1b9      	b.n	747e <__aeabi_dsub+0x572>
    710a:	2280      	movs	r2, #128	; 0x80
    710c:	0312      	lsls	r2, r2, #12
    710e:	4314      	orrs	r4, r2
    7110:	0324      	lsls	r4, r4, #12
    7112:	0b24      	lsrs	r4, r4, #12
    7114:	e79f      	b.n	7056 <__aeabi_dsub+0x14a>
    7116:	002e      	movs	r6, r5
    7118:	e77e      	b.n	7018 <__aeabi_dsub+0x10c>
    711a:	0008      	movs	r0, r1
    711c:	4310      	orrs	r0, r2
    711e:	d100      	bne.n	7122 <__aeabi_dsub+0x216>
    7120:	e0ca      	b.n	72b8 <__aeabi_dsub+0x3ac>
    7122:	1e58      	subs	r0, r3, #1
    7124:	4684      	mov	ip, r0
    7126:	2800      	cmp	r0, #0
    7128:	d000      	beq.n	712c <__aeabi_dsub+0x220>
    712a:	e0e7      	b.n	72fc <__aeabi_dsub+0x3f0>
    712c:	4452      	add	r2, sl
    712e:	4552      	cmp	r2, sl
    7130:	4180      	sbcs	r0, r0
    7132:	1864      	adds	r4, r4, r1
    7134:	4240      	negs	r0, r0
    7136:	1824      	adds	r4, r4, r0
    7138:	0017      	movs	r7, r2
    713a:	2601      	movs	r6, #1
    713c:	0223      	lsls	r3, r4, #8
    713e:	d507      	bpl.n	7150 <__aeabi_dsub+0x244>
    7140:	2602      	movs	r6, #2
    7142:	e7cf      	b.n	70e4 <__aeabi_dsub+0x1d8>
    7144:	4664      	mov	r4, ip
    7146:	432c      	orrs	r4, r5
    7148:	d100      	bne.n	714c <__aeabi_dsub+0x240>
    714a:	e1b3      	b.n	74b4 <__aeabi_dsub+0x5a8>
    714c:	002c      	movs	r4, r5
    714e:	4667      	mov	r7, ip
    7150:	077b      	lsls	r3, r7, #29
    7152:	d000      	beq.n	7156 <__aeabi_dsub+0x24a>
    7154:	e762      	b.n	701c <__aeabi_dsub+0x110>
    7156:	0763      	lsls	r3, r4, #29
    7158:	08ff      	lsrs	r7, r7, #3
    715a:	431f      	orrs	r7, r3
    715c:	2501      	movs	r5, #1
    715e:	4643      	mov	r3, r8
    7160:	08e4      	lsrs	r4, r4, #3
    7162:	401d      	ands	r5, r3
    7164:	e793      	b.n	708e <__aeabi_dsub+0x182>
    7166:	2d00      	cmp	r5, #0
    7168:	d178      	bne.n	725c <__aeabi_dsub+0x350>
    716a:	1c75      	adds	r5, r6, #1
    716c:	056d      	lsls	r5, r5, #21
    716e:	0d6d      	lsrs	r5, r5, #21
    7170:	2d01      	cmp	r5, #1
    7172:	dc00      	bgt.n	7176 <__aeabi_dsub+0x26a>
    7174:	e0f2      	b.n	735c <__aeabi_dsub+0x450>
    7176:	4650      	mov	r0, sl
    7178:	1a80      	subs	r0, r0, r2
    717a:	4582      	cmp	sl, r0
    717c:	41bf      	sbcs	r7, r7
    717e:	1a65      	subs	r5, r4, r1
    7180:	427f      	negs	r7, r7
    7182:	1bed      	subs	r5, r5, r7
    7184:	4684      	mov	ip, r0
    7186:	0228      	lsls	r0, r5, #8
    7188:	d400      	bmi.n	718c <__aeabi_dsub+0x280>
    718a:	e08c      	b.n	72a6 <__aeabi_dsub+0x39a>
    718c:	4650      	mov	r0, sl
    718e:	1a17      	subs	r7, r2, r0
    7190:	42ba      	cmp	r2, r7
    7192:	4192      	sbcs	r2, r2
    7194:	1b0c      	subs	r4, r1, r4
    7196:	4255      	negs	r5, r2
    7198:	1b65      	subs	r5, r4, r5
    719a:	4698      	mov	r8, r3
    719c:	e714      	b.n	6fc8 <__aeabi_dsub+0xbc>
    719e:	2501      	movs	r5, #1
    71a0:	4643      	mov	r3, r8
    71a2:	2400      	movs	r4, #0
    71a4:	401d      	ands	r5, r3
    71a6:	2700      	movs	r7, #0
    71a8:	e755      	b.n	7056 <__aeabi_dsub+0x14a>
    71aa:	4c2a      	ldr	r4, [pc, #168]	; (7254 <__aeabi_dsub+0x348>)
    71ac:	1af6      	subs	r6, r6, r3
    71ae:	402c      	ands	r4, r5
    71b0:	e732      	b.n	7018 <__aeabi_dsub+0x10c>
    71b2:	003d      	movs	r5, r7
    71b4:	3828      	subs	r0, #40	; 0x28
    71b6:	4085      	lsls	r5, r0
    71b8:	2700      	movs	r7, #0
    71ba:	e717      	b.n	6fec <__aeabi_dsub+0xe0>
    71bc:	0038      	movs	r0, r7
    71be:	f000 fb65 	bl	788c <__clzsi2>
    71c2:	3020      	adds	r0, #32
    71c4:	e706      	b.n	6fd4 <__aeabi_dsub+0xc8>
    71c6:	430a      	orrs	r2, r1
    71c8:	0017      	movs	r7, r2
    71ca:	2100      	movs	r1, #0
    71cc:	1e7a      	subs	r2, r7, #1
    71ce:	4197      	sbcs	r7, r2
    71d0:	e6ee      	b.n	6fb0 <__aeabi_dsub+0xa4>
    71d2:	2b00      	cmp	r3, #0
    71d4:	d000      	beq.n	71d8 <__aeabi_dsub+0x2cc>
    71d6:	e0e5      	b.n	73a4 <__aeabi_dsub+0x498>
    71d8:	1c73      	adds	r3, r6, #1
    71da:	469c      	mov	ip, r3
    71dc:	055b      	lsls	r3, r3, #21
    71de:	0d5b      	lsrs	r3, r3, #21
    71e0:	2b01      	cmp	r3, #1
    71e2:	dc00      	bgt.n	71e6 <__aeabi_dsub+0x2da>
    71e4:	e09f      	b.n	7326 <__aeabi_dsub+0x41a>
    71e6:	4b1a      	ldr	r3, [pc, #104]	; (7250 <__aeabi_dsub+0x344>)
    71e8:	459c      	cmp	ip, r3
    71ea:	d100      	bne.n	71ee <__aeabi_dsub+0x2e2>
    71ec:	e0c5      	b.n	737a <__aeabi_dsub+0x46e>
    71ee:	4452      	add	r2, sl
    71f0:	4552      	cmp	r2, sl
    71f2:	4180      	sbcs	r0, r0
    71f4:	1864      	adds	r4, r4, r1
    71f6:	4240      	negs	r0, r0
    71f8:	1824      	adds	r4, r4, r0
    71fa:	07e7      	lsls	r7, r4, #31
    71fc:	0852      	lsrs	r2, r2, #1
    71fe:	4317      	orrs	r7, r2
    7200:	0864      	lsrs	r4, r4, #1
    7202:	4666      	mov	r6, ip
    7204:	e708      	b.n	7018 <__aeabi_dsub+0x10c>
    7206:	4812      	ldr	r0, [pc, #72]	; (7250 <__aeabi_dsub+0x344>)
    7208:	4285      	cmp	r5, r0
    720a:	d100      	bne.n	720e <__aeabi_dsub+0x302>
    720c:	e085      	b.n	731a <__aeabi_dsub+0x40e>
    720e:	001d      	movs	r5, r3
    7210:	e6bc      	b.n	6f8c <__aeabi_dsub+0x80>
    7212:	0029      	movs	r1, r5
    7214:	3e1f      	subs	r6, #31
    7216:	40f1      	lsrs	r1, r6
    7218:	2b20      	cmp	r3, #32
    721a:	d100      	bne.n	721e <__aeabi_dsub+0x312>
    721c:	e07f      	b.n	731e <__aeabi_dsub+0x412>
    721e:	2240      	movs	r2, #64	; 0x40
    7220:	1ad3      	subs	r3, r2, r3
    7222:	409d      	lsls	r5, r3
    7224:	432f      	orrs	r7, r5
    7226:	1e7d      	subs	r5, r7, #1
    7228:	41af      	sbcs	r7, r5
    722a:	2400      	movs	r4, #0
    722c:	430f      	orrs	r7, r1
    722e:	2600      	movs	r6, #0
    7230:	e78e      	b.n	7150 <__aeabi_dsub+0x244>
    7232:	002b      	movs	r3, r5
    7234:	000f      	movs	r7, r1
    7236:	3b20      	subs	r3, #32
    7238:	40df      	lsrs	r7, r3
    723a:	2d20      	cmp	r5, #32
    723c:	d071      	beq.n	7322 <__aeabi_dsub+0x416>
    723e:	2340      	movs	r3, #64	; 0x40
    7240:	1b5d      	subs	r5, r3, r5
    7242:	40a9      	lsls	r1, r5
    7244:	430a      	orrs	r2, r1
    7246:	1e51      	subs	r1, r2, #1
    7248:	418a      	sbcs	r2, r1
    724a:	2100      	movs	r1, #0
    724c:	4317      	orrs	r7, r2
    724e:	e6af      	b.n	6fb0 <__aeabi_dsub+0xa4>
    7250:	000007ff 	.word	0x000007ff
    7254:	ff7fffff 	.word	0xff7fffff
    7258:	800fffff 	.word	0x800fffff
    725c:	2e00      	cmp	r6, #0
    725e:	d03e      	beq.n	72de <__aeabi_dsub+0x3d2>
    7260:	4eb3      	ldr	r6, [pc, #716]	; (7530 <__aeabi_dsub+0x624>)
    7262:	45b4      	cmp	ip, r6
    7264:	d045      	beq.n	72f2 <__aeabi_dsub+0x3e6>
    7266:	2680      	movs	r6, #128	; 0x80
    7268:	0436      	lsls	r6, r6, #16
    726a:	426d      	negs	r5, r5
    726c:	4334      	orrs	r4, r6
    726e:	2d38      	cmp	r5, #56	; 0x38
    7270:	dd00      	ble.n	7274 <__aeabi_dsub+0x368>
    7272:	e0a8      	b.n	73c6 <__aeabi_dsub+0x4ba>
    7274:	2d1f      	cmp	r5, #31
    7276:	dd00      	ble.n	727a <__aeabi_dsub+0x36e>
    7278:	e11f      	b.n	74ba <__aeabi_dsub+0x5ae>
    727a:	2620      	movs	r6, #32
    727c:	0027      	movs	r7, r4
    727e:	4650      	mov	r0, sl
    7280:	1b76      	subs	r6, r6, r5
    7282:	40b7      	lsls	r7, r6
    7284:	40e8      	lsrs	r0, r5
    7286:	4307      	orrs	r7, r0
    7288:	4650      	mov	r0, sl
    728a:	40b0      	lsls	r0, r6
    728c:	1e46      	subs	r6, r0, #1
    728e:	41b0      	sbcs	r0, r6
    7290:	40ec      	lsrs	r4, r5
    7292:	4338      	orrs	r0, r7
    7294:	1a17      	subs	r7, r2, r0
    7296:	42ba      	cmp	r2, r7
    7298:	4192      	sbcs	r2, r2
    729a:	1b0c      	subs	r4, r1, r4
    729c:	4252      	negs	r2, r2
    729e:	1aa4      	subs	r4, r4, r2
    72a0:	4666      	mov	r6, ip
    72a2:	4698      	mov	r8, r3
    72a4:	e68b      	b.n	6fbe <__aeabi_dsub+0xb2>
    72a6:	4664      	mov	r4, ip
    72a8:	4667      	mov	r7, ip
    72aa:	432c      	orrs	r4, r5
    72ac:	d000      	beq.n	72b0 <__aeabi_dsub+0x3a4>
    72ae:	e68b      	b.n	6fc8 <__aeabi_dsub+0xbc>
    72b0:	2500      	movs	r5, #0
    72b2:	2600      	movs	r6, #0
    72b4:	2700      	movs	r7, #0
    72b6:	e6ea      	b.n	708e <__aeabi_dsub+0x182>
    72b8:	001e      	movs	r6, r3
    72ba:	e6ad      	b.n	7018 <__aeabi_dsub+0x10c>
    72bc:	2b1f      	cmp	r3, #31
    72be:	dc60      	bgt.n	7382 <__aeabi_dsub+0x476>
    72c0:	2720      	movs	r7, #32
    72c2:	1af8      	subs	r0, r7, r3
    72c4:	000f      	movs	r7, r1
    72c6:	4684      	mov	ip, r0
    72c8:	4087      	lsls	r7, r0
    72ca:	0010      	movs	r0, r2
    72cc:	40d8      	lsrs	r0, r3
    72ce:	4307      	orrs	r7, r0
    72d0:	4660      	mov	r0, ip
    72d2:	4082      	lsls	r2, r0
    72d4:	1e50      	subs	r0, r2, #1
    72d6:	4182      	sbcs	r2, r0
    72d8:	40d9      	lsrs	r1, r3
    72da:	4317      	orrs	r7, r2
    72dc:	e6f5      	b.n	70ca <__aeabi_dsub+0x1be>
    72de:	0026      	movs	r6, r4
    72e0:	4650      	mov	r0, sl
    72e2:	4306      	orrs	r6, r0
    72e4:	d005      	beq.n	72f2 <__aeabi_dsub+0x3e6>
    72e6:	43ed      	mvns	r5, r5
    72e8:	2d00      	cmp	r5, #0
    72ea:	d0d3      	beq.n	7294 <__aeabi_dsub+0x388>
    72ec:	4e90      	ldr	r6, [pc, #576]	; (7530 <__aeabi_dsub+0x624>)
    72ee:	45b4      	cmp	ip, r6
    72f0:	d1bd      	bne.n	726e <__aeabi_dsub+0x362>
    72f2:	000c      	movs	r4, r1
    72f4:	0017      	movs	r7, r2
    72f6:	4666      	mov	r6, ip
    72f8:	4698      	mov	r8, r3
    72fa:	e68d      	b.n	7018 <__aeabi_dsub+0x10c>
    72fc:	488c      	ldr	r0, [pc, #560]	; (7530 <__aeabi_dsub+0x624>)
    72fe:	4283      	cmp	r3, r0
    7300:	d00b      	beq.n	731a <__aeabi_dsub+0x40e>
    7302:	4663      	mov	r3, ip
    7304:	e6d9      	b.n	70ba <__aeabi_dsub+0x1ae>
    7306:	2d00      	cmp	r5, #0
    7308:	d000      	beq.n	730c <__aeabi_dsub+0x400>
    730a:	e096      	b.n	743a <__aeabi_dsub+0x52e>
    730c:	0008      	movs	r0, r1
    730e:	4310      	orrs	r0, r2
    7310:	d100      	bne.n	7314 <__aeabi_dsub+0x408>
    7312:	e0e2      	b.n	74da <__aeabi_dsub+0x5ce>
    7314:	000c      	movs	r4, r1
    7316:	0017      	movs	r7, r2
    7318:	4698      	mov	r8, r3
    731a:	4e85      	ldr	r6, [pc, #532]	; (7530 <__aeabi_dsub+0x624>)
    731c:	e67c      	b.n	7018 <__aeabi_dsub+0x10c>
    731e:	2500      	movs	r5, #0
    7320:	e780      	b.n	7224 <__aeabi_dsub+0x318>
    7322:	2100      	movs	r1, #0
    7324:	e78e      	b.n	7244 <__aeabi_dsub+0x338>
    7326:	0023      	movs	r3, r4
    7328:	4650      	mov	r0, sl
    732a:	4303      	orrs	r3, r0
    732c:	2e00      	cmp	r6, #0
    732e:	d000      	beq.n	7332 <__aeabi_dsub+0x426>
    7330:	e0a8      	b.n	7484 <__aeabi_dsub+0x578>
    7332:	2b00      	cmp	r3, #0
    7334:	d100      	bne.n	7338 <__aeabi_dsub+0x42c>
    7336:	e0de      	b.n	74f6 <__aeabi_dsub+0x5ea>
    7338:	000b      	movs	r3, r1
    733a:	4313      	orrs	r3, r2
    733c:	d100      	bne.n	7340 <__aeabi_dsub+0x434>
    733e:	e66b      	b.n	7018 <__aeabi_dsub+0x10c>
    7340:	4452      	add	r2, sl
    7342:	4552      	cmp	r2, sl
    7344:	4180      	sbcs	r0, r0
    7346:	1864      	adds	r4, r4, r1
    7348:	4240      	negs	r0, r0
    734a:	1824      	adds	r4, r4, r0
    734c:	0017      	movs	r7, r2
    734e:	0223      	lsls	r3, r4, #8
    7350:	d400      	bmi.n	7354 <__aeabi_dsub+0x448>
    7352:	e6fd      	b.n	7150 <__aeabi_dsub+0x244>
    7354:	4b77      	ldr	r3, [pc, #476]	; (7534 <__aeabi_dsub+0x628>)
    7356:	4666      	mov	r6, ip
    7358:	401c      	ands	r4, r3
    735a:	e65d      	b.n	7018 <__aeabi_dsub+0x10c>
    735c:	0025      	movs	r5, r4
    735e:	4650      	mov	r0, sl
    7360:	4305      	orrs	r5, r0
    7362:	2e00      	cmp	r6, #0
    7364:	d1cf      	bne.n	7306 <__aeabi_dsub+0x3fa>
    7366:	2d00      	cmp	r5, #0
    7368:	d14f      	bne.n	740a <__aeabi_dsub+0x4fe>
    736a:	000c      	movs	r4, r1
    736c:	4314      	orrs	r4, r2
    736e:	d100      	bne.n	7372 <__aeabi_dsub+0x466>
    7370:	e0a0      	b.n	74b4 <__aeabi_dsub+0x5a8>
    7372:	000c      	movs	r4, r1
    7374:	0017      	movs	r7, r2
    7376:	4698      	mov	r8, r3
    7378:	e64e      	b.n	7018 <__aeabi_dsub+0x10c>
    737a:	4666      	mov	r6, ip
    737c:	2400      	movs	r4, #0
    737e:	2700      	movs	r7, #0
    7380:	e685      	b.n	708e <__aeabi_dsub+0x182>
    7382:	001f      	movs	r7, r3
    7384:	0008      	movs	r0, r1
    7386:	3f20      	subs	r7, #32
    7388:	40f8      	lsrs	r0, r7
    738a:	0007      	movs	r7, r0
    738c:	2b20      	cmp	r3, #32
    738e:	d100      	bne.n	7392 <__aeabi_dsub+0x486>
    7390:	e08e      	b.n	74b0 <__aeabi_dsub+0x5a4>
    7392:	2040      	movs	r0, #64	; 0x40
    7394:	1ac3      	subs	r3, r0, r3
    7396:	4099      	lsls	r1, r3
    7398:	430a      	orrs	r2, r1
    739a:	1e51      	subs	r1, r2, #1
    739c:	418a      	sbcs	r2, r1
    739e:	2100      	movs	r1, #0
    73a0:	4317      	orrs	r7, r2
    73a2:	e692      	b.n	70ca <__aeabi_dsub+0x1be>
    73a4:	2e00      	cmp	r6, #0
    73a6:	d114      	bne.n	73d2 <__aeabi_dsub+0x4c6>
    73a8:	0026      	movs	r6, r4
    73aa:	4650      	mov	r0, sl
    73ac:	4306      	orrs	r6, r0
    73ae:	d062      	beq.n	7476 <__aeabi_dsub+0x56a>
    73b0:	43db      	mvns	r3, r3
    73b2:	2b00      	cmp	r3, #0
    73b4:	d15c      	bne.n	7470 <__aeabi_dsub+0x564>
    73b6:	1887      	adds	r7, r0, r2
    73b8:	4297      	cmp	r7, r2
    73ba:	4192      	sbcs	r2, r2
    73bc:	1864      	adds	r4, r4, r1
    73be:	4252      	negs	r2, r2
    73c0:	18a4      	adds	r4, r4, r2
    73c2:	4666      	mov	r6, ip
    73c4:	e687      	b.n	70d6 <__aeabi_dsub+0x1ca>
    73c6:	4650      	mov	r0, sl
    73c8:	4320      	orrs	r0, r4
    73ca:	1e44      	subs	r4, r0, #1
    73cc:	41a0      	sbcs	r0, r4
    73ce:	2400      	movs	r4, #0
    73d0:	e760      	b.n	7294 <__aeabi_dsub+0x388>
    73d2:	4e57      	ldr	r6, [pc, #348]	; (7530 <__aeabi_dsub+0x624>)
    73d4:	45b4      	cmp	ip, r6
    73d6:	d04e      	beq.n	7476 <__aeabi_dsub+0x56a>
    73d8:	2680      	movs	r6, #128	; 0x80
    73da:	0436      	lsls	r6, r6, #16
    73dc:	425b      	negs	r3, r3
    73de:	4334      	orrs	r4, r6
    73e0:	2b38      	cmp	r3, #56	; 0x38
    73e2:	dd00      	ble.n	73e6 <__aeabi_dsub+0x4da>
    73e4:	e07f      	b.n	74e6 <__aeabi_dsub+0x5da>
    73e6:	2b1f      	cmp	r3, #31
    73e8:	dd00      	ble.n	73ec <__aeabi_dsub+0x4e0>
    73ea:	e08b      	b.n	7504 <__aeabi_dsub+0x5f8>
    73ec:	2620      	movs	r6, #32
    73ee:	0027      	movs	r7, r4
    73f0:	4650      	mov	r0, sl
    73f2:	1af6      	subs	r6, r6, r3
    73f4:	40b7      	lsls	r7, r6
    73f6:	40d8      	lsrs	r0, r3
    73f8:	4307      	orrs	r7, r0
    73fa:	4650      	mov	r0, sl
    73fc:	40b0      	lsls	r0, r6
    73fe:	1e46      	subs	r6, r0, #1
    7400:	41b0      	sbcs	r0, r6
    7402:	4307      	orrs	r7, r0
    7404:	40dc      	lsrs	r4, r3
    7406:	18bf      	adds	r7, r7, r2
    7408:	e7d6      	b.n	73b8 <__aeabi_dsub+0x4ac>
    740a:	000d      	movs	r5, r1
    740c:	4315      	orrs	r5, r2
    740e:	d100      	bne.n	7412 <__aeabi_dsub+0x506>
    7410:	e602      	b.n	7018 <__aeabi_dsub+0x10c>
    7412:	4650      	mov	r0, sl
    7414:	1a80      	subs	r0, r0, r2
    7416:	4582      	cmp	sl, r0
    7418:	41bf      	sbcs	r7, r7
    741a:	1a65      	subs	r5, r4, r1
    741c:	427f      	negs	r7, r7
    741e:	1bed      	subs	r5, r5, r7
    7420:	4684      	mov	ip, r0
    7422:	0228      	lsls	r0, r5, #8
    7424:	d400      	bmi.n	7428 <__aeabi_dsub+0x51c>
    7426:	e68d      	b.n	7144 <__aeabi_dsub+0x238>
    7428:	4650      	mov	r0, sl
    742a:	1a17      	subs	r7, r2, r0
    742c:	42ba      	cmp	r2, r7
    742e:	4192      	sbcs	r2, r2
    7430:	1b0c      	subs	r4, r1, r4
    7432:	4252      	negs	r2, r2
    7434:	1aa4      	subs	r4, r4, r2
    7436:	4698      	mov	r8, r3
    7438:	e5ee      	b.n	7018 <__aeabi_dsub+0x10c>
    743a:	000d      	movs	r5, r1
    743c:	4315      	orrs	r5, r2
    743e:	d100      	bne.n	7442 <__aeabi_dsub+0x536>
    7440:	e76b      	b.n	731a <__aeabi_dsub+0x40e>
    7442:	4650      	mov	r0, sl
    7444:	0767      	lsls	r7, r4, #29
    7446:	08c0      	lsrs	r0, r0, #3
    7448:	4307      	orrs	r7, r0
    744a:	2080      	movs	r0, #128	; 0x80
    744c:	08e4      	lsrs	r4, r4, #3
    744e:	0300      	lsls	r0, r0, #12
    7450:	4204      	tst	r4, r0
    7452:	d007      	beq.n	7464 <__aeabi_dsub+0x558>
    7454:	08cd      	lsrs	r5, r1, #3
    7456:	4205      	tst	r5, r0
    7458:	d104      	bne.n	7464 <__aeabi_dsub+0x558>
    745a:	002c      	movs	r4, r5
    745c:	4698      	mov	r8, r3
    745e:	08d7      	lsrs	r7, r2, #3
    7460:	0749      	lsls	r1, r1, #29
    7462:	430f      	orrs	r7, r1
    7464:	0f7b      	lsrs	r3, r7, #29
    7466:	00e4      	lsls	r4, r4, #3
    7468:	431c      	orrs	r4, r3
    746a:	00ff      	lsls	r7, r7, #3
    746c:	4e30      	ldr	r6, [pc, #192]	; (7530 <__aeabi_dsub+0x624>)
    746e:	e5d3      	b.n	7018 <__aeabi_dsub+0x10c>
    7470:	4e2f      	ldr	r6, [pc, #188]	; (7530 <__aeabi_dsub+0x624>)
    7472:	45b4      	cmp	ip, r6
    7474:	d1b4      	bne.n	73e0 <__aeabi_dsub+0x4d4>
    7476:	000c      	movs	r4, r1
    7478:	0017      	movs	r7, r2
    747a:	4666      	mov	r6, ip
    747c:	e5cc      	b.n	7018 <__aeabi_dsub+0x10c>
    747e:	2700      	movs	r7, #0
    7480:	2400      	movs	r4, #0
    7482:	e5e8      	b.n	7056 <__aeabi_dsub+0x14a>
    7484:	2b00      	cmp	r3, #0
    7486:	d039      	beq.n	74fc <__aeabi_dsub+0x5f0>
    7488:	000b      	movs	r3, r1
    748a:	4313      	orrs	r3, r2
    748c:	d100      	bne.n	7490 <__aeabi_dsub+0x584>
    748e:	e744      	b.n	731a <__aeabi_dsub+0x40e>
    7490:	08c0      	lsrs	r0, r0, #3
    7492:	0767      	lsls	r7, r4, #29
    7494:	4307      	orrs	r7, r0
    7496:	2080      	movs	r0, #128	; 0x80
    7498:	08e4      	lsrs	r4, r4, #3
    749a:	0300      	lsls	r0, r0, #12
    749c:	4204      	tst	r4, r0
    749e:	d0e1      	beq.n	7464 <__aeabi_dsub+0x558>
    74a0:	08cb      	lsrs	r3, r1, #3
    74a2:	4203      	tst	r3, r0
    74a4:	d1de      	bne.n	7464 <__aeabi_dsub+0x558>
    74a6:	08d7      	lsrs	r7, r2, #3
    74a8:	0749      	lsls	r1, r1, #29
    74aa:	430f      	orrs	r7, r1
    74ac:	001c      	movs	r4, r3
    74ae:	e7d9      	b.n	7464 <__aeabi_dsub+0x558>
    74b0:	2100      	movs	r1, #0
    74b2:	e771      	b.n	7398 <__aeabi_dsub+0x48c>
    74b4:	2500      	movs	r5, #0
    74b6:	2700      	movs	r7, #0
    74b8:	e5e9      	b.n	708e <__aeabi_dsub+0x182>
    74ba:	002e      	movs	r6, r5
    74bc:	0027      	movs	r7, r4
    74be:	3e20      	subs	r6, #32
    74c0:	40f7      	lsrs	r7, r6
    74c2:	2d20      	cmp	r5, #32
    74c4:	d02f      	beq.n	7526 <__aeabi_dsub+0x61a>
    74c6:	2640      	movs	r6, #64	; 0x40
    74c8:	1b75      	subs	r5, r6, r5
    74ca:	40ac      	lsls	r4, r5
    74cc:	4650      	mov	r0, sl
    74ce:	4320      	orrs	r0, r4
    74d0:	1e44      	subs	r4, r0, #1
    74d2:	41a0      	sbcs	r0, r4
    74d4:	2400      	movs	r4, #0
    74d6:	4338      	orrs	r0, r7
    74d8:	e6dc      	b.n	7294 <__aeabi_dsub+0x388>
    74da:	2480      	movs	r4, #128	; 0x80
    74dc:	2500      	movs	r5, #0
    74de:	0324      	lsls	r4, r4, #12
    74e0:	4e13      	ldr	r6, [pc, #76]	; (7530 <__aeabi_dsub+0x624>)
    74e2:	2700      	movs	r7, #0
    74e4:	e5d3      	b.n	708e <__aeabi_dsub+0x182>
    74e6:	4650      	mov	r0, sl
    74e8:	4320      	orrs	r0, r4
    74ea:	0007      	movs	r7, r0
    74ec:	1e78      	subs	r0, r7, #1
    74ee:	4187      	sbcs	r7, r0
    74f0:	2400      	movs	r4, #0
    74f2:	18bf      	adds	r7, r7, r2
    74f4:	e760      	b.n	73b8 <__aeabi_dsub+0x4ac>
    74f6:	000c      	movs	r4, r1
    74f8:	0017      	movs	r7, r2
    74fa:	e58d      	b.n	7018 <__aeabi_dsub+0x10c>
    74fc:	000c      	movs	r4, r1
    74fe:	0017      	movs	r7, r2
    7500:	4e0b      	ldr	r6, [pc, #44]	; (7530 <__aeabi_dsub+0x624>)
    7502:	e589      	b.n	7018 <__aeabi_dsub+0x10c>
    7504:	001e      	movs	r6, r3
    7506:	0027      	movs	r7, r4
    7508:	3e20      	subs	r6, #32
    750a:	40f7      	lsrs	r7, r6
    750c:	2b20      	cmp	r3, #32
    750e:	d00c      	beq.n	752a <__aeabi_dsub+0x61e>
    7510:	2640      	movs	r6, #64	; 0x40
    7512:	1af3      	subs	r3, r6, r3
    7514:	409c      	lsls	r4, r3
    7516:	4650      	mov	r0, sl
    7518:	4320      	orrs	r0, r4
    751a:	1e44      	subs	r4, r0, #1
    751c:	41a0      	sbcs	r0, r4
    751e:	4307      	orrs	r7, r0
    7520:	2400      	movs	r4, #0
    7522:	18bf      	adds	r7, r7, r2
    7524:	e748      	b.n	73b8 <__aeabi_dsub+0x4ac>
    7526:	2400      	movs	r4, #0
    7528:	e7d0      	b.n	74cc <__aeabi_dsub+0x5c0>
    752a:	2400      	movs	r4, #0
    752c:	e7f3      	b.n	7516 <__aeabi_dsub+0x60a>
    752e:	46c0      	nop			; (mov r8, r8)
    7530:	000007ff 	.word	0x000007ff
    7534:	ff7fffff 	.word	0xff7fffff

00007538 <__aeabi_dcmpun>:
    7538:	b570      	push	{r4, r5, r6, lr}
    753a:	4e0e      	ldr	r6, [pc, #56]	; (7574 <__aeabi_dcmpun+0x3c>)
    753c:	030d      	lsls	r5, r1, #12
    753e:	031c      	lsls	r4, r3, #12
    7540:	0049      	lsls	r1, r1, #1
    7542:	005b      	lsls	r3, r3, #1
    7544:	0b2d      	lsrs	r5, r5, #12
    7546:	0d49      	lsrs	r1, r1, #21
    7548:	0b24      	lsrs	r4, r4, #12
    754a:	0d5b      	lsrs	r3, r3, #21
    754c:	42b1      	cmp	r1, r6
    754e:	d004      	beq.n	755a <__aeabi_dcmpun+0x22>
    7550:	4908      	ldr	r1, [pc, #32]	; (7574 <__aeabi_dcmpun+0x3c>)
    7552:	2000      	movs	r0, #0
    7554:	428b      	cmp	r3, r1
    7556:	d008      	beq.n	756a <__aeabi_dcmpun+0x32>
    7558:	bd70      	pop	{r4, r5, r6, pc}
    755a:	4305      	orrs	r5, r0
    755c:	2001      	movs	r0, #1
    755e:	2d00      	cmp	r5, #0
    7560:	d1fa      	bne.n	7558 <__aeabi_dcmpun+0x20>
    7562:	4904      	ldr	r1, [pc, #16]	; (7574 <__aeabi_dcmpun+0x3c>)
    7564:	2000      	movs	r0, #0
    7566:	428b      	cmp	r3, r1
    7568:	d1f6      	bne.n	7558 <__aeabi_dcmpun+0x20>
    756a:	4314      	orrs	r4, r2
    756c:	0020      	movs	r0, r4
    756e:	1e44      	subs	r4, r0, #1
    7570:	41a0      	sbcs	r0, r4
    7572:	e7f1      	b.n	7558 <__aeabi_dcmpun+0x20>
    7574:	000007ff 	.word	0x000007ff

00007578 <__aeabi_d2iz>:
    7578:	b530      	push	{r4, r5, lr}
    757a:	4d13      	ldr	r5, [pc, #76]	; (75c8 <__aeabi_d2iz+0x50>)
    757c:	030a      	lsls	r2, r1, #12
    757e:	004b      	lsls	r3, r1, #1
    7580:	0b12      	lsrs	r2, r2, #12
    7582:	0d5b      	lsrs	r3, r3, #21
    7584:	0fc9      	lsrs	r1, r1, #31
    7586:	2400      	movs	r4, #0
    7588:	42ab      	cmp	r3, r5
    758a:	dd10      	ble.n	75ae <__aeabi_d2iz+0x36>
    758c:	4c0f      	ldr	r4, [pc, #60]	; (75cc <__aeabi_d2iz+0x54>)
    758e:	42a3      	cmp	r3, r4
    7590:	dc0f      	bgt.n	75b2 <__aeabi_d2iz+0x3a>
    7592:	2480      	movs	r4, #128	; 0x80
    7594:	4d0e      	ldr	r5, [pc, #56]	; (75d0 <__aeabi_d2iz+0x58>)
    7596:	0364      	lsls	r4, r4, #13
    7598:	4322      	orrs	r2, r4
    759a:	1aed      	subs	r5, r5, r3
    759c:	2d1f      	cmp	r5, #31
    759e:	dd0b      	ble.n	75b8 <__aeabi_d2iz+0x40>
    75a0:	480c      	ldr	r0, [pc, #48]	; (75d4 <__aeabi_d2iz+0x5c>)
    75a2:	1ac3      	subs	r3, r0, r3
    75a4:	40da      	lsrs	r2, r3
    75a6:	4254      	negs	r4, r2
    75a8:	2900      	cmp	r1, #0
    75aa:	d100      	bne.n	75ae <__aeabi_d2iz+0x36>
    75ac:	0014      	movs	r4, r2
    75ae:	0020      	movs	r0, r4
    75b0:	bd30      	pop	{r4, r5, pc}
    75b2:	4b09      	ldr	r3, [pc, #36]	; (75d8 <__aeabi_d2iz+0x60>)
    75b4:	18cc      	adds	r4, r1, r3
    75b6:	e7fa      	b.n	75ae <__aeabi_d2iz+0x36>
    75b8:	4c08      	ldr	r4, [pc, #32]	; (75dc <__aeabi_d2iz+0x64>)
    75ba:	40e8      	lsrs	r0, r5
    75bc:	46a4      	mov	ip, r4
    75be:	4463      	add	r3, ip
    75c0:	409a      	lsls	r2, r3
    75c2:	4302      	orrs	r2, r0
    75c4:	e7ef      	b.n	75a6 <__aeabi_d2iz+0x2e>
    75c6:	46c0      	nop			; (mov r8, r8)
    75c8:	000003fe 	.word	0x000003fe
    75cc:	0000041d 	.word	0x0000041d
    75d0:	00000433 	.word	0x00000433
    75d4:	00000413 	.word	0x00000413
    75d8:	7fffffff 	.word	0x7fffffff
    75dc:	fffffbed 	.word	0xfffffbed

000075e0 <__aeabi_i2d>:
    75e0:	b570      	push	{r4, r5, r6, lr}
    75e2:	2800      	cmp	r0, #0
    75e4:	d030      	beq.n	7648 <__aeabi_i2d+0x68>
    75e6:	17c3      	asrs	r3, r0, #31
    75e8:	18c4      	adds	r4, r0, r3
    75ea:	405c      	eors	r4, r3
    75ec:	0fc5      	lsrs	r5, r0, #31
    75ee:	0020      	movs	r0, r4
    75f0:	f000 f94c 	bl	788c <__clzsi2>
    75f4:	4b17      	ldr	r3, [pc, #92]	; (7654 <__aeabi_i2d+0x74>)
    75f6:	4a18      	ldr	r2, [pc, #96]	; (7658 <__aeabi_i2d+0x78>)
    75f8:	1a1b      	subs	r3, r3, r0
    75fa:	1ad2      	subs	r2, r2, r3
    75fc:	2a1f      	cmp	r2, #31
    75fe:	dd18      	ble.n	7632 <__aeabi_i2d+0x52>
    7600:	4a16      	ldr	r2, [pc, #88]	; (765c <__aeabi_i2d+0x7c>)
    7602:	1ad2      	subs	r2, r2, r3
    7604:	4094      	lsls	r4, r2
    7606:	2200      	movs	r2, #0
    7608:	0324      	lsls	r4, r4, #12
    760a:	055b      	lsls	r3, r3, #21
    760c:	0b24      	lsrs	r4, r4, #12
    760e:	0d5b      	lsrs	r3, r3, #21
    7610:	2100      	movs	r1, #0
    7612:	0010      	movs	r0, r2
    7614:	0324      	lsls	r4, r4, #12
    7616:	0d0a      	lsrs	r2, r1, #20
    7618:	0b24      	lsrs	r4, r4, #12
    761a:	0512      	lsls	r2, r2, #20
    761c:	4322      	orrs	r2, r4
    761e:	4c10      	ldr	r4, [pc, #64]	; (7660 <__aeabi_i2d+0x80>)
    7620:	051b      	lsls	r3, r3, #20
    7622:	4022      	ands	r2, r4
    7624:	4313      	orrs	r3, r2
    7626:	005b      	lsls	r3, r3, #1
    7628:	07ed      	lsls	r5, r5, #31
    762a:	085b      	lsrs	r3, r3, #1
    762c:	432b      	orrs	r3, r5
    762e:	0019      	movs	r1, r3
    7630:	bd70      	pop	{r4, r5, r6, pc}
    7632:	0021      	movs	r1, r4
    7634:	4091      	lsls	r1, r2
    7636:	000a      	movs	r2, r1
    7638:	210b      	movs	r1, #11
    763a:	1a08      	subs	r0, r1, r0
    763c:	40c4      	lsrs	r4, r0
    763e:	055b      	lsls	r3, r3, #21
    7640:	0324      	lsls	r4, r4, #12
    7642:	0b24      	lsrs	r4, r4, #12
    7644:	0d5b      	lsrs	r3, r3, #21
    7646:	e7e3      	b.n	7610 <__aeabi_i2d+0x30>
    7648:	2500      	movs	r5, #0
    764a:	2300      	movs	r3, #0
    764c:	2400      	movs	r4, #0
    764e:	2200      	movs	r2, #0
    7650:	e7de      	b.n	7610 <__aeabi_i2d+0x30>
    7652:	46c0      	nop			; (mov r8, r8)
    7654:	0000041e 	.word	0x0000041e
    7658:	00000433 	.word	0x00000433
    765c:	00000413 	.word	0x00000413
    7660:	800fffff 	.word	0x800fffff

00007664 <__aeabi_ui2d>:
    7664:	b510      	push	{r4, lr}
    7666:	1e04      	subs	r4, r0, #0
    7668:	d028      	beq.n	76bc <__aeabi_ui2d+0x58>
    766a:	f000 f90f 	bl	788c <__clzsi2>
    766e:	4b15      	ldr	r3, [pc, #84]	; (76c4 <__aeabi_ui2d+0x60>)
    7670:	4a15      	ldr	r2, [pc, #84]	; (76c8 <__aeabi_ui2d+0x64>)
    7672:	1a1b      	subs	r3, r3, r0
    7674:	1ad2      	subs	r2, r2, r3
    7676:	2a1f      	cmp	r2, #31
    7678:	dd15      	ble.n	76a6 <__aeabi_ui2d+0x42>
    767a:	4a14      	ldr	r2, [pc, #80]	; (76cc <__aeabi_ui2d+0x68>)
    767c:	1ad2      	subs	r2, r2, r3
    767e:	4094      	lsls	r4, r2
    7680:	2200      	movs	r2, #0
    7682:	0324      	lsls	r4, r4, #12
    7684:	055b      	lsls	r3, r3, #21
    7686:	0b24      	lsrs	r4, r4, #12
    7688:	0d5b      	lsrs	r3, r3, #21
    768a:	2100      	movs	r1, #0
    768c:	0010      	movs	r0, r2
    768e:	0324      	lsls	r4, r4, #12
    7690:	0d0a      	lsrs	r2, r1, #20
    7692:	0b24      	lsrs	r4, r4, #12
    7694:	0512      	lsls	r2, r2, #20
    7696:	4322      	orrs	r2, r4
    7698:	4c0d      	ldr	r4, [pc, #52]	; (76d0 <__aeabi_ui2d+0x6c>)
    769a:	051b      	lsls	r3, r3, #20
    769c:	4022      	ands	r2, r4
    769e:	4313      	orrs	r3, r2
    76a0:	005b      	lsls	r3, r3, #1
    76a2:	0859      	lsrs	r1, r3, #1
    76a4:	bd10      	pop	{r4, pc}
    76a6:	0021      	movs	r1, r4
    76a8:	4091      	lsls	r1, r2
    76aa:	000a      	movs	r2, r1
    76ac:	210b      	movs	r1, #11
    76ae:	1a08      	subs	r0, r1, r0
    76b0:	40c4      	lsrs	r4, r0
    76b2:	055b      	lsls	r3, r3, #21
    76b4:	0324      	lsls	r4, r4, #12
    76b6:	0b24      	lsrs	r4, r4, #12
    76b8:	0d5b      	lsrs	r3, r3, #21
    76ba:	e7e6      	b.n	768a <__aeabi_ui2d+0x26>
    76bc:	2300      	movs	r3, #0
    76be:	2400      	movs	r4, #0
    76c0:	2200      	movs	r2, #0
    76c2:	e7e2      	b.n	768a <__aeabi_ui2d+0x26>
    76c4:	0000041e 	.word	0x0000041e
    76c8:	00000433 	.word	0x00000433
    76cc:	00000413 	.word	0x00000413
    76d0:	800fffff 	.word	0x800fffff

000076d4 <__aeabi_f2d>:
    76d4:	0041      	lsls	r1, r0, #1
    76d6:	0e09      	lsrs	r1, r1, #24
    76d8:	1c4b      	adds	r3, r1, #1
    76da:	b570      	push	{r4, r5, r6, lr}
    76dc:	b2db      	uxtb	r3, r3
    76de:	0246      	lsls	r6, r0, #9
    76e0:	0a75      	lsrs	r5, r6, #9
    76e2:	0fc4      	lsrs	r4, r0, #31
    76e4:	2b01      	cmp	r3, #1
    76e6:	dd14      	ble.n	7712 <__aeabi_f2d+0x3e>
    76e8:	23e0      	movs	r3, #224	; 0xe0
    76ea:	009b      	lsls	r3, r3, #2
    76ec:	076d      	lsls	r5, r5, #29
    76ee:	0b36      	lsrs	r6, r6, #12
    76f0:	18cb      	adds	r3, r1, r3
    76f2:	2100      	movs	r1, #0
    76f4:	0d0a      	lsrs	r2, r1, #20
    76f6:	0028      	movs	r0, r5
    76f8:	0512      	lsls	r2, r2, #20
    76fa:	4d1c      	ldr	r5, [pc, #112]	; (776c <__aeabi_f2d+0x98>)
    76fc:	4332      	orrs	r2, r6
    76fe:	055b      	lsls	r3, r3, #21
    7700:	402a      	ands	r2, r5
    7702:	085b      	lsrs	r3, r3, #1
    7704:	4313      	orrs	r3, r2
    7706:	005b      	lsls	r3, r3, #1
    7708:	07e4      	lsls	r4, r4, #31
    770a:	085b      	lsrs	r3, r3, #1
    770c:	4323      	orrs	r3, r4
    770e:	0019      	movs	r1, r3
    7710:	bd70      	pop	{r4, r5, r6, pc}
    7712:	2900      	cmp	r1, #0
    7714:	d114      	bne.n	7740 <__aeabi_f2d+0x6c>
    7716:	2d00      	cmp	r5, #0
    7718:	d01e      	beq.n	7758 <__aeabi_f2d+0x84>
    771a:	0028      	movs	r0, r5
    771c:	f000 f8b6 	bl	788c <__clzsi2>
    7720:	280a      	cmp	r0, #10
    7722:	dc1c      	bgt.n	775e <__aeabi_f2d+0x8a>
    7724:	230b      	movs	r3, #11
    7726:	002a      	movs	r2, r5
    7728:	1a1b      	subs	r3, r3, r0
    772a:	40da      	lsrs	r2, r3
    772c:	0003      	movs	r3, r0
    772e:	3315      	adds	r3, #21
    7730:	409d      	lsls	r5, r3
    7732:	4b0f      	ldr	r3, [pc, #60]	; (7770 <__aeabi_f2d+0x9c>)
    7734:	0312      	lsls	r2, r2, #12
    7736:	1a1b      	subs	r3, r3, r0
    7738:	055b      	lsls	r3, r3, #21
    773a:	0b16      	lsrs	r6, r2, #12
    773c:	0d5b      	lsrs	r3, r3, #21
    773e:	e7d8      	b.n	76f2 <__aeabi_f2d+0x1e>
    7740:	2d00      	cmp	r5, #0
    7742:	d006      	beq.n	7752 <__aeabi_f2d+0x7e>
    7744:	0b32      	lsrs	r2, r6, #12
    7746:	2680      	movs	r6, #128	; 0x80
    7748:	0336      	lsls	r6, r6, #12
    774a:	076d      	lsls	r5, r5, #29
    774c:	4316      	orrs	r6, r2
    774e:	4b09      	ldr	r3, [pc, #36]	; (7774 <__aeabi_f2d+0xa0>)
    7750:	e7cf      	b.n	76f2 <__aeabi_f2d+0x1e>
    7752:	4b08      	ldr	r3, [pc, #32]	; (7774 <__aeabi_f2d+0xa0>)
    7754:	2600      	movs	r6, #0
    7756:	e7cc      	b.n	76f2 <__aeabi_f2d+0x1e>
    7758:	2300      	movs	r3, #0
    775a:	2600      	movs	r6, #0
    775c:	e7c9      	b.n	76f2 <__aeabi_f2d+0x1e>
    775e:	0003      	movs	r3, r0
    7760:	002a      	movs	r2, r5
    7762:	3b0b      	subs	r3, #11
    7764:	409a      	lsls	r2, r3
    7766:	2500      	movs	r5, #0
    7768:	e7e3      	b.n	7732 <__aeabi_f2d+0x5e>
    776a:	46c0      	nop			; (mov r8, r8)
    776c:	800fffff 	.word	0x800fffff
    7770:	00000389 	.word	0x00000389
    7774:	000007ff 	.word	0x000007ff

00007778 <__aeabi_d2f>:
    7778:	b5f0      	push	{r4, r5, r6, r7, lr}
    777a:	004c      	lsls	r4, r1, #1
    777c:	0d64      	lsrs	r4, r4, #21
    777e:	030b      	lsls	r3, r1, #12
    7780:	1c62      	adds	r2, r4, #1
    7782:	0f45      	lsrs	r5, r0, #29
    7784:	0a5b      	lsrs	r3, r3, #9
    7786:	0552      	lsls	r2, r2, #21
    7788:	432b      	orrs	r3, r5
    778a:	0fc9      	lsrs	r1, r1, #31
    778c:	00c5      	lsls	r5, r0, #3
    778e:	0d52      	lsrs	r2, r2, #21
    7790:	2a01      	cmp	r2, #1
    7792:	dd28      	ble.n	77e6 <__aeabi_d2f+0x6e>
    7794:	4a3a      	ldr	r2, [pc, #232]	; (7880 <__aeabi_d2f+0x108>)
    7796:	18a6      	adds	r6, r4, r2
    7798:	2efe      	cmp	r6, #254	; 0xfe
    779a:	dc1b      	bgt.n	77d4 <__aeabi_d2f+0x5c>
    779c:	2e00      	cmp	r6, #0
    779e:	dd3e      	ble.n	781e <__aeabi_d2f+0xa6>
    77a0:	0180      	lsls	r0, r0, #6
    77a2:	0002      	movs	r2, r0
    77a4:	1e50      	subs	r0, r2, #1
    77a6:	4182      	sbcs	r2, r0
    77a8:	0f6d      	lsrs	r5, r5, #29
    77aa:	432a      	orrs	r2, r5
    77ac:	00db      	lsls	r3, r3, #3
    77ae:	4313      	orrs	r3, r2
    77b0:	075a      	lsls	r2, r3, #29
    77b2:	d004      	beq.n	77be <__aeabi_d2f+0x46>
    77b4:	220f      	movs	r2, #15
    77b6:	401a      	ands	r2, r3
    77b8:	2a04      	cmp	r2, #4
    77ba:	d000      	beq.n	77be <__aeabi_d2f+0x46>
    77bc:	3304      	adds	r3, #4
    77be:	2280      	movs	r2, #128	; 0x80
    77c0:	04d2      	lsls	r2, r2, #19
    77c2:	401a      	ands	r2, r3
    77c4:	d05a      	beq.n	787c <__aeabi_d2f+0x104>
    77c6:	3601      	adds	r6, #1
    77c8:	2eff      	cmp	r6, #255	; 0xff
    77ca:	d003      	beq.n	77d4 <__aeabi_d2f+0x5c>
    77cc:	019b      	lsls	r3, r3, #6
    77ce:	0a5b      	lsrs	r3, r3, #9
    77d0:	b2f4      	uxtb	r4, r6
    77d2:	e001      	b.n	77d8 <__aeabi_d2f+0x60>
    77d4:	24ff      	movs	r4, #255	; 0xff
    77d6:	2300      	movs	r3, #0
    77d8:	0258      	lsls	r0, r3, #9
    77da:	05e4      	lsls	r4, r4, #23
    77dc:	0a40      	lsrs	r0, r0, #9
    77de:	07c9      	lsls	r1, r1, #31
    77e0:	4320      	orrs	r0, r4
    77e2:	4308      	orrs	r0, r1
    77e4:	bdf0      	pop	{r4, r5, r6, r7, pc}
    77e6:	2c00      	cmp	r4, #0
    77e8:	d007      	beq.n	77fa <__aeabi_d2f+0x82>
    77ea:	431d      	orrs	r5, r3
    77ec:	d0f2      	beq.n	77d4 <__aeabi_d2f+0x5c>
    77ee:	2080      	movs	r0, #128	; 0x80
    77f0:	00db      	lsls	r3, r3, #3
    77f2:	0480      	lsls	r0, r0, #18
    77f4:	4303      	orrs	r3, r0
    77f6:	26ff      	movs	r6, #255	; 0xff
    77f8:	e7da      	b.n	77b0 <__aeabi_d2f+0x38>
    77fa:	432b      	orrs	r3, r5
    77fc:	d003      	beq.n	7806 <__aeabi_d2f+0x8e>
    77fe:	2305      	movs	r3, #5
    7800:	08db      	lsrs	r3, r3, #3
    7802:	2cff      	cmp	r4, #255	; 0xff
    7804:	d003      	beq.n	780e <__aeabi_d2f+0x96>
    7806:	025b      	lsls	r3, r3, #9
    7808:	0a5b      	lsrs	r3, r3, #9
    780a:	b2e4      	uxtb	r4, r4
    780c:	e7e4      	b.n	77d8 <__aeabi_d2f+0x60>
    780e:	2b00      	cmp	r3, #0
    7810:	d032      	beq.n	7878 <__aeabi_d2f+0x100>
    7812:	2080      	movs	r0, #128	; 0x80
    7814:	03c0      	lsls	r0, r0, #15
    7816:	4303      	orrs	r3, r0
    7818:	025b      	lsls	r3, r3, #9
    781a:	0a5b      	lsrs	r3, r3, #9
    781c:	e7dc      	b.n	77d8 <__aeabi_d2f+0x60>
    781e:	0032      	movs	r2, r6
    7820:	3217      	adds	r2, #23
    7822:	db14      	blt.n	784e <__aeabi_d2f+0xd6>
    7824:	2280      	movs	r2, #128	; 0x80
    7826:	271e      	movs	r7, #30
    7828:	0412      	lsls	r2, r2, #16
    782a:	4313      	orrs	r3, r2
    782c:	1bbf      	subs	r7, r7, r6
    782e:	2f1f      	cmp	r7, #31
    7830:	dc0f      	bgt.n	7852 <__aeabi_d2f+0xda>
    7832:	4a14      	ldr	r2, [pc, #80]	; (7884 <__aeabi_d2f+0x10c>)
    7834:	4694      	mov	ip, r2
    7836:	4464      	add	r4, ip
    7838:	002a      	movs	r2, r5
    783a:	40a5      	lsls	r5, r4
    783c:	002e      	movs	r6, r5
    783e:	40a3      	lsls	r3, r4
    7840:	1e75      	subs	r5, r6, #1
    7842:	41ae      	sbcs	r6, r5
    7844:	40fa      	lsrs	r2, r7
    7846:	4333      	orrs	r3, r6
    7848:	4313      	orrs	r3, r2
    784a:	2600      	movs	r6, #0
    784c:	e7b0      	b.n	77b0 <__aeabi_d2f+0x38>
    784e:	2400      	movs	r4, #0
    7850:	e7d5      	b.n	77fe <__aeabi_d2f+0x86>
    7852:	2202      	movs	r2, #2
    7854:	4252      	negs	r2, r2
    7856:	1b96      	subs	r6, r2, r6
    7858:	001a      	movs	r2, r3
    785a:	40f2      	lsrs	r2, r6
    785c:	2f20      	cmp	r7, #32
    785e:	d009      	beq.n	7874 <__aeabi_d2f+0xfc>
    7860:	4809      	ldr	r0, [pc, #36]	; (7888 <__aeabi_d2f+0x110>)
    7862:	4684      	mov	ip, r0
    7864:	4464      	add	r4, ip
    7866:	40a3      	lsls	r3, r4
    7868:	432b      	orrs	r3, r5
    786a:	1e5d      	subs	r5, r3, #1
    786c:	41ab      	sbcs	r3, r5
    786e:	2600      	movs	r6, #0
    7870:	4313      	orrs	r3, r2
    7872:	e79d      	b.n	77b0 <__aeabi_d2f+0x38>
    7874:	2300      	movs	r3, #0
    7876:	e7f7      	b.n	7868 <__aeabi_d2f+0xf0>
    7878:	2300      	movs	r3, #0
    787a:	e7ad      	b.n	77d8 <__aeabi_d2f+0x60>
    787c:	0034      	movs	r4, r6
    787e:	e7bf      	b.n	7800 <__aeabi_d2f+0x88>
    7880:	fffffc80 	.word	0xfffffc80
    7884:	fffffc82 	.word	0xfffffc82
    7888:	fffffca2 	.word	0xfffffca2

0000788c <__clzsi2>:
    788c:	211c      	movs	r1, #28
    788e:	2301      	movs	r3, #1
    7890:	041b      	lsls	r3, r3, #16
    7892:	4298      	cmp	r0, r3
    7894:	d301      	bcc.n	789a <__clzsi2+0xe>
    7896:	0c00      	lsrs	r0, r0, #16
    7898:	3910      	subs	r1, #16
    789a:	0a1b      	lsrs	r3, r3, #8
    789c:	4298      	cmp	r0, r3
    789e:	d301      	bcc.n	78a4 <__clzsi2+0x18>
    78a0:	0a00      	lsrs	r0, r0, #8
    78a2:	3908      	subs	r1, #8
    78a4:	091b      	lsrs	r3, r3, #4
    78a6:	4298      	cmp	r0, r3
    78a8:	d301      	bcc.n	78ae <__clzsi2+0x22>
    78aa:	0900      	lsrs	r0, r0, #4
    78ac:	3904      	subs	r1, #4
    78ae:	a202      	add	r2, pc, #8	; (adr r2, 78b8 <__clzsi2+0x2c>)
    78b0:	5c10      	ldrb	r0, [r2, r0]
    78b2:	1840      	adds	r0, r0, r1
    78b4:	4770      	bx	lr
    78b6:	46c0      	nop			; (mov r8, r8)
    78b8:	02020304 	.word	0x02020304
    78bc:	01010101 	.word	0x01010101
	...

000078c8 <atoi>:
    78c8:	b510      	push	{r4, lr}
    78ca:	220a      	movs	r2, #10
    78cc:	2100      	movs	r1, #0
    78ce:	f000 fc4f 	bl	8170 <strtol>
    78d2:	bd10      	pop	{r4, pc}

000078d4 <__errno>:
    78d4:	4b01      	ldr	r3, [pc, #4]	; (78dc <__errno+0x8>)
    78d6:	6818      	ldr	r0, [r3, #0]
    78d8:	4770      	bx	lr
    78da:	46c0      	nop			; (mov r8, r8)
    78dc:	20000014 	.word	0x20000014

000078e0 <__libc_init_array>:
    78e0:	b570      	push	{r4, r5, r6, lr}
    78e2:	4e0d      	ldr	r6, [pc, #52]	; (7918 <__libc_init_array+0x38>)
    78e4:	4d0d      	ldr	r5, [pc, #52]	; (791c <__libc_init_array+0x3c>)
    78e6:	2400      	movs	r4, #0
    78e8:	1bad      	subs	r5, r5, r6
    78ea:	10ad      	asrs	r5, r5, #2
    78ec:	d005      	beq.n	78fa <__libc_init_array+0x1a>
    78ee:	00a3      	lsls	r3, r4, #2
    78f0:	58f3      	ldr	r3, [r6, r3]
    78f2:	3401      	adds	r4, #1
    78f4:	4798      	blx	r3
    78f6:	42a5      	cmp	r5, r4
    78f8:	d1f9      	bne.n	78ee <__libc_init_array+0xe>
    78fa:	f005 ff89 	bl	d810 <_init>
    78fe:	4e08      	ldr	r6, [pc, #32]	; (7920 <__libc_init_array+0x40>)
    7900:	4d08      	ldr	r5, [pc, #32]	; (7924 <__libc_init_array+0x44>)
    7902:	2400      	movs	r4, #0
    7904:	1bad      	subs	r5, r5, r6
    7906:	10ad      	asrs	r5, r5, #2
    7908:	d005      	beq.n	7916 <__libc_init_array+0x36>
    790a:	00a3      	lsls	r3, r4, #2
    790c:	58f3      	ldr	r3, [r6, r3]
    790e:	3401      	adds	r4, #1
    7910:	4798      	blx	r3
    7912:	42a5      	cmp	r5, r4
    7914:	d1f9      	bne.n	790a <__libc_init_array+0x2a>
    7916:	bd70      	pop	{r4, r5, r6, pc}
    7918:	0000d81c 	.word	0x0000d81c
    791c:	0000d81c 	.word	0x0000d81c
    7920:	0000d81c 	.word	0x0000d81c
    7924:	0000d824 	.word	0x0000d824

00007928 <memcpy>:
    7928:	b5f0      	push	{r4, r5, r6, r7, lr}
    792a:	0005      	movs	r5, r0
    792c:	2a0f      	cmp	r2, #15
    792e:	d92f      	bls.n	7990 <memcpy+0x68>
    7930:	000b      	movs	r3, r1
    7932:	4303      	orrs	r3, r0
    7934:	079b      	lsls	r3, r3, #30
    7936:	d134      	bne.n	79a2 <memcpy+0x7a>
    7938:	0016      	movs	r6, r2
    793a:	000c      	movs	r4, r1
    793c:	0003      	movs	r3, r0
    793e:	3e10      	subs	r6, #16
    7940:	0935      	lsrs	r5, r6, #4
    7942:	3501      	adds	r5, #1
    7944:	012d      	lsls	r5, r5, #4
    7946:	1945      	adds	r5, r0, r5
    7948:	6827      	ldr	r7, [r4, #0]
    794a:	601f      	str	r7, [r3, #0]
    794c:	6867      	ldr	r7, [r4, #4]
    794e:	605f      	str	r7, [r3, #4]
    7950:	68a7      	ldr	r7, [r4, #8]
    7952:	609f      	str	r7, [r3, #8]
    7954:	68e7      	ldr	r7, [r4, #12]
    7956:	3410      	adds	r4, #16
    7958:	60df      	str	r7, [r3, #12]
    795a:	3310      	adds	r3, #16
    795c:	429d      	cmp	r5, r3
    795e:	d1f3      	bne.n	7948 <memcpy+0x20>
    7960:	230f      	movs	r3, #15
    7962:	439e      	bics	r6, r3
    7964:	3610      	adds	r6, #16
    7966:	1985      	adds	r5, r0, r6
    7968:	1989      	adds	r1, r1, r6
    796a:	4013      	ands	r3, r2
    796c:	2b03      	cmp	r3, #3
    796e:	d91a      	bls.n	79a6 <memcpy+0x7e>
    7970:	1f1e      	subs	r6, r3, #4
    7972:	2300      	movs	r3, #0
    7974:	08b4      	lsrs	r4, r6, #2
    7976:	3401      	adds	r4, #1
    7978:	00a4      	lsls	r4, r4, #2
    797a:	58cf      	ldr	r7, [r1, r3]
    797c:	50ef      	str	r7, [r5, r3]
    797e:	3304      	adds	r3, #4
    7980:	42a3      	cmp	r3, r4
    7982:	d1fa      	bne.n	797a <memcpy+0x52>
    7984:	2403      	movs	r4, #3
    7986:	43a6      	bics	r6, r4
    7988:	1d33      	adds	r3, r6, #4
    798a:	4022      	ands	r2, r4
    798c:	18c9      	adds	r1, r1, r3
    798e:	18ed      	adds	r5, r5, r3
    7990:	2a00      	cmp	r2, #0
    7992:	d005      	beq.n	79a0 <memcpy+0x78>
    7994:	2300      	movs	r3, #0
    7996:	5ccc      	ldrb	r4, [r1, r3]
    7998:	54ec      	strb	r4, [r5, r3]
    799a:	3301      	adds	r3, #1
    799c:	4293      	cmp	r3, r2
    799e:	d1fa      	bne.n	7996 <memcpy+0x6e>
    79a0:	bdf0      	pop	{r4, r5, r6, r7, pc}
    79a2:	0005      	movs	r5, r0
    79a4:	e7f6      	b.n	7994 <memcpy+0x6c>
    79a6:	001a      	movs	r2, r3
    79a8:	e7f2      	b.n	7990 <memcpy+0x68>
    79aa:	46c0      	nop			; (mov r8, r8)

000079ac <memset>:
    79ac:	b5f0      	push	{r4, r5, r6, r7, lr}
    79ae:	0783      	lsls	r3, r0, #30
    79b0:	d043      	beq.n	7a3a <memset+0x8e>
    79b2:	1e54      	subs	r4, r2, #1
    79b4:	2a00      	cmp	r2, #0
    79b6:	d03f      	beq.n	7a38 <memset+0x8c>
    79b8:	b2ce      	uxtb	r6, r1
    79ba:	0002      	movs	r2, r0
    79bc:	2503      	movs	r5, #3
    79be:	e002      	b.n	79c6 <memset+0x1a>
    79c0:	001a      	movs	r2, r3
    79c2:	3c01      	subs	r4, #1
    79c4:	d338      	bcc.n	7a38 <memset+0x8c>
    79c6:	1c53      	adds	r3, r2, #1
    79c8:	7016      	strb	r6, [r2, #0]
    79ca:	422b      	tst	r3, r5
    79cc:	d1f8      	bne.n	79c0 <memset+0x14>
    79ce:	2c03      	cmp	r4, #3
    79d0:	d92a      	bls.n	7a28 <memset+0x7c>
    79d2:	22ff      	movs	r2, #255	; 0xff
    79d4:	400a      	ands	r2, r1
    79d6:	0215      	lsls	r5, r2, #8
    79d8:	4315      	orrs	r5, r2
    79da:	042a      	lsls	r2, r5, #16
    79dc:	4315      	orrs	r5, r2
    79de:	2c0f      	cmp	r4, #15
    79e0:	d914      	bls.n	7a0c <memset+0x60>
    79e2:	0027      	movs	r7, r4
    79e4:	001a      	movs	r2, r3
    79e6:	3f10      	subs	r7, #16
    79e8:	093e      	lsrs	r6, r7, #4
    79ea:	3601      	adds	r6, #1
    79ec:	0136      	lsls	r6, r6, #4
    79ee:	199e      	adds	r6, r3, r6
    79f0:	6015      	str	r5, [r2, #0]
    79f2:	6055      	str	r5, [r2, #4]
    79f4:	6095      	str	r5, [r2, #8]
    79f6:	60d5      	str	r5, [r2, #12]
    79f8:	3210      	adds	r2, #16
    79fa:	4296      	cmp	r6, r2
    79fc:	d1f8      	bne.n	79f0 <memset+0x44>
    79fe:	220f      	movs	r2, #15
    7a00:	4397      	bics	r7, r2
    7a02:	3710      	adds	r7, #16
    7a04:	19db      	adds	r3, r3, r7
    7a06:	4014      	ands	r4, r2
    7a08:	2c03      	cmp	r4, #3
    7a0a:	d90d      	bls.n	7a28 <memset+0x7c>
    7a0c:	001a      	movs	r2, r3
    7a0e:	1f27      	subs	r7, r4, #4
    7a10:	08be      	lsrs	r6, r7, #2
    7a12:	3601      	adds	r6, #1
    7a14:	00b6      	lsls	r6, r6, #2
    7a16:	199e      	adds	r6, r3, r6
    7a18:	c220      	stmia	r2!, {r5}
    7a1a:	42b2      	cmp	r2, r6
    7a1c:	d1fc      	bne.n	7a18 <memset+0x6c>
    7a1e:	2203      	movs	r2, #3
    7a20:	4397      	bics	r7, r2
    7a22:	3704      	adds	r7, #4
    7a24:	19db      	adds	r3, r3, r7
    7a26:	4014      	ands	r4, r2
    7a28:	2c00      	cmp	r4, #0
    7a2a:	d005      	beq.n	7a38 <memset+0x8c>
    7a2c:	b2c9      	uxtb	r1, r1
    7a2e:	191c      	adds	r4, r3, r4
    7a30:	7019      	strb	r1, [r3, #0]
    7a32:	3301      	adds	r3, #1
    7a34:	429c      	cmp	r4, r3
    7a36:	d1fb      	bne.n	7a30 <memset+0x84>
    7a38:	bdf0      	pop	{r4, r5, r6, r7, pc}
    7a3a:	0014      	movs	r4, r2
    7a3c:	0003      	movs	r3, r0
    7a3e:	e7c6      	b.n	79ce <memset+0x22>

00007a40 <sprintf>:
    7a40:	b40e      	push	{r1, r2, r3}
    7a42:	b510      	push	{r4, lr}
    7a44:	b09d      	sub	sp, #116	; 0x74
    7a46:	a902      	add	r1, sp, #8
    7a48:	9002      	str	r0, [sp, #8]
    7a4a:	6108      	str	r0, [r1, #16]
    7a4c:	480b      	ldr	r0, [pc, #44]	; (7a7c <sprintf+0x3c>)
    7a4e:	2482      	movs	r4, #130	; 0x82
    7a50:	6088      	str	r0, [r1, #8]
    7a52:	6148      	str	r0, [r1, #20]
    7a54:	2001      	movs	r0, #1
    7a56:	4240      	negs	r0, r0
    7a58:	ab1f      	add	r3, sp, #124	; 0x7c
    7a5a:	81c8      	strh	r0, [r1, #14]
    7a5c:	4808      	ldr	r0, [pc, #32]	; (7a80 <sprintf+0x40>)
    7a5e:	cb04      	ldmia	r3!, {r2}
    7a60:	00a4      	lsls	r4, r4, #2
    7a62:	6800      	ldr	r0, [r0, #0]
    7a64:	9301      	str	r3, [sp, #4]
    7a66:	818c      	strh	r4, [r1, #12]
    7a68:	f000 fb98 	bl	819c <_svfprintf_r>
    7a6c:	2300      	movs	r3, #0
    7a6e:	9a02      	ldr	r2, [sp, #8]
    7a70:	7013      	strb	r3, [r2, #0]
    7a72:	b01d      	add	sp, #116	; 0x74
    7a74:	bc10      	pop	{r4}
    7a76:	bc08      	pop	{r3}
    7a78:	b003      	add	sp, #12
    7a7a:	4718      	bx	r3
    7a7c:	7fffffff 	.word	0x7fffffff
    7a80:	20000014 	.word	0x20000014

00007a84 <strcpy>:
    7a84:	1c03      	adds	r3, r0, #0
    7a86:	780a      	ldrb	r2, [r1, #0]
    7a88:	3101      	adds	r1, #1
    7a8a:	701a      	strb	r2, [r3, #0]
    7a8c:	3301      	adds	r3, #1
    7a8e:	2a00      	cmp	r2, #0
    7a90:	d1f9      	bne.n	7a86 <strcpy+0x2>
    7a92:	4770      	bx	lr

00007a94 <strlen>:
    7a94:	b510      	push	{r4, lr}
    7a96:	0783      	lsls	r3, r0, #30
    7a98:	d025      	beq.n	7ae6 <strlen+0x52>
    7a9a:	7803      	ldrb	r3, [r0, #0]
    7a9c:	2b00      	cmp	r3, #0
    7a9e:	d024      	beq.n	7aea <strlen+0x56>
    7aa0:	0003      	movs	r3, r0
    7aa2:	2103      	movs	r1, #3
    7aa4:	e002      	b.n	7aac <strlen+0x18>
    7aa6:	781a      	ldrb	r2, [r3, #0]
    7aa8:	2a00      	cmp	r2, #0
    7aaa:	d01a      	beq.n	7ae2 <strlen+0x4e>
    7aac:	3301      	adds	r3, #1
    7aae:	420b      	tst	r3, r1
    7ab0:	d1f9      	bne.n	7aa6 <strlen+0x12>
    7ab2:	6819      	ldr	r1, [r3, #0]
    7ab4:	4a0e      	ldr	r2, [pc, #56]	; (7af0 <strlen+0x5c>)
    7ab6:	4c0f      	ldr	r4, [pc, #60]	; (7af4 <strlen+0x60>)
    7ab8:	188a      	adds	r2, r1, r2
    7aba:	438a      	bics	r2, r1
    7abc:	4222      	tst	r2, r4
    7abe:	d106      	bne.n	7ace <strlen+0x3a>
    7ac0:	3304      	adds	r3, #4
    7ac2:	6819      	ldr	r1, [r3, #0]
    7ac4:	4a0a      	ldr	r2, [pc, #40]	; (7af0 <strlen+0x5c>)
    7ac6:	188a      	adds	r2, r1, r2
    7ac8:	438a      	bics	r2, r1
    7aca:	4222      	tst	r2, r4
    7acc:	d0f8      	beq.n	7ac0 <strlen+0x2c>
    7ace:	001a      	movs	r2, r3
    7ad0:	781b      	ldrb	r3, [r3, #0]
    7ad2:	2b00      	cmp	r3, #0
    7ad4:	d003      	beq.n	7ade <strlen+0x4a>
    7ad6:	3201      	adds	r2, #1
    7ad8:	7811      	ldrb	r1, [r2, #0]
    7ada:	2900      	cmp	r1, #0
    7adc:	d1fb      	bne.n	7ad6 <strlen+0x42>
    7ade:	1a10      	subs	r0, r2, r0
    7ae0:	bd10      	pop	{r4, pc}
    7ae2:	1a18      	subs	r0, r3, r0
    7ae4:	e7fc      	b.n	7ae0 <strlen+0x4c>
    7ae6:	0003      	movs	r3, r0
    7ae8:	e7e3      	b.n	7ab2 <strlen+0x1e>
    7aea:	2000      	movs	r0, #0
    7aec:	e7f8      	b.n	7ae0 <strlen+0x4c>
    7aee:	46c0      	nop			; (mov r8, r8)
    7af0:	fefefeff 	.word	0xfefefeff
    7af4:	80808080 	.word	0x80808080

00007af8 <critical_factorization>:
    7af8:	2301      	movs	r3, #1
    7afa:	b5f0      	push	{r4, r5, r6, r7, lr}
    7afc:	4647      	mov	r7, r8
    7afe:	46ce      	mov	lr, r9
    7b00:	4694      	mov	ip, r2
    7b02:	2201      	movs	r2, #1
    7b04:	4698      	mov	r8, r3
    7b06:	2401      	movs	r4, #1
    7b08:	2500      	movs	r5, #0
    7b0a:	b580      	push	{r7, lr}
    7b0c:	4252      	negs	r2, r2
    7b0e:	192b      	adds	r3, r5, r4
    7b10:	428b      	cmp	r3, r1
    7b12:	d20b      	bcs.n	7b2c <critical_factorization+0x34>
    7b14:	1886      	adds	r6, r0, r2
    7b16:	5cc7      	ldrb	r7, [r0, r3]
    7b18:	5d36      	ldrb	r6, [r6, r4]
    7b1a:	42b7      	cmp	r7, r6
    7b1c:	d22d      	bcs.n	7b7a <critical_factorization+0x82>
    7b1e:	1a9c      	subs	r4, r3, r2
    7b20:	46a0      	mov	r8, r4
    7b22:	001d      	movs	r5, r3
    7b24:	2401      	movs	r4, #1
    7b26:	192b      	adds	r3, r5, r4
    7b28:	428b      	cmp	r3, r1
    7b2a:	d3f3      	bcc.n	7b14 <critical_factorization+0x1c>
    7b2c:	4644      	mov	r4, r8
    7b2e:	4663      	mov	r3, ip
    7b30:	601c      	str	r4, [r3, #0]
    7b32:	2301      	movs	r3, #1
    7b34:	4699      	mov	r9, r3
    7b36:	3b02      	subs	r3, #2
    7b38:	2401      	movs	r4, #1
    7b3a:	2500      	movs	r5, #0
    7b3c:	4698      	mov	r8, r3
    7b3e:	192b      	adds	r3, r5, r4
    7b40:	4299      	cmp	r1, r3
    7b42:	d90d      	bls.n	7b60 <critical_factorization+0x68>
    7b44:	4646      	mov	r6, r8
    7b46:	1986      	adds	r6, r0, r6
    7b48:	5cc7      	ldrb	r7, [r0, r3]
    7b4a:	5d36      	ldrb	r6, [r6, r4]
    7b4c:	42b7      	cmp	r7, r6
    7b4e:	d91c      	bls.n	7b8a <critical_factorization+0x92>
    7b50:	4644      	mov	r4, r8
    7b52:	1b1c      	subs	r4, r3, r4
    7b54:	46a1      	mov	r9, r4
    7b56:	001d      	movs	r5, r3
    7b58:	2401      	movs	r4, #1
    7b5a:	192b      	adds	r3, r5, r4
    7b5c:	4299      	cmp	r1, r3
    7b5e:	d8f1      	bhi.n	7b44 <critical_factorization+0x4c>
    7b60:	4643      	mov	r3, r8
    7b62:	1c50      	adds	r0, r2, #1
    7b64:	3301      	adds	r3, #1
    7b66:	4283      	cmp	r3, r0
    7b68:	d303      	bcc.n	7b72 <critical_factorization+0x7a>
    7b6a:	4662      	mov	r2, ip
    7b6c:	4649      	mov	r1, r9
    7b6e:	0018      	movs	r0, r3
    7b70:	6011      	str	r1, [r2, #0]
    7b72:	bc0c      	pop	{r2, r3}
    7b74:	4690      	mov	r8, r2
    7b76:	4699      	mov	r9, r3
    7b78:	bdf0      	pop	{r4, r5, r6, r7, pc}
    7b7a:	42b7      	cmp	r7, r6
    7b7c:	d00d      	beq.n	7b9a <critical_factorization+0xa2>
    7b7e:	2301      	movs	r3, #1
    7b80:	002a      	movs	r2, r5
    7b82:	4698      	mov	r8, r3
    7b84:	3501      	adds	r5, #1
    7b86:	2401      	movs	r4, #1
    7b88:	e7c1      	b.n	7b0e <critical_factorization+0x16>
    7b8a:	42b7      	cmp	r7, r6
    7b8c:	d009      	beq.n	7ba2 <critical_factorization+0xaa>
    7b8e:	2301      	movs	r3, #1
    7b90:	46a8      	mov	r8, r5
    7b92:	4699      	mov	r9, r3
    7b94:	3501      	adds	r5, #1
    7b96:	2401      	movs	r4, #1
    7b98:	e7d1      	b.n	7b3e <critical_factorization+0x46>
    7b9a:	4544      	cmp	r4, r8
    7b9c:	d005      	beq.n	7baa <critical_factorization+0xb2>
    7b9e:	3401      	adds	r4, #1
    7ba0:	e7b5      	b.n	7b0e <critical_factorization+0x16>
    7ba2:	454c      	cmp	r4, r9
    7ba4:	d004      	beq.n	7bb0 <critical_factorization+0xb8>
    7ba6:	3401      	adds	r4, #1
    7ba8:	e7c9      	b.n	7b3e <critical_factorization+0x46>
    7baa:	001d      	movs	r5, r3
    7bac:	2401      	movs	r4, #1
    7bae:	e7ae      	b.n	7b0e <critical_factorization+0x16>
    7bb0:	001d      	movs	r5, r3
    7bb2:	2401      	movs	r4, #1
    7bb4:	e7c3      	b.n	7b3e <critical_factorization+0x46>
    7bb6:	46c0      	nop			; (mov r8, r8)

00007bb8 <two_way_long_needle>:
    7bb8:	b5f0      	push	{r4, r5, r6, r7, lr}
    7bba:	46de      	mov	lr, fp
    7bbc:	4657      	mov	r7, sl
    7bbe:	464e      	mov	r6, r9
    7bc0:	4645      	mov	r5, r8
    7bc2:	b5e0      	push	{r5, r6, r7, lr}
    7bc4:	0015      	movs	r5, r2
    7bc6:	4c7b      	ldr	r4, [pc, #492]	; (7db4 <two_way_long_needle+0x1fc>)
    7bc8:	0006      	movs	r6, r0
    7bca:	44a5      	add	sp, r4
    7bcc:	aa03      	add	r2, sp, #12
    7bce:	000f      	movs	r7, r1
    7bd0:	0028      	movs	r0, r5
    7bd2:	0019      	movs	r1, r3
    7bd4:	001c      	movs	r4, r3
    7bd6:	f7ff ff8f 	bl	7af8 <critical_factorization>
    7bda:	4683      	mov	fp, r0
    7bdc:	aaff      	add	r2, sp, #1020	; 0x3fc
    7bde:	ab04      	add	r3, sp, #16
    7be0:	3214      	adds	r2, #20
    7be2:	c310      	stmia	r3!, {r4}
    7be4:	4293      	cmp	r3, r2
    7be6:	d1fc      	bne.n	7be2 <two_way_long_needle+0x2a>
    7be8:	1e63      	subs	r3, r4, #1
    7bea:	0029      	movs	r1, r5
    7bec:	46a4      	mov	ip, r4
    7bee:	2c00      	cmp	r4, #0
    7bf0:	d009      	beq.n	7c06 <two_way_long_needle+0x4e>
    7bf2:	2408      	movs	r4, #8
    7bf4:	780a      	ldrb	r2, [r1, #0]
    7bf6:	a802      	add	r0, sp, #8
    7bf8:	0092      	lsls	r2, r2, #2
    7bfa:	1900      	adds	r0, r0, r4
    7bfc:	5083      	str	r3, [r0, r2]
    7bfe:	3101      	adds	r1, #1
    7c00:	3b01      	subs	r3, #1
    7c02:	d2f6      	bcs.n	7bf2 <two_way_long_needle+0x3a>
    7c04:	4664      	mov	r4, ip
    7c06:	9b03      	ldr	r3, [sp, #12]
    7c08:	465a      	mov	r2, fp
    7c0a:	18e9      	adds	r1, r5, r3
    7c0c:	0028      	movs	r0, r5
    7c0e:	f003 f985 	bl	af1c <memcmp>
    7c12:	2800      	cmp	r0, #0
    7c14:	d000      	beq.n	7c18 <two_way_long_needle+0x60>
    7c16:	e074      	b.n	7d02 <two_way_long_needle+0x14a>
    7c18:	2300      	movs	r3, #0
    7c1a:	001a      	movs	r2, r3
    7c1c:	469a      	mov	sl, r3
    7c1e:	1e63      	subs	r3, r4, #1
    7c20:	4698      	mov	r8, r3
    7c22:	4659      	mov	r1, fp
    7c24:	2301      	movs	r3, #1
    7c26:	0038      	movs	r0, r7
    7c28:	46a1      	mov	r9, r4
    7c2a:	0017      	movs	r7, r2
    7c2c:	4644      	mov	r4, r8
    7c2e:	46b0      	mov	r8, r6
    7c30:	1a5b      	subs	r3, r3, r1
    7c32:	9301      	str	r3, [sp, #4]
    7c34:	9100      	str	r1, [sp, #0]
    7c36:	4656      	mov	r6, sl
    7c38:	444e      	add	r6, r9
    7c3a:	1a32      	subs	r2, r6, r0
    7c3c:	2100      	movs	r1, #0
    7c3e:	4440      	add	r0, r8
    7c40:	f003 f92c 	bl	ae9c <memchr>
    7c44:	2800      	cmp	r0, #0
    7c46:	d153      	bne.n	7cf0 <two_way_long_needle+0x138>
    7c48:	2e00      	cmp	r6, #0
    7c4a:	d051      	beq.n	7cf0 <two_way_long_needle+0x138>
    7c4c:	4643      	mov	r3, r8
    7c4e:	2108      	movs	r1, #8
    7c50:	199b      	adds	r3, r3, r6
    7c52:	3b01      	subs	r3, #1
    7c54:	781b      	ldrb	r3, [r3, #0]
    7c56:	aa02      	add	r2, sp, #8
    7c58:	009b      	lsls	r3, r3, #2
    7c5a:	1852      	adds	r2, r2, r1
    7c5c:	58d3      	ldr	r3, [r2, r3]
    7c5e:	2b00      	cmp	r3, #0
    7c60:	d00a      	beq.n	7c78 <two_way_long_needle+0xc0>
    7c62:	2f00      	cmp	r7, #0
    7c64:	d004      	beq.n	7c70 <two_way_long_needle+0xb8>
    7c66:	9a03      	ldr	r2, [sp, #12]
    7c68:	4293      	cmp	r3, r2
    7c6a:	d201      	bcs.n	7c70 <two_way_long_needle+0xb8>
    7c6c:	464b      	mov	r3, r9
    7c6e:	1a9b      	subs	r3, r3, r2
    7c70:	449a      	add	sl, r3
    7c72:	2700      	movs	r7, #0
    7c74:	0030      	movs	r0, r6
    7c76:	e7de      	b.n	7c36 <two_way_long_needle+0x7e>
    7c78:	9900      	ldr	r1, [sp, #0]
    7c7a:	003b      	movs	r3, r7
    7c7c:	428f      	cmp	r7, r1
    7c7e:	d200      	bcs.n	7c82 <two_way_long_needle+0xca>
    7c80:	000b      	movs	r3, r1
    7c82:	42a3      	cmp	r3, r4
    7c84:	d20d      	bcs.n	7ca2 <two_way_long_needle+0xea>
    7c86:	4642      	mov	r2, r8
    7c88:	4452      	add	r2, sl
    7c8a:	e002      	b.n	7c92 <two_way_long_needle+0xda>
    7c8c:	3301      	adds	r3, #1
    7c8e:	42a3      	cmp	r3, r4
    7c90:	d207      	bcs.n	7ca2 <two_way_long_needle+0xea>
    7c92:	5ce8      	ldrb	r0, [r5, r3]
    7c94:	5cd1      	ldrb	r1, [r2, r3]
    7c96:	4288      	cmp	r0, r1
    7c98:	d0f8      	beq.n	7c8c <two_way_long_needle+0xd4>
    7c9a:	9a01      	ldr	r2, [sp, #4]
    7c9c:	4452      	add	r2, sl
    7c9e:	4692      	mov	sl, r2
    7ca0:	e7e6      	b.n	7c70 <two_way_long_needle+0xb8>
    7ca2:	9b00      	ldr	r3, [sp, #0]
    7ca4:	1e59      	subs	r1, r3, #1
    7ca6:	429f      	cmp	r7, r3
    7ca8:	d300      	bcc.n	7cac <two_way_long_needle+0xf4>
    7caa:	e07d      	b.n	7da8 <two_way_long_needle+0x1f0>
    7cac:	4642      	mov	r2, r8
    7cae:	4452      	add	r2, sl
    7cb0:	5c50      	ldrb	r0, [r2, r1]
    7cb2:	5c6b      	ldrb	r3, [r5, r1]
    7cb4:	4298      	cmp	r0, r3
    7cb6:	d000      	beq.n	7cba <two_way_long_needle+0x102>
    7cb8:	e074      	b.n	7da4 <two_way_long_needle+0x1ec>
    7cba:	1e7b      	subs	r3, r7, #1
    7cbc:	469b      	mov	fp, r3
    7cbe:	0023      	movs	r3, r4
    7cc0:	46b4      	mov	ip, r6
    7cc2:	465c      	mov	r4, fp
    7cc4:	0016      	movs	r6, r2
    7cc6:	469b      	mov	fp, r3
    7cc8:	e004      	b.n	7cd4 <two_way_long_needle+0x11c>
    7cca:	5cea      	ldrb	r2, [r5, r3]
    7ccc:	5cf0      	ldrb	r0, [r6, r3]
    7cce:	4282      	cmp	r2, r0
    7cd0:	d103      	bne.n	7cda <two_way_long_needle+0x122>
    7cd2:	0019      	movs	r1, r3
    7cd4:	1e4b      	subs	r3, r1, #1
    7cd6:	42a3      	cmp	r3, r4
    7cd8:	d1f7      	bne.n	7cca <two_way_long_needle+0x112>
    7cda:	4666      	mov	r6, ip
    7cdc:	465c      	mov	r4, fp
    7cde:	3701      	adds	r7, #1
    7ce0:	428f      	cmp	r7, r1
    7ce2:	d863      	bhi.n	7dac <two_way_long_needle+0x1f4>
    7ce4:	464b      	mov	r3, r9
    7ce6:	9f03      	ldr	r7, [sp, #12]
    7ce8:	0030      	movs	r0, r6
    7cea:	44ba      	add	sl, r7
    7cec:	1bdf      	subs	r7, r3, r7
    7cee:	e7a2      	b.n	7c36 <two_way_long_needle+0x7e>
    7cf0:	2000      	movs	r0, #0
    7cf2:	4b31      	ldr	r3, [pc, #196]	; (7db8 <two_way_long_needle+0x200>)
    7cf4:	449d      	add	sp, r3
    7cf6:	bc3c      	pop	{r2, r3, r4, r5}
    7cf8:	4690      	mov	r8, r2
    7cfa:	4699      	mov	r9, r3
    7cfc:	46a2      	mov	sl, r4
    7cfe:	46ab      	mov	fp, r5
    7d00:	bdf0      	pop	{r4, r5, r6, r7, pc}
    7d02:	465b      	mov	r3, fp
    7d04:	1ae3      	subs	r3, r4, r3
    7d06:	455b      	cmp	r3, fp
    7d08:	d34a      	bcc.n	7da0 <two_way_long_needle+0x1e8>
    7d0a:	3301      	adds	r3, #1
    7d0c:	9303      	str	r3, [sp, #12]
    7d0e:	2300      	movs	r3, #0
    7d10:	469a      	mov	sl, r3
    7d12:	1e63      	subs	r3, r4, #1
    7d14:	4698      	mov	r8, r3
    7d16:	465a      	mov	r2, fp
    7d18:	2301      	movs	r3, #1
    7d1a:	0038      	movs	r0, r7
    7d1c:	46a1      	mov	r9, r4
    7d1e:	4657      	mov	r7, sl
    7d20:	4644      	mov	r4, r8
    7d22:	46b0      	mov	r8, r6
    7d24:	1a9b      	subs	r3, r3, r2
    7d26:	9300      	str	r3, [sp, #0]
    7d28:	464b      	mov	r3, r9
    7d2a:	18fe      	adds	r6, r7, r3
    7d2c:	1a32      	subs	r2, r6, r0
    7d2e:	2100      	movs	r1, #0
    7d30:	4440      	add	r0, r8
    7d32:	f003 f8b3 	bl	ae9c <memchr>
    7d36:	2800      	cmp	r0, #0
    7d38:	d1da      	bne.n	7cf0 <two_way_long_needle+0x138>
    7d3a:	2e00      	cmp	r6, #0
    7d3c:	d0d8      	beq.n	7cf0 <two_way_long_needle+0x138>
    7d3e:	4643      	mov	r3, r8
    7d40:	2108      	movs	r1, #8
    7d42:	199b      	adds	r3, r3, r6
    7d44:	3b01      	subs	r3, #1
    7d46:	781b      	ldrb	r3, [r3, #0]
    7d48:	aa02      	add	r2, sp, #8
    7d4a:	009b      	lsls	r3, r3, #2
    7d4c:	1852      	adds	r2, r2, r1
    7d4e:	58d3      	ldr	r3, [r2, r3]
    7d50:	2b00      	cmp	r3, #0
    7d52:	d122      	bne.n	7d9a <two_way_long_needle+0x1e2>
    7d54:	4643      	mov	r3, r8
    7d56:	19d8      	adds	r0, r3, r7
    7d58:	45a3      	cmp	fp, r4
    7d5a:	d20c      	bcs.n	7d76 <two_way_long_needle+0x1be>
    7d5c:	465b      	mov	r3, fp
    7d5e:	5cc1      	ldrb	r1, [r0, r3]
    7d60:	5cea      	ldrb	r2, [r5, r3]
    7d62:	4291      	cmp	r1, r2
    7d64:	d004      	beq.n	7d70 <two_way_long_needle+0x1b8>
    7d66:	e015      	b.n	7d94 <two_way_long_needle+0x1dc>
    7d68:	5ce9      	ldrb	r1, [r5, r3]
    7d6a:	5cc2      	ldrb	r2, [r0, r3]
    7d6c:	4291      	cmp	r1, r2
    7d6e:	d111      	bne.n	7d94 <two_way_long_needle+0x1dc>
    7d70:	3301      	adds	r3, #1
    7d72:	42a3      	cmp	r3, r4
    7d74:	d3f8      	bcc.n	7d68 <two_way_long_needle+0x1b0>
    7d76:	465b      	mov	r3, fp
    7d78:	3b01      	subs	r3, #1
    7d7a:	d202      	bcs.n	7d82 <two_way_long_needle+0x1ca>
    7d7c:	e7b9      	b.n	7cf2 <two_way_long_needle+0x13a>
    7d7e:	3b01      	subs	r3, #1
    7d80:	d3b7      	bcc.n	7cf2 <two_way_long_needle+0x13a>
    7d82:	5ce9      	ldrb	r1, [r5, r3]
    7d84:	5cc2      	ldrb	r2, [r0, r3]
    7d86:	4291      	cmp	r1, r2
    7d88:	d0f9      	beq.n	7d7e <two_way_long_needle+0x1c6>
    7d8a:	9b03      	ldr	r3, [sp, #12]
    7d8c:	0030      	movs	r0, r6
    7d8e:	469c      	mov	ip, r3
    7d90:	4467      	add	r7, ip
    7d92:	e7c9      	b.n	7d28 <two_way_long_needle+0x170>
    7d94:	9a00      	ldr	r2, [sp, #0]
    7d96:	4694      	mov	ip, r2
    7d98:	4467      	add	r7, ip
    7d9a:	18ff      	adds	r7, r7, r3
    7d9c:	0030      	movs	r0, r6
    7d9e:	e7c3      	b.n	7d28 <two_way_long_needle+0x170>
    7da0:	465b      	mov	r3, fp
    7da2:	e7b2      	b.n	7d0a <two_way_long_needle+0x152>
    7da4:	9900      	ldr	r1, [sp, #0]
    7da6:	e79a      	b.n	7cde <two_way_long_needle+0x126>
    7da8:	0019      	movs	r1, r3
    7daa:	e798      	b.n	7cde <two_way_long_needle+0x126>
    7dac:	4640      	mov	r0, r8
    7dae:	4450      	add	r0, sl
    7db0:	e79f      	b.n	7cf2 <two_way_long_needle+0x13a>
    7db2:	46c0      	nop			; (mov r8, r8)
    7db4:	fffffbec 	.word	0xfffffbec
    7db8:	00000414 	.word	0x00000414

00007dbc <strstr>:
    7dbc:	b5f0      	push	{r4, r5, r6, r7, lr}
    7dbe:	4657      	mov	r7, sl
    7dc0:	4645      	mov	r5, r8
    7dc2:	46de      	mov	lr, fp
    7dc4:	464e      	mov	r6, r9
    7dc6:	b5e0      	push	{r5, r6, r7, lr}
    7dc8:	7803      	ldrb	r3, [r0, #0]
    7dca:	b085      	sub	sp, #20
    7dcc:	0007      	movs	r7, r0
    7dce:	000d      	movs	r5, r1
    7dd0:	2b00      	cmp	r3, #0
    7dd2:	d035      	beq.n	7e40 <strstr+0x84>
    7dd4:	7809      	ldrb	r1, [r1, #0]
    7dd6:	1e0a      	subs	r2, r1, #0
    7dd8:	d100      	bne.n	7ddc <strstr+0x20>
    7dda:	e09f      	b.n	7f1c <strstr+0x160>
    7ddc:	002c      	movs	r4, r5
    7dde:	2601      	movs	r6, #1
    7de0:	e002      	b.n	7de8 <strstr+0x2c>
    7de2:	7822      	ldrb	r2, [r4, #0]
    7de4:	2a00      	cmp	r2, #0
    7de6:	d00b      	beq.n	7e00 <strstr+0x44>
    7de8:	1a9b      	subs	r3, r3, r2
    7dea:	425a      	negs	r2, r3
    7dec:	4153      	adcs	r3, r2
    7dee:	3001      	adds	r0, #1
    7df0:	401e      	ands	r6, r3
    7df2:	7803      	ldrb	r3, [r0, #0]
    7df4:	3401      	adds	r4, #1
    7df6:	2b00      	cmp	r3, #0
    7df8:	d1f3      	bne.n	7de2 <strstr+0x26>
    7dfa:	7823      	ldrb	r3, [r4, #0]
    7dfc:	2b00      	cmp	r3, #0
    7dfe:	d122      	bne.n	7e46 <strstr+0x8a>
    7e00:	0038      	movs	r0, r7
    7e02:	2e00      	cmp	r6, #0
    7e04:	d006      	beq.n	7e14 <strstr+0x58>
    7e06:	b005      	add	sp, #20
    7e08:	bc3c      	pop	{r2, r3, r4, r5}
    7e0a:	4690      	mov	r8, r2
    7e0c:	4699      	mov	r9, r3
    7e0e:	46a2      	mov	sl, r4
    7e10:	46ab      	mov	fp, r5
    7e12:	bdf0      	pop	{r4, r5, r6, r7, pc}
    7e14:	1c78      	adds	r0, r7, #1
    7e16:	f003 fc11 	bl	b63c <strchr>
    7e1a:	1b64      	subs	r4, r4, r5
    7e1c:	1e06      	subs	r6, r0, #0
    7e1e:	d012      	beq.n	7e46 <strstr+0x8a>
    7e20:	2c01      	cmp	r4, #1
    7e22:	d0f0      	beq.n	7e06 <strstr+0x4a>
    7e24:	193f      	adds	r7, r7, r4
    7e26:	2101      	movs	r1, #1
    7e28:	42b8      	cmp	r0, r7
    7e2a:	d800      	bhi.n	7e2e <strstr+0x72>
    7e2c:	1a39      	subs	r1, r7, r0
    7e2e:	000f      	movs	r7, r1
    7e30:	2c1f      	cmp	r4, #31
    7e32:	d90a      	bls.n	7e4a <strstr+0x8e>
    7e34:	0023      	movs	r3, r4
    7e36:	002a      	movs	r2, r5
    7e38:	0030      	movs	r0, r6
    7e3a:	f7ff febd 	bl	7bb8 <two_way_long_needle>
    7e3e:	e7e2      	b.n	7e06 <strstr+0x4a>
    7e40:	780b      	ldrb	r3, [r1, #0]
    7e42:	2b00      	cmp	r3, #0
    7e44:	d06a      	beq.n	7f1c <strstr+0x160>
    7e46:	2000      	movs	r0, #0
    7e48:	e7dd      	b.n	7e06 <strstr+0x4a>
    7e4a:	aa03      	add	r2, sp, #12
    7e4c:	0021      	movs	r1, r4
    7e4e:	0028      	movs	r0, r5
    7e50:	f7ff fe52 	bl	7af8 <critical_factorization>
    7e54:	9b03      	ldr	r3, [sp, #12]
    7e56:	4680      	mov	r8, r0
    7e58:	0002      	movs	r2, r0
    7e5a:	18e9      	adds	r1, r5, r3
    7e5c:	0028      	movs	r0, r5
    7e5e:	f003 f85d 	bl	af1c <memcmp>
    7e62:	2800      	cmp	r0, #0
    7e64:	d15c      	bne.n	7f20 <strstr+0x164>
    7e66:	2300      	movs	r3, #0
    7e68:	4699      	mov	r9, r3
    7e6a:	4643      	mov	r3, r8
    7e6c:	3b01      	subs	r3, #1
    7e6e:	9300      	str	r3, [sp, #0]
    7e70:	4642      	mov	r2, r8
    7e72:	2301      	movs	r3, #1
    7e74:	46b2      	mov	sl, r6
    7e76:	0038      	movs	r0, r7
    7e78:	464e      	mov	r6, r9
    7e7a:	464f      	mov	r7, r9
    7e7c:	1a9b      	subs	r3, r3, r2
    7e7e:	9301      	str	r3, [sp, #4]
    7e80:	19e3      	adds	r3, r4, r7
    7e82:	1a1a      	subs	r2, r3, r0
    7e84:	2100      	movs	r1, #0
    7e86:	4450      	add	r0, sl
    7e88:	4699      	mov	r9, r3
    7e8a:	f003 f807 	bl	ae9c <memchr>
    7e8e:	2800      	cmp	r0, #0
    7e90:	d1d9      	bne.n	7e46 <strstr+0x8a>
    7e92:	464b      	mov	r3, r9
    7e94:	2b00      	cmp	r3, #0
    7e96:	d0d6      	beq.n	7e46 <strstr+0x8a>
    7e98:	4643      	mov	r3, r8
    7e9a:	45b0      	cmp	r8, r6
    7e9c:	d200      	bcs.n	7ea0 <strstr+0xe4>
    7e9e:	0033      	movs	r3, r6
    7ea0:	429c      	cmp	r4, r3
    7ea2:	d90f      	bls.n	7ec4 <strstr+0x108>
    7ea4:	4652      	mov	r2, sl
    7ea6:	18d2      	adds	r2, r2, r3
    7ea8:	5ce9      	ldrb	r1, [r5, r3]
    7eaa:	5dd2      	ldrb	r2, [r2, r7]
    7eac:	4291      	cmp	r1, r2
    7eae:	d12e      	bne.n	7f0e <strstr+0x152>
    7eb0:	4652      	mov	r2, sl
    7eb2:	19d0      	adds	r0, r2, r7
    7eb4:	e003      	b.n	7ebe <strstr+0x102>
    7eb6:	5ce9      	ldrb	r1, [r5, r3]
    7eb8:	5cc2      	ldrb	r2, [r0, r3]
    7eba:	4291      	cmp	r1, r2
    7ebc:	d127      	bne.n	7f0e <strstr+0x152>
    7ebe:	3301      	adds	r3, #1
    7ec0:	429c      	cmp	r4, r3
    7ec2:	d1f8      	bne.n	7eb6 <strstr+0xfa>
    7ec4:	9a00      	ldr	r2, [sp, #0]
    7ec6:	45b0      	cmp	r8, r6
    7ec8:	d976      	bls.n	7fb8 <strstr+0x1fc>
    7eca:	46bc      	mov	ip, r7
    7ecc:	44d4      	add	ip, sl
    7ece:	4661      	mov	r1, ip
    7ed0:	9b00      	ldr	r3, [sp, #0]
    7ed2:	5cc9      	ldrb	r1, [r1, r3]
    7ed4:	5ceb      	ldrb	r3, [r5, r3]
    7ed6:	4299      	cmp	r1, r3
    7ed8:	d16e      	bne.n	7fb8 <strstr+0x1fc>
    7eda:	1e73      	subs	r3, r6, #1
    7edc:	469b      	mov	fp, r3
    7ede:	4663      	mov	r3, ip
    7ee0:	46a4      	mov	ip, r4
    7ee2:	465c      	mov	r4, fp
    7ee4:	46b3      	mov	fp, r6
    7ee6:	001e      	movs	r6, r3
    7ee8:	e004      	b.n	7ef4 <strstr+0x138>
    7eea:	5ce8      	ldrb	r0, [r5, r3]
    7eec:	5cf1      	ldrb	r1, [r6, r3]
    7eee:	4288      	cmp	r0, r1
    7ef0:	d103      	bne.n	7efa <strstr+0x13e>
    7ef2:	001a      	movs	r2, r3
    7ef4:	1e53      	subs	r3, r2, #1
    7ef6:	42a3      	cmp	r3, r4
    7ef8:	d1f7      	bne.n	7eea <strstr+0x12e>
    7efa:	4664      	mov	r4, ip
    7efc:	465e      	mov	r6, fp
    7efe:	3601      	adds	r6, #1
    7f00:	4296      	cmp	r6, r2
    7f02:	d85b      	bhi.n	7fbc <strstr+0x200>
    7f04:	9e03      	ldr	r6, [sp, #12]
    7f06:	4648      	mov	r0, r9
    7f08:	19bf      	adds	r7, r7, r6
    7f0a:	1ba6      	subs	r6, r4, r6
    7f0c:	e7b8      	b.n	7e80 <strstr+0xc4>
    7f0e:	9a01      	ldr	r2, [sp, #4]
    7f10:	2600      	movs	r6, #0
    7f12:	4694      	mov	ip, r2
    7f14:	4467      	add	r7, ip
    7f16:	18ff      	adds	r7, r7, r3
    7f18:	4648      	mov	r0, r9
    7f1a:	e7b1      	b.n	7e80 <strstr+0xc4>
    7f1c:	0038      	movs	r0, r7
    7f1e:	e772      	b.n	7e06 <strstr+0x4a>
    7f20:	4643      	mov	r3, r8
    7f22:	1ae3      	subs	r3, r4, r3
    7f24:	4543      	cmp	r3, r8
    7f26:	d200      	bcs.n	7f2a <strstr+0x16e>
    7f28:	4643      	mov	r3, r8
    7f2a:	3301      	adds	r3, #1
    7f2c:	9303      	str	r3, [sp, #12]
    7f2e:	2300      	movs	r3, #0
    7f30:	4642      	mov	r2, r8
    7f32:	4699      	mov	r9, r3
    7f34:	3301      	adds	r3, #1
    7f36:	1a9b      	subs	r3, r3, r2
    7f38:	464a      	mov	r2, r9
    7f3a:	46b3      	mov	fp, r6
    7f3c:	46b1      	mov	r9, r6
    7f3e:	0038      	movs	r0, r7
    7f40:	469a      	mov	sl, r3
    7f42:	0016      	movs	r6, r2
    7f44:	44c3      	add	fp, r8
    7f46:	19a7      	adds	r7, r4, r6
    7f48:	1a3a      	subs	r2, r7, r0
    7f4a:	2100      	movs	r1, #0
    7f4c:	4448      	add	r0, r9
    7f4e:	f002 ffa5 	bl	ae9c <memchr>
    7f52:	2800      	cmp	r0, #0
    7f54:	d000      	beq.n	7f58 <strstr+0x19c>
    7f56:	e776      	b.n	7e46 <strstr+0x8a>
    7f58:	2f00      	cmp	r7, #0
    7f5a:	d100      	bne.n	7f5e <strstr+0x1a2>
    7f5c:	e773      	b.n	7e46 <strstr+0x8a>
    7f5e:	464b      	mov	r3, r9
    7f60:	1998      	adds	r0, r3, r6
    7f62:	4544      	cmp	r4, r8
    7f64:	d90f      	bls.n	7f86 <strstr+0x1ca>
    7f66:	465b      	mov	r3, fp
    7f68:	5d99      	ldrb	r1, [r3, r6]
    7f6a:	4643      	mov	r3, r8
    7f6c:	4648      	mov	r0, r9
    7f6e:	5cea      	ldrb	r2, [r5, r3]
    7f70:	1980      	adds	r0, r0, r6
    7f72:	4291      	cmp	r1, r2
    7f74:	d004      	beq.n	7f80 <strstr+0x1c4>
    7f76:	e016      	b.n	7fa6 <strstr+0x1ea>
    7f78:	5ce9      	ldrb	r1, [r5, r3]
    7f7a:	5cc2      	ldrb	r2, [r0, r3]
    7f7c:	4291      	cmp	r1, r2
    7f7e:	d112      	bne.n	7fa6 <strstr+0x1ea>
    7f80:	3301      	adds	r3, #1
    7f82:	429c      	cmp	r4, r3
    7f84:	d1f8      	bne.n	7f78 <strstr+0x1bc>
    7f86:	4643      	mov	r3, r8
    7f88:	3b01      	subs	r3, #1
    7f8a:	d200      	bcs.n	7f8e <strstr+0x1d2>
    7f8c:	e73b      	b.n	7e06 <strstr+0x4a>
    7f8e:	5cc1      	ldrb	r1, [r0, r3]
    7f90:	5cea      	ldrb	r2, [r5, r3]
    7f92:	4291      	cmp	r1, r2
    7f94:	d004      	beq.n	7fa0 <strstr+0x1e4>
    7f96:	e00a      	b.n	7fae <strstr+0x1f2>
    7f98:	5ce9      	ldrb	r1, [r5, r3]
    7f9a:	5cc2      	ldrb	r2, [r0, r3]
    7f9c:	4291      	cmp	r1, r2
    7f9e:	d106      	bne.n	7fae <strstr+0x1f2>
    7fa0:	3b01      	subs	r3, #1
    7fa2:	d2f9      	bcs.n	7f98 <strstr+0x1dc>
    7fa4:	e72f      	b.n	7e06 <strstr+0x4a>
    7fa6:	4456      	add	r6, sl
    7fa8:	18f6      	adds	r6, r6, r3
    7faa:	0038      	movs	r0, r7
    7fac:	e7cb      	b.n	7f46 <strstr+0x18a>
    7fae:	9b03      	ldr	r3, [sp, #12]
    7fb0:	0038      	movs	r0, r7
    7fb2:	469c      	mov	ip, r3
    7fb4:	4466      	add	r6, ip
    7fb6:	e7c6      	b.n	7f46 <strstr+0x18a>
    7fb8:	4642      	mov	r2, r8
    7fba:	e7a0      	b.n	7efe <strstr+0x142>
    7fbc:	46b9      	mov	r9, r7
    7fbe:	4650      	mov	r0, sl
    7fc0:	4448      	add	r0, r9
    7fc2:	e720      	b.n	7e06 <strstr+0x4a>

00007fc4 <strtok>:
    7fc4:	4b03      	ldr	r3, [pc, #12]	; (7fd4 <strtok+0x10>)
    7fc6:	b510      	push	{r4, lr}
    7fc8:	681a      	ldr	r2, [r3, #0]
    7fca:	2301      	movs	r3, #1
    7fcc:	325c      	adds	r2, #92	; 0x5c
    7fce:	f000 f803 	bl	7fd8 <__strtok_r>
    7fd2:	bd10      	pop	{r4, pc}
    7fd4:	20000014 	.word	0x20000014

00007fd8 <__strtok_r>:
    7fd8:	b5f0      	push	{r4, r5, r6, r7, lr}
    7fda:	2800      	cmp	r0, #0
    7fdc:	d024      	beq.n	8028 <__strtok_r+0x50>
    7fde:	1c47      	adds	r7, r0, #1
    7fe0:	7806      	ldrb	r6, [r0, #0]
    7fe2:	000c      	movs	r4, r1
    7fe4:	e002      	b.n	7fec <__strtok_r+0x14>
    7fe6:	3401      	adds	r4, #1
    7fe8:	42ae      	cmp	r6, r5
    7fea:	d015      	beq.n	8018 <__strtok_r+0x40>
    7fec:	7825      	ldrb	r5, [r4, #0]
    7fee:	2d00      	cmp	r5, #0
    7ff0:	d1f9      	bne.n	7fe6 <__strtok_r+0xe>
    7ff2:	2e00      	cmp	r6, #0
    7ff4:	d01d      	beq.n	8032 <__strtok_r+0x5a>
    7ff6:	1c7e      	adds	r6, r7, #1
    7ff8:	783d      	ldrb	r5, [r7, #0]
    7ffa:	000b      	movs	r3, r1
    7ffc:	e002      	b.n	8004 <__strtok_r+0x2c>
    7ffe:	3301      	adds	r3, #1
    8000:	2c00      	cmp	r4, #0
    8002:	d00d      	beq.n	8020 <__strtok_r+0x48>
    8004:	781c      	ldrb	r4, [r3, #0]
    8006:	42a5      	cmp	r5, r4
    8008:	d1f9      	bne.n	7ffe <__strtok_r+0x26>
    800a:	2d00      	cmp	r5, #0
    800c:	d00a      	beq.n	8024 <__strtok_r+0x4c>
    800e:	2100      	movs	r1, #0
    8010:	1e73      	subs	r3, r6, #1
    8012:	7019      	strb	r1, [r3, #0]
    8014:	6016      	str	r6, [r2, #0]
    8016:	bdf0      	pop	{r4, r5, r6, r7, pc}
    8018:	2b00      	cmp	r3, #0
    801a:	d00d      	beq.n	8038 <__strtok_r+0x60>
    801c:	0038      	movs	r0, r7
    801e:	e7de      	b.n	7fde <__strtok_r+0x6>
    8020:	0037      	movs	r7, r6
    8022:	e7e8      	b.n	7ff6 <__strtok_r+0x1e>
    8024:	2600      	movs	r6, #0
    8026:	e7f5      	b.n	8014 <__strtok_r+0x3c>
    8028:	6810      	ldr	r0, [r2, #0]
    802a:	2800      	cmp	r0, #0
    802c:	d1d7      	bne.n	7fde <__strtok_r+0x6>
    802e:	2000      	movs	r0, #0
    8030:	e7f1      	b.n	8016 <__strtok_r+0x3e>
    8032:	6016      	str	r6, [r2, #0]
    8034:	2000      	movs	r0, #0
    8036:	e7ee      	b.n	8016 <__strtok_r+0x3e>
    8038:	6017      	str	r7, [r2, #0]
    803a:	7003      	strb	r3, [r0, #0]
    803c:	e7eb      	b.n	8016 <__strtok_r+0x3e>
    803e:	46c0      	nop			; (mov r8, r8)

00008040 <_strtol_l.isra.0>:
    8040:	b5f0      	push	{r4, r5, r6, r7, lr}
    8042:	4657      	mov	r7, sl
    8044:	464e      	mov	r6, r9
    8046:	46de      	mov	lr, fp
    8048:	4645      	mov	r5, r8
    804a:	b5e0      	push	{r5, r6, r7, lr}
    804c:	001e      	movs	r6, r3
    804e:	2308      	movs	r3, #8
    8050:	b083      	sub	sp, #12
    8052:	9001      	str	r0, [sp, #4]
    8054:	9100      	str	r1, [sp, #0]
    8056:	4692      	mov	sl, r2
    8058:	000f      	movs	r7, r1
    805a:	4699      	mov	r9, r3
    805c:	e000      	b.n	8060 <_strtol_l.isra.0+0x20>
    805e:	002f      	movs	r7, r5
    8060:	980c      	ldr	r0, [sp, #48]	; 0x30
    8062:	783c      	ldrb	r4, [r7, #0]
    8064:	f002 fc3a 	bl	a8dc <__locale_ctype_ptr_l>
    8068:	464a      	mov	r2, r9
    806a:	1900      	adds	r0, r0, r4
    806c:	7843      	ldrb	r3, [r0, #1]
    806e:	1c7d      	adds	r5, r7, #1
    8070:	421a      	tst	r2, r3
    8072:	d1f4      	bne.n	805e <_strtol_l.isra.0+0x1e>
    8074:	2c2d      	cmp	r4, #45	; 0x2d
    8076:	d04f      	beq.n	8118 <_strtol_l.isra.0+0xd8>
    8078:	2300      	movs	r3, #0
    807a:	4698      	mov	r8, r3
    807c:	2c2b      	cmp	r4, #43	; 0x2b
    807e:	d05c      	beq.n	813a <_strtol_l.isra.0+0xfa>
    8080:	2e00      	cmp	r6, #0
    8082:	d003      	beq.n	808c <_strtol_l.isra.0+0x4c>
    8084:	2e10      	cmp	r6, #16
    8086:	d05b      	beq.n	8140 <_strtol_l.isra.0+0x100>
    8088:	0037      	movs	r7, r6
    808a:	e003      	b.n	8094 <_strtol_l.isra.0+0x54>
    808c:	2c30      	cmp	r4, #48	; 0x30
    808e:	d063      	beq.n	8158 <_strtol_l.isra.0+0x118>
    8090:	270a      	movs	r7, #10
    8092:	260a      	movs	r6, #10
    8094:	4b35      	ldr	r3, [pc, #212]	; (816c <_strtol_l.isra.0+0x12c>)
    8096:	0039      	movs	r1, r7
    8098:	4443      	add	r3, r8
    809a:	0018      	movs	r0, r3
    809c:	4699      	mov	r9, r3
    809e:	f7fd fcb1 	bl	5a04 <__aeabi_uidivmod>
    80a2:	4648      	mov	r0, r9
    80a4:	468b      	mov	fp, r1
    80a6:	0039      	movs	r1, r7
    80a8:	f7fd fc26 	bl	58f8 <__udivsi3>
    80ac:	2200      	movs	r2, #0
    80ae:	0001      	movs	r1, r0
    80b0:	2000      	movs	r0, #0
    80b2:	0023      	movs	r3, r4
    80b4:	3b30      	subs	r3, #48	; 0x30
    80b6:	2b09      	cmp	r3, #9
    80b8:	d907      	bls.n	80ca <_strtol_l.isra.0+0x8a>
    80ba:	3b11      	subs	r3, #17
    80bc:	2b19      	cmp	r3, #25
    80be:	d903      	bls.n	80c8 <_strtol_l.isra.0+0x88>
    80c0:	0023      	movs	r3, r4
    80c2:	3b61      	subs	r3, #97	; 0x61
    80c4:	2b19      	cmp	r3, #25
    80c6:	d80d      	bhi.n	80e4 <_strtol_l.isra.0+0xa4>
    80c8:	330a      	adds	r3, #10
    80ca:	429e      	cmp	r6, r3
    80cc:	dd0a      	ble.n	80e4 <_strtol_l.isra.0+0xa4>
    80ce:	1c54      	adds	r4, r2, #1
    80d0:	d005      	beq.n	80de <_strtol_l.isra.0+0x9e>
    80d2:	4281      	cmp	r1, r0
    80d4:	d31d      	bcc.n	8112 <_strtol_l.isra.0+0xd2>
    80d6:	d01a      	beq.n	810e <_strtol_l.isra.0+0xce>
    80d8:	2201      	movs	r2, #1
    80da:	4378      	muls	r0, r7
    80dc:	1818      	adds	r0, r3, r0
    80de:	782c      	ldrb	r4, [r5, #0]
    80e0:	3501      	adds	r5, #1
    80e2:	e7e6      	b.n	80b2 <_strtol_l.isra.0+0x72>
    80e4:	1c53      	adds	r3, r2, #1
    80e6:	d01c      	beq.n	8122 <_strtol_l.isra.0+0xe2>
    80e8:	4643      	mov	r3, r8
    80ea:	2b00      	cmp	r3, #0
    80ec:	d000      	beq.n	80f0 <_strtol_l.isra.0+0xb0>
    80ee:	4240      	negs	r0, r0
    80f0:	4653      	mov	r3, sl
    80f2:	2b00      	cmp	r3, #0
    80f4:	d004      	beq.n	8100 <_strtol_l.isra.0+0xc0>
    80f6:	9b00      	ldr	r3, [sp, #0]
    80f8:	2a00      	cmp	r2, #0
    80fa:	d11c      	bne.n	8136 <_strtol_l.isra.0+0xf6>
    80fc:	4652      	mov	r2, sl
    80fe:	6013      	str	r3, [r2, #0]
    8100:	b003      	add	sp, #12
    8102:	bc3c      	pop	{r2, r3, r4, r5}
    8104:	4690      	mov	r8, r2
    8106:	4699      	mov	r9, r3
    8108:	46a2      	mov	sl, r4
    810a:	46ab      	mov	fp, r5
    810c:	bdf0      	pop	{r4, r5, r6, r7, pc}
    810e:	459b      	cmp	fp, r3
    8110:	dae2      	bge.n	80d8 <_strtol_l.isra.0+0x98>
    8112:	2201      	movs	r2, #1
    8114:	4252      	negs	r2, r2
    8116:	e7e2      	b.n	80de <_strtol_l.isra.0+0x9e>
    8118:	2301      	movs	r3, #1
    811a:	782c      	ldrb	r4, [r5, #0]
    811c:	4698      	mov	r8, r3
    811e:	1cbd      	adds	r5, r7, #2
    8120:	e7ae      	b.n	8080 <_strtol_l.isra.0+0x40>
    8122:	2322      	movs	r3, #34	; 0x22
    8124:	9a01      	ldr	r2, [sp, #4]
    8126:	4648      	mov	r0, r9
    8128:	6013      	str	r3, [r2, #0]
    812a:	4653      	mov	r3, sl
    812c:	2b00      	cmp	r3, #0
    812e:	d0e7      	beq.n	8100 <_strtol_l.isra.0+0xc0>
    8130:	1e6b      	subs	r3, r5, #1
    8132:	4648      	mov	r0, r9
    8134:	e7e2      	b.n	80fc <_strtol_l.isra.0+0xbc>
    8136:	4681      	mov	r9, r0
    8138:	e7fa      	b.n	8130 <_strtol_l.isra.0+0xf0>
    813a:	782c      	ldrb	r4, [r5, #0]
    813c:	1cbd      	adds	r5, r7, #2
    813e:	e79f      	b.n	8080 <_strtol_l.isra.0+0x40>
    8140:	2c30      	cmp	r4, #48	; 0x30
    8142:	d111      	bne.n	8168 <_strtol_l.isra.0+0x128>
    8144:	2220      	movs	r2, #32
    8146:	782b      	ldrb	r3, [r5, #0]
    8148:	4393      	bics	r3, r2
    814a:	2b58      	cmp	r3, #88	; 0x58
    814c:	d10c      	bne.n	8168 <_strtol_l.isra.0+0x128>
    814e:	786c      	ldrb	r4, [r5, #1]
    8150:	2710      	movs	r7, #16
    8152:	3502      	adds	r5, #2
    8154:	2610      	movs	r6, #16
    8156:	e79d      	b.n	8094 <_strtol_l.isra.0+0x54>
    8158:	2220      	movs	r2, #32
    815a:	782b      	ldrb	r3, [r5, #0]
    815c:	4393      	bics	r3, r2
    815e:	2b58      	cmp	r3, #88	; 0x58
    8160:	d0f5      	beq.n	814e <_strtol_l.isra.0+0x10e>
    8162:	2708      	movs	r7, #8
    8164:	2608      	movs	r6, #8
    8166:	e795      	b.n	8094 <_strtol_l.isra.0+0x54>
    8168:	2710      	movs	r7, #16
    816a:	e793      	b.n	8094 <_strtol_l.isra.0+0x54>
    816c:	7fffffff 	.word	0x7fffffff

00008170 <strtol>:
    8170:	0013      	movs	r3, r2
    8172:	4a08      	ldr	r2, [pc, #32]	; (8194 <strtol+0x24>)
    8174:	b530      	push	{r4, r5, lr}
    8176:	0005      	movs	r5, r0
    8178:	6810      	ldr	r0, [r2, #0]
    817a:	b083      	sub	sp, #12
    817c:	6b44      	ldr	r4, [r0, #52]	; 0x34
    817e:	2c00      	cmp	r4, #0
    8180:	d006      	beq.n	8190 <strtol+0x20>
    8182:	000a      	movs	r2, r1
    8184:	9400      	str	r4, [sp, #0]
    8186:	0029      	movs	r1, r5
    8188:	f7ff ff5a 	bl	8040 <_strtol_l.isra.0>
    818c:	b003      	add	sp, #12
    818e:	bd30      	pop	{r4, r5, pc}
    8190:	4c01      	ldr	r4, [pc, #4]	; (8198 <strtol+0x28>)
    8192:	e7f6      	b.n	8182 <strtol+0x12>
    8194:	20000014 	.word	0x20000014
    8198:	20000444 	.word	0x20000444

0000819c <_svfprintf_r>:
    819c:	b5f0      	push	{r4, r5, r6, r7, lr}
    819e:	46de      	mov	lr, fp
    81a0:	4645      	mov	r5, r8
    81a2:	4657      	mov	r7, sl
    81a4:	464e      	mov	r6, r9
    81a6:	b5e0      	push	{r5, r6, r7, lr}
    81a8:	b0c3      	sub	sp, #268	; 0x10c
    81aa:	000d      	movs	r5, r1
    81ac:	9106      	str	r1, [sp, #24]
    81ae:	0014      	movs	r4, r2
    81b0:	930f      	str	r3, [sp, #60]	; 0x3c
    81b2:	9009      	str	r0, [sp, #36]	; 0x24
    81b4:	f002 fb96 	bl	a8e4 <_localeconv_r>
    81b8:	6803      	ldr	r3, [r0, #0]
    81ba:	0018      	movs	r0, r3
    81bc:	9319      	str	r3, [sp, #100]	; 0x64
    81be:	f7ff fc69 	bl	7a94 <strlen>
    81c2:	9018      	str	r0, [sp, #96]	; 0x60
    81c4:	89ab      	ldrh	r3, [r5, #12]
    81c6:	061b      	lsls	r3, r3, #24
    81c8:	d505      	bpl.n	81d6 <_svfprintf_r+0x3a>
    81ca:	692b      	ldr	r3, [r5, #16]
    81cc:	9307      	str	r3, [sp, #28]
    81ce:	2b00      	cmp	r3, #0
    81d0:	d101      	bne.n	81d6 <_svfprintf_r+0x3a>
    81d2:	f001 f863 	bl	929c <_svfprintf_r+0x1100>
    81d6:	ab32      	add	r3, sp, #200	; 0xc8
    81d8:	9325      	str	r3, [sp, #148]	; 0x94
    81da:	2300      	movs	r3, #0
    81dc:	46a3      	mov	fp, r4
    81de:	af25      	add	r7, sp, #148	; 0x94
    81e0:	60bb      	str	r3, [r7, #8]
    81e2:	607b      	str	r3, [r7, #4]
    81e4:	9314      	str	r3, [sp, #80]	; 0x50
    81e6:	9316      	str	r3, [sp, #88]	; 0x58
    81e8:	9315      	str	r3, [sp, #84]	; 0x54
    81ea:	ae32      	add	r6, sp, #200	; 0xc8
    81ec:	9317      	str	r3, [sp, #92]	; 0x5c
    81ee:	931a      	str	r3, [sp, #104]	; 0x68
    81f0:	930a      	str	r3, [sp, #40]	; 0x28
    81f2:	465b      	mov	r3, fp
    81f4:	781b      	ldrb	r3, [r3, #0]
    81f6:	465c      	mov	r4, fp
    81f8:	2b00      	cmp	r3, #0
    81fa:	d01c      	beq.n	8236 <_svfprintf_r+0x9a>
    81fc:	2b25      	cmp	r3, #37	; 0x25
    81fe:	d102      	bne.n	8206 <_svfprintf_r+0x6a>
    8200:	e019      	b.n	8236 <_svfprintf_r+0x9a>
    8202:	2b25      	cmp	r3, #37	; 0x25
    8204:	d003      	beq.n	820e <_svfprintf_r+0x72>
    8206:	3401      	adds	r4, #1
    8208:	7823      	ldrb	r3, [r4, #0]
    820a:	2b00      	cmp	r3, #0
    820c:	d1f9      	bne.n	8202 <_svfprintf_r+0x66>
    820e:	465b      	mov	r3, fp
    8210:	1ae5      	subs	r5, r4, r3
    8212:	d010      	beq.n	8236 <_svfprintf_r+0x9a>
    8214:	465b      	mov	r3, fp
    8216:	6033      	str	r3, [r6, #0]
    8218:	68bb      	ldr	r3, [r7, #8]
    821a:	6075      	str	r5, [r6, #4]
    821c:	195b      	adds	r3, r3, r5
    821e:	60bb      	str	r3, [r7, #8]
    8220:	687b      	ldr	r3, [r7, #4]
    8222:	3301      	adds	r3, #1
    8224:	607b      	str	r3, [r7, #4]
    8226:	2b07      	cmp	r3, #7
    8228:	dc2e      	bgt.n	8288 <_svfprintf_r+0xec>
    822a:	3608      	adds	r6, #8
    822c:	9b0a      	ldr	r3, [sp, #40]	; 0x28
    822e:	469c      	mov	ip, r3
    8230:	44ac      	add	ip, r5
    8232:	4663      	mov	r3, ip
    8234:	930a      	str	r3, [sp, #40]	; 0x28
    8236:	7823      	ldrb	r3, [r4, #0]
    8238:	2b00      	cmp	r3, #0
    823a:	d02e      	beq.n	829a <_svfprintf_r+0xfe>
    823c:	1c63      	adds	r3, r4, #1
    823e:	469b      	mov	fp, r3
    8240:	2300      	movs	r3, #0
    8242:	aa16      	add	r2, sp, #88	; 0x58
    8244:	77d3      	strb	r3, [r2, #31]
    8246:	2201      	movs	r2, #1
    8248:	4252      	negs	r2, r2
    824a:	4692      	mov	sl, r2
    824c:	2200      	movs	r2, #0
    824e:	2100      	movs	r1, #0
    8250:	920b      	str	r2, [sp, #44]	; 0x2c
    8252:	3220      	adds	r2, #32
    8254:	4691      	mov	r9, r2
    8256:	3220      	adds	r2, #32
    8258:	7863      	ldrb	r3, [r4, #1]
    825a:	4688      	mov	r8, r1
    825c:	2000      	movs	r0, #0
    825e:	2400      	movs	r4, #0
    8260:	4694      	mov	ip, r2
    8262:	4659      	mov	r1, fp
    8264:	3101      	adds	r1, #1
    8266:	001a      	movs	r2, r3
    8268:	3a20      	subs	r2, #32
    826a:	2a58      	cmp	r2, #88	; 0x58
    826c:	d900      	bls.n	8270 <_svfprintf_r+0xd4>
    826e:	e2fd      	b.n	886c <_svfprintf_r+0x6d0>
    8270:	4dd7      	ldr	r5, [pc, #860]	; (85d0 <_svfprintf_r+0x434>)
    8272:	0092      	lsls	r2, r2, #2
    8274:	58aa      	ldr	r2, [r5, r2]
    8276:	4697      	mov	pc, r2
    8278:	9b0b      	ldr	r3, [sp, #44]	; 0x2c
    827a:	920f      	str	r2, [sp, #60]	; 0x3c
    827c:	425b      	negs	r3, r3
    827e:	930b      	str	r3, [sp, #44]	; 0x2c
    8280:	2304      	movs	r3, #4
    8282:	431c      	orrs	r4, r3
    8284:	780b      	ldrb	r3, [r1, #0]
    8286:	e7ed      	b.n	8264 <_svfprintf_r+0xc8>
    8288:	003a      	movs	r2, r7
    828a:	9906      	ldr	r1, [sp, #24]
    828c:	9809      	ldr	r0, [sp, #36]	; 0x24
    828e:	f003 fa43 	bl	b718 <__ssprint_r>
    8292:	2800      	cmp	r0, #0
    8294:	d109      	bne.n	82aa <_svfprintf_r+0x10e>
    8296:	ae32      	add	r6, sp, #200	; 0xc8
    8298:	e7c8      	b.n	822c <_svfprintf_r+0x90>
    829a:	68bb      	ldr	r3, [r7, #8]
    829c:	2b00      	cmp	r3, #0
    829e:	d004      	beq.n	82aa <_svfprintf_r+0x10e>
    82a0:	003a      	movs	r2, r7
    82a2:	9906      	ldr	r1, [sp, #24]
    82a4:	9809      	ldr	r0, [sp, #36]	; 0x24
    82a6:	f003 fa37 	bl	b718 <__ssprint_r>
    82aa:	9b06      	ldr	r3, [sp, #24]
    82ac:	899b      	ldrh	r3, [r3, #12]
    82ae:	065b      	lsls	r3, r3, #25
    82b0:	d501      	bpl.n	82b6 <_svfprintf_r+0x11a>
    82b2:	f001 f8ce 	bl	9452 <_svfprintf_r+0x12b6>
    82b6:	980a      	ldr	r0, [sp, #40]	; 0x28
    82b8:	b043      	add	sp, #268	; 0x10c
    82ba:	bc3c      	pop	{r2, r3, r4, r5}
    82bc:	4690      	mov	r8, r2
    82be:	4699      	mov	r9, r3
    82c0:	46a2      	mov	sl, r4
    82c2:	46ab      	mov	fp, r5
    82c4:	bdf0      	pop	{r4, r5, r6, r7, pc}
    82c6:	2201      	movs	r2, #1
    82c8:	780b      	ldrb	r3, [r1, #0]
    82ca:	4690      	mov	r8, r2
    82cc:	202b      	movs	r0, #43	; 0x2b
    82ce:	e7c9      	b.n	8264 <_svfprintf_r+0xc8>
    82d0:	1c4b      	adds	r3, r1, #1
    82d2:	469b      	mov	fp, r3
    82d4:	780b      	ldrb	r3, [r1, #0]
    82d6:	2b2a      	cmp	r3, #42	; 0x2a
    82d8:	d101      	bne.n	82de <_svfprintf_r+0x142>
    82da:	f001 fa1b 	bl	9714 <_svfprintf_r+0x1578>
    82de:	001a      	movs	r2, r3
    82e0:	2100      	movs	r1, #0
    82e2:	3a30      	subs	r2, #48	; 0x30
    82e4:	468a      	mov	sl, r1
    82e6:	4659      	mov	r1, fp
    82e8:	2a09      	cmp	r2, #9
    82ea:	d8bc      	bhi.n	8266 <_svfprintf_r+0xca>
    82ec:	0003      	movs	r3, r0
    82ee:	0011      	movs	r1, r2
    82f0:	4650      	mov	r0, sl
    82f2:	465a      	mov	r2, fp
    82f4:	469a      	mov	sl, r3
    82f6:	46a3      	mov	fp, r4
    82f8:	0083      	lsls	r3, r0, #2
    82fa:	181b      	adds	r3, r3, r0
    82fc:	7814      	ldrb	r4, [r2, #0]
    82fe:	005b      	lsls	r3, r3, #1
    8300:	1858      	adds	r0, r3, r1
    8302:	0021      	movs	r1, r4
    8304:	1c53      	adds	r3, r2, #1
    8306:	3930      	subs	r1, #48	; 0x30
    8308:	001a      	movs	r2, r3
    830a:	2909      	cmp	r1, #9
    830c:	d9f4      	bls.n	82f8 <_svfprintf_r+0x15c>
    830e:	4652      	mov	r2, sl
    8310:	0019      	movs	r1, r3
    8312:	4682      	mov	sl, r0
    8314:	0023      	movs	r3, r4
    8316:	0010      	movs	r0, r2
    8318:	465c      	mov	r4, fp
    831a:	e7a4      	b.n	8266 <_svfprintf_r+0xca>
    831c:	2380      	movs	r3, #128	; 0x80
    831e:	431c      	orrs	r4, r3
    8320:	780b      	ldrb	r3, [r1, #0]
    8322:	e79f      	b.n	8264 <_svfprintf_r+0xc8>
    8324:	468b      	mov	fp, r1
    8326:	4641      	mov	r1, r8
    8328:	9312      	str	r3, [sp, #72]	; 0x48
    832a:	2900      	cmp	r1, #0
    832c:	d001      	beq.n	8332 <_svfprintf_r+0x196>
    832e:	f001 fa1f 	bl	9770 <_svfprintf_r+0x15d4>
    8332:	2310      	movs	r3, #16
    8334:	431c      	orrs	r4, r3
    8336:	9a0f      	ldr	r2, [sp, #60]	; 0x3c
    8338:	06a3      	lsls	r3, r4, #26
    833a:	d501      	bpl.n	8340 <_svfprintf_r+0x1a4>
    833c:	f000 fe88 	bl	9050 <_svfprintf_r+0xeb4>
    8340:	06e3      	lsls	r3, r4, #27
    8342:	d501      	bpl.n	8348 <_svfprintf_r+0x1ac>
    8344:	f000 fd80 	bl	8e48 <_svfprintf_r+0xcac>
    8348:	0663      	lsls	r3, r4, #25
    834a:	d401      	bmi.n	8350 <_svfprintf_r+0x1b4>
    834c:	f000 fd7c 	bl	8e48 <_svfprintf_r+0xcac>
    8350:	2100      	movs	r1, #0
    8352:	5e53      	ldrsh	r3, [r2, r1]
    8354:	930c      	str	r3, [sp, #48]	; 0x30
    8356:	3204      	adds	r2, #4
    8358:	17db      	asrs	r3, r3, #31
    835a:	930d      	str	r3, [sp, #52]	; 0x34
    835c:	920f      	str	r2, [sp, #60]	; 0x3c
    835e:	d501      	bpl.n	8364 <_svfprintf_r+0x1c8>
    8360:	f000 fe86 	bl	9070 <_svfprintf_r+0xed4>
    8364:	990c      	ldr	r1, [sp, #48]	; 0x30
    8366:	9a0d      	ldr	r2, [sp, #52]	; 0x34
    8368:	0008      	movs	r0, r1
    836a:	ab16      	add	r3, sp, #88	; 0x58
    836c:	7fdb      	ldrb	r3, [r3, #31]
    836e:	4310      	orrs	r0, r2
    8370:	4698      	mov	r8, r3
    8372:	0002      	movs	r2, r0
    8374:	2301      	movs	r3, #1
    8376:	4651      	mov	r1, sl
    8378:	3101      	adds	r1, #1
    837a:	d100      	bne.n	837e <_svfprintf_r+0x1e2>
    837c:	e0ff      	b.n	857e <_svfprintf_r+0x3e2>
    837e:	2180      	movs	r1, #128	; 0x80
    8380:	0020      	movs	r0, r4
    8382:	4388      	bics	r0, r1
    8384:	9008      	str	r0, [sp, #32]
    8386:	2a00      	cmp	r2, #0
    8388:	d000      	beq.n	838c <_svfprintf_r+0x1f0>
    838a:	e0fc      	b.n	8586 <_svfprintf_r+0x3ea>
    838c:	4652      	mov	r2, sl
    838e:	2a00      	cmp	r2, #0
    8390:	d001      	beq.n	8396 <_svfprintf_r+0x1fa>
    8392:	f000 fc2c 	bl	8bee <_svfprintf_r+0xa52>
    8396:	2b00      	cmp	r3, #0
    8398:	d001      	beq.n	839e <_svfprintf_r+0x202>
    839a:	f000 fd04 	bl	8da6 <_svfprintf_r+0xc0a>
    839e:	2001      	movs	r0, #1
    83a0:	ab32      	add	r3, sp, #200	; 0xc8
    83a2:	4020      	ands	r0, r4
    83a4:	900e      	str	r0, [sp, #56]	; 0x38
    83a6:	9311      	str	r3, [sp, #68]	; 0x44
    83a8:	d008      	beq.n	83bc <_svfprintf_r+0x220>
    83aa:	2327      	movs	r3, #39	; 0x27
    83ac:	2130      	movs	r1, #48	; 0x30
    83ae:	aa28      	add	r2, sp, #160	; 0xa0
    83b0:	54d1      	strb	r1, [r2, r3]
    83b2:	aa16      	add	r2, sp, #88	; 0x58
    83b4:	4694      	mov	ip, r2
    83b6:	3348      	adds	r3, #72	; 0x48
    83b8:	4463      	add	r3, ip
    83ba:	9311      	str	r3, [sp, #68]	; 0x44
    83bc:	4653      	mov	r3, sl
    83be:	9a0e      	ldr	r2, [sp, #56]	; 0x38
    83c0:	9307      	str	r3, [sp, #28]
    83c2:	4592      	cmp	sl, r2
    83c4:	da00      	bge.n	83c8 <_svfprintf_r+0x22c>
    83c6:	9207      	str	r2, [sp, #28]
    83c8:	2300      	movs	r3, #0
    83ca:	9313      	str	r3, [sp, #76]	; 0x4c
    83cc:	4643      	mov	r3, r8
    83ce:	2b00      	cmp	r3, #0
    83d0:	d002      	beq.n	83d8 <_svfprintf_r+0x23c>
    83d2:	9b07      	ldr	r3, [sp, #28]
    83d4:	3301      	adds	r3, #1
    83d6:	9307      	str	r3, [sp, #28]
    83d8:	2302      	movs	r3, #2
    83da:	9a08      	ldr	r2, [sp, #32]
    83dc:	401a      	ands	r2, r3
    83de:	4691      	mov	r9, r2
    83e0:	d002      	beq.n	83e8 <_svfprintf_r+0x24c>
    83e2:	9b07      	ldr	r3, [sp, #28]
    83e4:	3302      	adds	r3, #2
    83e6:	9307      	str	r3, [sp, #28]
    83e8:	2384      	movs	r3, #132	; 0x84
    83ea:	9a08      	ldr	r2, [sp, #32]
    83ec:	401a      	ands	r2, r3
    83ee:	9210      	str	r2, [sp, #64]	; 0x40
    83f0:	d000      	beq.n	83f4 <_svfprintf_r+0x258>
    83f2:	e24d      	b.n	8890 <_svfprintf_r+0x6f4>
    83f4:	9b0b      	ldr	r3, [sp, #44]	; 0x2c
    83f6:	9a07      	ldr	r2, [sp, #28]
    83f8:	1a9c      	subs	r4, r3, r2
    83fa:	2c00      	cmp	r4, #0
    83fc:	dc00      	bgt.n	8400 <_svfprintf_r+0x264>
    83fe:	e247      	b.n	8890 <_svfprintf_r+0x6f4>
    8400:	4974      	ldr	r1, [pc, #464]	; (85d4 <_svfprintf_r+0x438>)
    8402:	68ba      	ldr	r2, [r7, #8]
    8404:	687b      	ldr	r3, [r7, #4]
    8406:	4688      	mov	r8, r1
    8408:	2c10      	cmp	r4, #16
    840a:	dd1f      	ble.n	844c <_svfprintf_r+0x2b0>
    840c:	0031      	movs	r1, r6
    840e:	2510      	movs	r5, #16
    8410:	4646      	mov	r6, r8
    8412:	e003      	b.n	841c <_svfprintf_r+0x280>
    8414:	3c10      	subs	r4, #16
    8416:	3108      	adds	r1, #8
    8418:	2c10      	cmp	r4, #16
    841a:	dd15      	ble.n	8448 <_svfprintf_r+0x2ac>
    841c:	3210      	adds	r2, #16
    841e:	3301      	adds	r3, #1
    8420:	600e      	str	r6, [r1, #0]
    8422:	604d      	str	r5, [r1, #4]
    8424:	60ba      	str	r2, [r7, #8]
    8426:	607b      	str	r3, [r7, #4]
    8428:	2b07      	cmp	r3, #7
    842a:	ddf3      	ble.n	8414 <_svfprintf_r+0x278>
    842c:	003a      	movs	r2, r7
    842e:	9906      	ldr	r1, [sp, #24]
    8430:	9809      	ldr	r0, [sp, #36]	; 0x24
    8432:	f003 f971 	bl	b718 <__ssprint_r>
    8436:	2800      	cmp	r0, #0
    8438:	d000      	beq.n	843c <_svfprintf_r+0x2a0>
    843a:	e736      	b.n	82aa <_svfprintf_r+0x10e>
    843c:	3c10      	subs	r4, #16
    843e:	68ba      	ldr	r2, [r7, #8]
    8440:	687b      	ldr	r3, [r7, #4]
    8442:	a932      	add	r1, sp, #200	; 0xc8
    8444:	2c10      	cmp	r4, #16
    8446:	dce9      	bgt.n	841c <_svfprintf_r+0x280>
    8448:	46b0      	mov	r8, r6
    844a:	000e      	movs	r6, r1
    844c:	4641      	mov	r1, r8
    844e:	6074      	str	r4, [r6, #4]
    8450:	3301      	adds	r3, #1
    8452:	18a4      	adds	r4, r4, r2
    8454:	6031      	str	r1, [r6, #0]
    8456:	60bc      	str	r4, [r7, #8]
    8458:	607b      	str	r3, [r7, #4]
    845a:	2b07      	cmp	r3, #7
    845c:	dd01      	ble.n	8462 <_svfprintf_r+0x2c6>
    845e:	f000 fca8 	bl	8db2 <_svfprintf_r+0xc16>
    8462:	ab16      	add	r3, sp, #88	; 0x58
    8464:	7fdb      	ldrb	r3, [r3, #31]
    8466:	3608      	adds	r6, #8
    8468:	4698      	mov	r8, r3
    846a:	e212      	b.n	8892 <_svfprintf_r+0x6f6>
    846c:	468b      	mov	fp, r1
    846e:	4641      	mov	r1, r8
    8470:	9312      	str	r3, [sp, #72]	; 0x48
    8472:	2900      	cmp	r1, #0
    8474:	d001      	beq.n	847a <_svfprintf_r+0x2de>
    8476:	f001 f977 	bl	9768 <_svfprintf_r+0x15cc>
    847a:	2207      	movs	r2, #7
    847c:	9b0f      	ldr	r3, [sp, #60]	; 0x3c
    847e:	3307      	adds	r3, #7
    8480:	4393      	bics	r3, r2
    8482:	3201      	adds	r2, #1
    8484:	4694      	mov	ip, r2
    8486:	449c      	add	ip, r3
    8488:	4662      	mov	r2, ip
    848a:	920f      	str	r2, [sp, #60]	; 0x3c
    848c:	681a      	ldr	r2, [r3, #0]
    848e:	9216      	str	r2, [sp, #88]	; 0x58
    8490:	685b      	ldr	r3, [r3, #4]
    8492:	2201      	movs	r2, #1
    8494:	9315      	str	r3, [sp, #84]	; 0x54
    8496:	9b15      	ldr	r3, [sp, #84]	; 0x54
    8498:	9d16      	ldr	r5, [sp, #88]	; 0x58
    849a:	005b      	lsls	r3, r3, #1
    849c:	085b      	lsrs	r3, r3, #1
    849e:	4698      	mov	r8, r3
    84a0:	4252      	negs	r2, r2
    84a2:	4b4d      	ldr	r3, [pc, #308]	; (85d8 <_svfprintf_r+0x43c>)
    84a4:	0028      	movs	r0, r5
    84a6:	4641      	mov	r1, r8
    84a8:	f7ff f846 	bl	7538 <__aeabi_dcmpun>
    84ac:	2800      	cmp	r0, #0
    84ae:	d001      	beq.n	84b4 <_svfprintf_r+0x318>
    84b0:	f000 fdfd 	bl	90ae <_svfprintf_r+0xf12>
    84b4:	2201      	movs	r2, #1
    84b6:	4b48      	ldr	r3, [pc, #288]	; (85d8 <_svfprintf_r+0x43c>)
    84b8:	4252      	negs	r2, r2
    84ba:	0028      	movs	r0, r5
    84bc:	4641      	mov	r1, r8
    84be:	f7fd fad3 	bl	5a68 <__aeabi_dcmple>
    84c2:	2800      	cmp	r0, #0
    84c4:	d001      	beq.n	84ca <_svfprintf_r+0x32e>
    84c6:	f000 fdf2 	bl	90ae <_svfprintf_r+0xf12>
    84ca:	2200      	movs	r2, #0
    84cc:	2300      	movs	r3, #0
    84ce:	9816      	ldr	r0, [sp, #88]	; 0x58
    84d0:	9915      	ldr	r1, [sp, #84]	; 0x54
    84d2:	f7fd fabf 	bl	5a54 <__aeabi_dcmplt>
    84d6:	2800      	cmp	r0, #0
    84d8:	d001      	beq.n	84de <_svfprintf_r+0x342>
    84da:	f001 f822 	bl	9522 <_svfprintf_r+0x1386>
    84de:	ab16      	add	r3, sp, #88	; 0x58
    84e0:	7fdb      	ldrb	r3, [r3, #31]
    84e2:	4698      	mov	r8, r3
    84e4:	9b12      	ldr	r3, [sp, #72]	; 0x48
    84e6:	2b47      	cmp	r3, #71	; 0x47
    84e8:	dd01      	ble.n	84ee <_svfprintf_r+0x352>
    84ea:	f000 fec7 	bl	927c <_svfprintf_r+0x10e0>
    84ee:	4b3b      	ldr	r3, [pc, #236]	; (85dc <_svfprintf_r+0x440>)
    84f0:	9311      	str	r3, [sp, #68]	; 0x44
    84f2:	2380      	movs	r3, #128	; 0x80
    84f4:	439c      	bics	r4, r3
    84f6:	3b7d      	subs	r3, #125	; 0x7d
    84f8:	9307      	str	r3, [sp, #28]
    84fa:	930e      	str	r3, [sp, #56]	; 0x38
    84fc:	2300      	movs	r3, #0
    84fe:	9408      	str	r4, [sp, #32]
    8500:	469a      	mov	sl, r3
    8502:	9313      	str	r3, [sp, #76]	; 0x4c
    8504:	e762      	b.n	83cc <_svfprintf_r+0x230>
    8506:	2200      	movs	r2, #0
    8508:	3b30      	subs	r3, #48	; 0x30
    850a:	0015      	movs	r5, r2
    850c:	001a      	movs	r2, r3
    850e:	0003      	movs	r3, r0
    8510:	9407      	str	r4, [sp, #28]
    8512:	0008      	movs	r0, r1
    8514:	002c      	movs	r4, r5
    8516:	469b      	mov	fp, r3
    8518:	00a3      	lsls	r3, r4, #2
    851a:	191c      	adds	r4, r3, r4
    851c:	7803      	ldrb	r3, [r0, #0]
    851e:	0064      	lsls	r4, r4, #1
    8520:	1914      	adds	r4, r2, r4
    8522:	001a      	movs	r2, r3
    8524:	3101      	adds	r1, #1
    8526:	3a30      	subs	r2, #48	; 0x30
    8528:	0008      	movs	r0, r1
    852a:	2a09      	cmp	r2, #9
    852c:	d9f4      	bls.n	8518 <_svfprintf_r+0x37c>
    852e:	940b      	str	r4, [sp, #44]	; 0x2c
    8530:	4658      	mov	r0, fp
    8532:	9c07      	ldr	r4, [sp, #28]
    8534:	e697      	b.n	8266 <_svfprintf_r+0xca>
    8536:	2308      	movs	r3, #8
    8538:	431c      	orrs	r4, r3
    853a:	780b      	ldrb	r3, [r1, #0]
    853c:	e692      	b.n	8264 <_svfprintf_r+0xc8>
    853e:	9312      	str	r3, [sp, #72]	; 0x48
    8540:	2310      	movs	r3, #16
    8542:	431c      	orrs	r4, r3
    8544:	468b      	mov	fp, r1
    8546:	06a3      	lsls	r3, r4, #26
    8548:	d500      	bpl.n	854c <_svfprintf_r+0x3b0>
    854a:	e17b      	b.n	8844 <_svfprintf_r+0x6a8>
    854c:	06e3      	lsls	r3, r4, #27
    854e:	d501      	bpl.n	8554 <_svfprintf_r+0x3b8>
    8550:	f000 fc7e 	bl	8e50 <_svfprintf_r+0xcb4>
    8554:	0663      	lsls	r3, r4, #25
    8556:	d401      	bmi.n	855c <_svfprintf_r+0x3c0>
    8558:	f000 fc7a 	bl	8e50 <_svfprintf_r+0xcb4>
    855c:	9b0f      	ldr	r3, [sp, #60]	; 0x3c
    855e:	881a      	ldrh	r2, [r3, #0]
    8560:	920c      	str	r2, [sp, #48]	; 0x30
    8562:	2200      	movs	r2, #0
    8564:	3304      	adds	r3, #4
    8566:	930f      	str	r3, [sp, #60]	; 0x3c
    8568:	2300      	movs	r3, #0
    856a:	920d      	str	r2, [sp, #52]	; 0x34
    856c:	9a0c      	ldr	r2, [sp, #48]	; 0x30
    856e:	2100      	movs	r1, #0
    8570:	a816      	add	r0, sp, #88	; 0x58
    8572:	77c1      	strb	r1, [r0, #31]
    8574:	4688      	mov	r8, r1
    8576:	4651      	mov	r1, sl
    8578:	3101      	adds	r1, #1
    857a:	d000      	beq.n	857e <_svfprintf_r+0x3e2>
    857c:	e6ff      	b.n	837e <_svfprintf_r+0x1e2>
    857e:	2a00      	cmp	r2, #0
    8580:	d100      	bne.n	8584 <_svfprintf_r+0x3e8>
    8582:	e335      	b.n	8bf0 <_svfprintf_r+0xa54>
    8584:	9408      	str	r4, [sp, #32]
    8586:	2b01      	cmp	r3, #1
    8588:	d100      	bne.n	858c <_svfprintf_r+0x3f0>
    858a:	e3e5      	b.n	8d58 <_svfprintf_r+0xbbc>
    858c:	2b02      	cmp	r3, #2
    858e:	d000      	beq.n	8592 <_svfprintf_r+0x3f6>
    8590:	e362      	b.n	8c58 <_svfprintf_r+0xabc>
    8592:	9c17      	ldr	r4, [sp, #92]	; 0x5c
    8594:	200f      	movs	r0, #15
    8596:	46a1      	mov	r9, r4
    8598:	46b4      	mov	ip, r6
    859a:	ab32      	add	r3, sp, #200	; 0xc8
    859c:	0019      	movs	r1, r3
    859e:	9a0c      	ldr	r2, [sp, #48]	; 0x30
    85a0:	9b0d      	ldr	r3, [sp, #52]	; 0x34
    85a2:	0004      	movs	r4, r0
    85a4:	464d      	mov	r5, r9
    85a6:	4014      	ands	r4, r2
    85a8:	5d2c      	ldrb	r4, [r5, r4]
    85aa:	071e      	lsls	r6, r3, #28
    85ac:	0915      	lsrs	r5, r2, #4
    85ae:	3901      	subs	r1, #1
    85b0:	432e      	orrs	r6, r5
    85b2:	700c      	strb	r4, [r1, #0]
    85b4:	091c      	lsrs	r4, r3, #4
    85b6:	0023      	movs	r3, r4
    85b8:	0034      	movs	r4, r6
    85ba:	0032      	movs	r2, r6
    85bc:	431c      	orrs	r4, r3
    85be:	d1f0      	bne.n	85a2 <_svfprintf_r+0x406>
    85c0:	920c      	str	r2, [sp, #48]	; 0x30
    85c2:	930d      	str	r3, [sp, #52]	; 0x34
    85c4:	ab32      	add	r3, sp, #200	; 0xc8
    85c6:	1a5b      	subs	r3, r3, r1
    85c8:	9111      	str	r1, [sp, #68]	; 0x44
    85ca:	4666      	mov	r6, ip
    85cc:	930e      	str	r3, [sp, #56]	; 0x38
    85ce:	e6f5      	b.n	83bc <_svfprintf_r+0x220>
    85d0:	0000d424 	.word	0x0000d424
    85d4:	0000d5cc 	.word	0x0000d5cc
    85d8:	7fefffff 	.word	0x7fefffff
    85dc:	0000d588 	.word	0x0000d588
    85e0:	9312      	str	r3, [sp, #72]	; 0x48
    85e2:	2310      	movs	r3, #16
    85e4:	431c      	orrs	r4, r3
    85e6:	468b      	mov	fp, r1
    85e8:	06a3      	lsls	r3, r4, #26
    85ea:	d500      	bpl.n	85ee <_svfprintf_r+0x452>
    85ec:	e111      	b.n	8812 <_svfprintf_r+0x676>
    85ee:	06e3      	lsls	r3, r4, #27
    85f0:	d501      	bpl.n	85f6 <_svfprintf_r+0x45a>
    85f2:	f000 fc31 	bl	8e58 <_svfprintf_r+0xcbc>
    85f6:	0663      	lsls	r3, r4, #25
    85f8:	d401      	bmi.n	85fe <_svfprintf_r+0x462>
    85fa:	f000 fc2d 	bl	8e58 <_svfprintf_r+0xcbc>
    85fe:	9b0f      	ldr	r3, [sp, #60]	; 0x3c
    8600:	881a      	ldrh	r2, [r3, #0]
    8602:	920c      	str	r2, [sp, #48]	; 0x30
    8604:	2200      	movs	r2, #0
    8606:	3304      	adds	r3, #4
    8608:	920d      	str	r2, [sp, #52]	; 0x34
    860a:	930f      	str	r3, [sp, #60]	; 0x3c
    860c:	9a0c      	ldr	r2, [sp, #48]	; 0x30
    860e:	2301      	movs	r3, #1
    8610:	e7ad      	b.n	856e <_svfprintf_r+0x3d2>
    8612:	468b      	mov	fp, r1
    8614:	4641      	mov	r1, r8
    8616:	9312      	str	r3, [sp, #72]	; 0x48
    8618:	2900      	cmp	r1, #0
    861a:	d001      	beq.n	8620 <_svfprintf_r+0x484>
    861c:	f001 f890 	bl	9740 <_svfprintf_r+0x15a4>
    8620:	4bb8      	ldr	r3, [pc, #736]	; (8904 <_svfprintf_r+0x768>)
    8622:	9317      	str	r3, [sp, #92]	; 0x5c
    8624:	06a3      	lsls	r3, r4, #26
    8626:	d500      	bpl.n	862a <_svfprintf_r+0x48e>
    8628:	e0ab      	b.n	8782 <_svfprintf_r+0x5e6>
    862a:	06e3      	lsls	r3, r4, #27
    862c:	d501      	bpl.n	8632 <_svfprintf_r+0x496>
    862e:	f000 fc07 	bl	8e40 <_svfprintf_r+0xca4>
    8632:	0663      	lsls	r3, r4, #25
    8634:	d401      	bmi.n	863a <_svfprintf_r+0x49e>
    8636:	f000 fc03 	bl	8e40 <_svfprintf_r+0xca4>
    863a:	9b0f      	ldr	r3, [sp, #60]	; 0x3c
    863c:	881a      	ldrh	r2, [r3, #0]
    863e:	920c      	str	r2, [sp, #48]	; 0x30
    8640:	2200      	movs	r2, #0
    8642:	3304      	adds	r3, #4
    8644:	920d      	str	r2, [sp, #52]	; 0x34
    8646:	930f      	str	r3, [sp, #60]	; 0x3c
    8648:	07e3      	lsls	r3, r4, #31
    864a:	d400      	bmi.n	864e <_svfprintf_r+0x4b2>
    864c:	e0a9      	b.n	87a2 <_svfprintf_r+0x606>
    864e:	990c      	ldr	r1, [sp, #48]	; 0x30
    8650:	9a0d      	ldr	r2, [sp, #52]	; 0x34
    8652:	000b      	movs	r3, r1
    8654:	4313      	orrs	r3, r2
    8656:	001a      	movs	r2, r3
    8658:	2302      	movs	r3, #2
    865a:	2a00      	cmp	r2, #0
    865c:	d100      	bne.n	8660 <_svfprintf_r+0x4c4>
    865e:	e786      	b.n	856e <_svfprintf_r+0x3d2>
    8660:	2030      	movs	r0, #48	; 0x30
    8662:	a91e      	add	r1, sp, #120	; 0x78
    8664:	7008      	strb	r0, [r1, #0]
    8666:	2548      	movs	r5, #72	; 0x48
    8668:	4668      	mov	r0, sp
    866a:	1940      	adds	r0, r0, r5
    866c:	7800      	ldrb	r0, [r0, #0]
    866e:	431c      	orrs	r4, r3
    8670:	7048      	strb	r0, [r1, #1]
    8672:	e77c      	b.n	856e <_svfprintf_r+0x3d2>
    8674:	468b      	mov	fp, r1
    8676:	4641      	mov	r1, r8
    8678:	2900      	cmp	r1, #0
    867a:	d001      	beq.n	8680 <_svfprintf_r+0x4e4>
    867c:	f001 f883 	bl	9786 <_svfprintf_r+0x15ea>
    8680:	06a3      	lsls	r3, r4, #26
    8682:	d501      	bpl.n	8688 <_svfprintf_r+0x4ec>
    8684:	f000 fde9 	bl	925a <_svfprintf_r+0x10be>
    8688:	06e3      	lsls	r3, r4, #27
    868a:	d501      	bpl.n	8690 <_svfprintf_r+0x4f4>
    868c:	f000 fd9b 	bl	91c6 <_svfprintf_r+0x102a>
    8690:	0663      	lsls	r3, r4, #25
    8692:	d401      	bmi.n	8698 <_svfprintf_r+0x4fc>
    8694:	f000 fd97 	bl	91c6 <_svfprintf_r+0x102a>
    8698:	4669      	mov	r1, sp
    869a:	9b0f      	ldr	r3, [sp, #60]	; 0x3c
    869c:	8d09      	ldrh	r1, [r1, #40]	; 0x28
    869e:	681a      	ldr	r2, [r3, #0]
    86a0:	3304      	adds	r3, #4
    86a2:	9207      	str	r2, [sp, #28]
    86a4:	8011      	strh	r1, [r2, #0]
    86a6:	930f      	str	r3, [sp, #60]	; 0x3c
    86a8:	e5a3      	b.n	81f2 <_svfprintf_r+0x56>
    86aa:	464b      	mov	r3, r9
    86ac:	431c      	orrs	r4, r3
    86ae:	780b      	ldrb	r3, [r1, #0]
    86b0:	e5d8      	b.n	8264 <_svfprintf_r+0xc8>
    86b2:	9312      	str	r3, [sp, #72]	; 0x48
    86b4:	9b0f      	ldr	r3, [sp, #60]	; 0x3c
    86b6:	468b      	mov	fp, r1
    86b8:	1d1d      	adds	r5, r3, #4
    86ba:	681b      	ldr	r3, [r3, #0]
    86bc:	a916      	add	r1, sp, #88	; 0x58
    86be:	001a      	movs	r2, r3
    86c0:	9311      	str	r3, [sp, #68]	; 0x44
    86c2:	2300      	movs	r3, #0
    86c4:	77cb      	strb	r3, [r1, #31]
    86c6:	2a00      	cmp	r2, #0
    86c8:	d101      	bne.n	86ce <_svfprintf_r+0x532>
    86ca:	f000 fefb 	bl	94c4 <_svfprintf_r+0x1328>
    86ce:	4653      	mov	r3, sl
    86d0:	3301      	adds	r3, #1
    86d2:	d101      	bne.n	86d8 <_svfprintf_r+0x53c>
    86d4:	f000 fe38 	bl	9348 <_svfprintf_r+0x11ac>
    86d8:	4652      	mov	r2, sl
    86da:	2100      	movs	r1, #0
    86dc:	9811      	ldr	r0, [sp, #68]	; 0x44
    86de:	f002 fbdd 	bl	ae9c <memchr>
    86e2:	2800      	cmp	r0, #0
    86e4:	d101      	bne.n	86ea <_svfprintf_r+0x54e>
    86e6:	f000 ff54 	bl	9592 <_svfprintf_r+0x13f6>
    86ea:	9b11      	ldr	r3, [sp, #68]	; 0x44
    86ec:	1ac3      	subs	r3, r0, r3
    86ee:	001a      	movs	r2, r3
    86f0:	930e      	str	r3, [sp, #56]	; 0x38
    86f2:	43db      	mvns	r3, r3
    86f4:	17db      	asrs	r3, r3, #31
    86f6:	401a      	ands	r2, r3
    86f8:	ab16      	add	r3, sp, #88	; 0x58
    86fa:	7fdb      	ldrb	r3, [r3, #31]
    86fc:	9207      	str	r2, [sp, #28]
    86fe:	4698      	mov	r8, r3
    8700:	2300      	movs	r3, #0
    8702:	950f      	str	r5, [sp, #60]	; 0x3c
    8704:	9408      	str	r4, [sp, #32]
    8706:	469a      	mov	sl, r3
    8708:	9313      	str	r3, [sp, #76]	; 0x4c
    870a:	e65f      	b.n	83cc <_svfprintf_r+0x230>
    870c:	9a0f      	ldr	r2, [sp, #60]	; 0x3c
    870e:	9312      	str	r3, [sp, #72]	; 0x48
    8710:	6813      	ldr	r3, [r2, #0]
    8712:	ad28      	add	r5, sp, #160	; 0xa0
    8714:	9307      	str	r3, [sp, #28]
    8716:	466b      	mov	r3, sp
    8718:	7f1b      	ldrb	r3, [r3, #28]
    871a:	468b      	mov	fp, r1
    871c:	702b      	strb	r3, [r5, #0]
    871e:	2300      	movs	r3, #0
    8720:	a916      	add	r1, sp, #88	; 0x58
    8722:	77cb      	strb	r3, [r1, #31]
    8724:	0013      	movs	r3, r2
    8726:	3304      	adds	r3, #4
    8728:	930f      	str	r3, [sp, #60]	; 0x3c
    872a:	2300      	movs	r3, #0
    872c:	9408      	str	r4, [sp, #32]
    872e:	4698      	mov	r8, r3
    8730:	3301      	adds	r3, #1
    8732:	9307      	str	r3, [sp, #28]
    8734:	930e      	str	r3, [sp, #56]	; 0x38
    8736:	2300      	movs	r3, #0
    8738:	9511      	str	r5, [sp, #68]	; 0x44
    873a:	469a      	mov	sl, r3
    873c:	9313      	str	r3, [sp, #76]	; 0x4c
    873e:	e64b      	b.n	83d8 <_svfprintf_r+0x23c>
    8740:	468b      	mov	fp, r1
    8742:	4641      	mov	r1, r8
    8744:	9312      	str	r3, [sp, #72]	; 0x48
    8746:	2900      	cmp	r1, #0
    8748:	d100      	bne.n	874c <_svfprintf_r+0x5b0>
    874a:	e5f4      	b.n	8336 <_svfprintf_r+0x19a>
    874c:	ab16      	add	r3, sp, #88	; 0x58
    874e:	77d8      	strb	r0, [r3, #31]
    8750:	e5f1      	b.n	8336 <_svfprintf_r+0x19a>
    8752:	4663      	mov	r3, ip
    8754:	431c      	orrs	r4, r3
    8756:	780b      	ldrb	r3, [r1, #0]
    8758:	e584      	b.n	8264 <_svfprintf_r+0xc8>
    875a:	780b      	ldrb	r3, [r1, #0]
    875c:	2b6c      	cmp	r3, #108	; 0x6c
    875e:	d101      	bne.n	8764 <_svfprintf_r+0x5c8>
    8760:	f000 fd86 	bl	9270 <_svfprintf_r+0x10d4>
    8764:	2210      	movs	r2, #16
    8766:	4314      	orrs	r4, r2
    8768:	e57c      	b.n	8264 <_svfprintf_r+0xc8>
    876a:	468b      	mov	fp, r1
    876c:	4641      	mov	r1, r8
    876e:	9312      	str	r3, [sp, #72]	; 0x48
    8770:	2900      	cmp	r1, #0
    8772:	d001      	beq.n	8778 <_svfprintf_r+0x5dc>
    8774:	f000 ffe8 	bl	9748 <_svfprintf_r+0x15ac>
    8778:	4b63      	ldr	r3, [pc, #396]	; (8908 <_svfprintf_r+0x76c>)
    877a:	9317      	str	r3, [sp, #92]	; 0x5c
    877c:	06a3      	lsls	r3, r4, #26
    877e:	d400      	bmi.n	8782 <_svfprintf_r+0x5e6>
    8780:	e753      	b.n	862a <_svfprintf_r+0x48e>
    8782:	2207      	movs	r2, #7
    8784:	9b0f      	ldr	r3, [sp, #60]	; 0x3c
    8786:	3307      	adds	r3, #7
    8788:	4393      	bics	r3, r2
    878a:	3201      	adds	r2, #1
    878c:	4694      	mov	ip, r2
    878e:	449c      	add	ip, r3
    8790:	4662      	mov	r2, ip
    8792:	920f      	str	r2, [sp, #60]	; 0x3c
    8794:	681a      	ldr	r2, [r3, #0]
    8796:	685b      	ldr	r3, [r3, #4]
    8798:	920c      	str	r2, [sp, #48]	; 0x30
    879a:	930d      	str	r3, [sp, #52]	; 0x34
    879c:	07e3      	lsls	r3, r4, #31
    879e:	d500      	bpl.n	87a2 <_svfprintf_r+0x606>
    87a0:	e755      	b.n	864e <_svfprintf_r+0x4b2>
    87a2:	990c      	ldr	r1, [sp, #48]	; 0x30
    87a4:	9a0d      	ldr	r2, [sp, #52]	; 0x34
    87a6:	0008      	movs	r0, r1
    87a8:	4310      	orrs	r0, r2
    87aa:	2302      	movs	r3, #2
    87ac:	0002      	movs	r2, r0
    87ae:	e6de      	b.n	856e <_svfprintf_r+0x3d2>
    87b0:	468b      	mov	fp, r1
    87b2:	990f      	ldr	r1, [sp, #60]	; 0x3c
    87b4:	2230      	movs	r2, #48	; 0x30
    87b6:	680b      	ldr	r3, [r1, #0]
    87b8:	930c      	str	r3, [sp, #48]	; 0x30
    87ba:	2300      	movs	r3, #0
    87bc:	930d      	str	r3, [sp, #52]	; 0x34
    87be:	3302      	adds	r3, #2
    87c0:	431c      	orrs	r4, r3
    87c2:	ab1e      	add	r3, sp, #120	; 0x78
    87c4:	701a      	strb	r2, [r3, #0]
    87c6:	3248      	adds	r2, #72	; 0x48
    87c8:	705a      	strb	r2, [r3, #1]
    87ca:	000b      	movs	r3, r1
    87cc:	3304      	adds	r3, #4
    87ce:	930f      	str	r3, [sp, #60]	; 0x3c
    87d0:	4b4d      	ldr	r3, [pc, #308]	; (8908 <_svfprintf_r+0x76c>)
    87d2:	9212      	str	r2, [sp, #72]	; 0x48
    87d4:	9317      	str	r3, [sp, #92]	; 0x5c
    87d6:	9a0c      	ldr	r2, [sp, #48]	; 0x30
    87d8:	2302      	movs	r3, #2
    87da:	e6c8      	b.n	856e <_svfprintf_r+0x3d2>
    87dc:	2301      	movs	r3, #1
    87de:	431c      	orrs	r4, r3
    87e0:	780b      	ldrb	r3, [r1, #0]
    87e2:	e53f      	b.n	8264 <_svfprintf_r+0xc8>
    87e4:	9b0f      	ldr	r3, [sp, #60]	; 0x3c
    87e6:	1d1a      	adds	r2, r3, #4
    87e8:	681b      	ldr	r3, [r3, #0]
    87ea:	930b      	str	r3, [sp, #44]	; 0x2c
    87ec:	2b00      	cmp	r3, #0
    87ee:	da00      	bge.n	87f2 <_svfprintf_r+0x656>
    87f0:	e542      	b.n	8278 <_svfprintf_r+0xdc>
    87f2:	780b      	ldrb	r3, [r1, #0]
    87f4:	920f      	str	r2, [sp, #60]	; 0x3c
    87f6:	e535      	b.n	8264 <_svfprintf_r+0xc8>
    87f8:	780b      	ldrb	r3, [r1, #0]
    87fa:	2800      	cmp	r0, #0
    87fc:	d000      	beq.n	8800 <_svfprintf_r+0x664>
    87fe:	e531      	b.n	8264 <_svfprintf_r+0xc8>
    8800:	2201      	movs	r2, #1
    8802:	3020      	adds	r0, #32
    8804:	4690      	mov	r8, r2
    8806:	e52d      	b.n	8264 <_svfprintf_r+0xc8>
    8808:	468b      	mov	fp, r1
    880a:	9312      	str	r3, [sp, #72]	; 0x48
    880c:	06a3      	lsls	r3, r4, #26
    880e:	d400      	bmi.n	8812 <_svfprintf_r+0x676>
    8810:	e6ed      	b.n	85ee <_svfprintf_r+0x452>
    8812:	2207      	movs	r2, #7
    8814:	9b0f      	ldr	r3, [sp, #60]	; 0x3c
    8816:	3307      	adds	r3, #7
    8818:	4393      	bics	r3, r2
    881a:	3201      	adds	r2, #1
    881c:	4694      	mov	ip, r2
    881e:	449c      	add	ip, r3
    8820:	4662      	mov	r2, ip
    8822:	920f      	str	r2, [sp, #60]	; 0x3c
    8824:	681a      	ldr	r2, [r3, #0]
    8826:	685b      	ldr	r3, [r3, #4]
    8828:	0011      	movs	r1, r2
    882a:	001a      	movs	r2, r3
    882c:	0008      	movs	r0, r1
    882e:	4310      	orrs	r0, r2
    8830:	910c      	str	r1, [sp, #48]	; 0x30
    8832:	920d      	str	r2, [sp, #52]	; 0x34
    8834:	2301      	movs	r3, #1
    8836:	0002      	movs	r2, r0
    8838:	e699      	b.n	856e <_svfprintf_r+0x3d2>
    883a:	468b      	mov	fp, r1
    883c:	9312      	str	r3, [sp, #72]	; 0x48
    883e:	06a3      	lsls	r3, r4, #26
    8840:	d400      	bmi.n	8844 <_svfprintf_r+0x6a8>
    8842:	e683      	b.n	854c <_svfprintf_r+0x3b0>
    8844:	2207      	movs	r2, #7
    8846:	9b0f      	ldr	r3, [sp, #60]	; 0x3c
    8848:	3307      	adds	r3, #7
    884a:	4393      	bics	r3, r2
    884c:	3201      	adds	r2, #1
    884e:	4694      	mov	ip, r2
    8850:	449c      	add	ip, r3
    8852:	4662      	mov	r2, ip
    8854:	920f      	str	r2, [sp, #60]	; 0x3c
    8856:	681a      	ldr	r2, [r3, #0]
    8858:	685b      	ldr	r3, [r3, #4]
    885a:	0011      	movs	r1, r2
    885c:	001a      	movs	r2, r3
    885e:	0008      	movs	r0, r1
    8860:	4310      	orrs	r0, r2
    8862:	910c      	str	r1, [sp, #48]	; 0x30
    8864:	920d      	str	r2, [sp, #52]	; 0x34
    8866:	2300      	movs	r3, #0
    8868:	0002      	movs	r2, r0
    886a:	e680      	b.n	856e <_svfprintf_r+0x3d2>
    886c:	468b      	mov	fp, r1
    886e:	4641      	mov	r1, r8
    8870:	9312      	str	r3, [sp, #72]	; 0x48
    8872:	2900      	cmp	r1, #0
    8874:	d001      	beq.n	887a <_svfprintf_r+0x6de>
    8876:	f000 ff7f 	bl	9778 <_svfprintf_r+0x15dc>
    887a:	9b12      	ldr	r3, [sp, #72]	; 0x48
    887c:	2b00      	cmp	r3, #0
    887e:	d100      	bne.n	8882 <_svfprintf_r+0x6e6>
    8880:	e50b      	b.n	829a <_svfprintf_r+0xfe>
    8882:	ad28      	add	r5, sp, #160	; 0xa0
    8884:	702b      	strb	r3, [r5, #0]
    8886:	2300      	movs	r3, #0
    8888:	aa16      	add	r2, sp, #88	; 0x58
    888a:	77d3      	strb	r3, [r2, #31]
    888c:	9408      	str	r4, [sp, #32]
    888e:	e74e      	b.n	872e <_svfprintf_r+0x592>
    8890:	68bc      	ldr	r4, [r7, #8]
    8892:	4643      	mov	r3, r8
    8894:	2b00      	cmp	r3, #0
    8896:	d00f      	beq.n	88b8 <_svfprintf_r+0x71c>
    8898:	aa16      	add	r2, sp, #88	; 0x58
    889a:	231f      	movs	r3, #31
    889c:	4694      	mov	ip, r2
    889e:	4463      	add	r3, ip
    88a0:	6033      	str	r3, [r6, #0]
    88a2:	2301      	movs	r3, #1
    88a4:	6073      	str	r3, [r6, #4]
    88a6:	687b      	ldr	r3, [r7, #4]
    88a8:	3401      	adds	r4, #1
    88aa:	3301      	adds	r3, #1
    88ac:	60bc      	str	r4, [r7, #8]
    88ae:	607b      	str	r3, [r7, #4]
    88b0:	2b07      	cmp	r3, #7
    88b2:	dd00      	ble.n	88b6 <_svfprintf_r+0x71a>
    88b4:	e1b3      	b.n	8c1e <_svfprintf_r+0xa82>
    88b6:	3608      	adds	r6, #8
    88b8:	464b      	mov	r3, r9
    88ba:	2b00      	cmp	r3, #0
    88bc:	d00c      	beq.n	88d8 <_svfprintf_r+0x73c>
    88be:	ab1e      	add	r3, sp, #120	; 0x78
    88c0:	6033      	str	r3, [r6, #0]
    88c2:	2302      	movs	r3, #2
    88c4:	6073      	str	r3, [r6, #4]
    88c6:	687b      	ldr	r3, [r7, #4]
    88c8:	3402      	adds	r4, #2
    88ca:	3301      	adds	r3, #1
    88cc:	60bc      	str	r4, [r7, #8]
    88ce:	607b      	str	r3, [r7, #4]
    88d0:	2b07      	cmp	r3, #7
    88d2:	dd00      	ble.n	88d6 <_svfprintf_r+0x73a>
    88d4:	e1af      	b.n	8c36 <_svfprintf_r+0xa9a>
    88d6:	3608      	adds	r6, #8
    88d8:	9b10      	ldr	r3, [sp, #64]	; 0x40
    88da:	2b80      	cmp	r3, #128	; 0x80
    88dc:	d100      	bne.n	88e0 <_svfprintf_r+0x744>
    88de:	e120      	b.n	8b22 <_svfprintf_r+0x986>
    88e0:	4653      	mov	r3, sl
    88e2:	9a0e      	ldr	r2, [sp, #56]	; 0x38
    88e4:	1a9d      	subs	r5, r3, r2
    88e6:	2d00      	cmp	r5, #0
    88e8:	dd3c      	ble.n	8964 <_svfprintf_r+0x7c8>
    88ea:	4a08      	ldr	r2, [pc, #32]	; (890c <_svfprintf_r+0x770>)
    88ec:	687b      	ldr	r3, [r7, #4]
    88ee:	4691      	mov	r9, r2
    88f0:	2d10      	cmp	r5, #16
    88f2:	dd2c      	ble.n	894e <_svfprintf_r+0x7b2>
    88f4:	2210      	movs	r2, #16
    88f6:	0021      	movs	r1, r4
    88f8:	4692      	mov	sl, r2
    88fa:	9c09      	ldr	r4, [sp, #36]	; 0x24
    88fc:	0032      	movs	r2, r6
    88fe:	002e      	movs	r6, r5
    8900:	464d      	mov	r5, r9
    8902:	e009      	b.n	8918 <_svfprintf_r+0x77c>
    8904:	0000d598 	.word	0x0000d598
    8908:	0000d5ac 	.word	0x0000d5ac
    890c:	0000d5dc 	.word	0x0000d5dc
    8910:	3e10      	subs	r6, #16
    8912:	3208      	adds	r2, #8
    8914:	2e10      	cmp	r6, #16
    8916:	dd16      	ble.n	8946 <_svfprintf_r+0x7aa>
    8918:	4650      	mov	r0, sl
    891a:	3110      	adds	r1, #16
    891c:	3301      	adds	r3, #1
    891e:	6015      	str	r5, [r2, #0]
    8920:	6050      	str	r0, [r2, #4]
    8922:	60b9      	str	r1, [r7, #8]
    8924:	607b      	str	r3, [r7, #4]
    8926:	2b07      	cmp	r3, #7
    8928:	ddf2      	ble.n	8910 <_svfprintf_r+0x774>
    892a:	003a      	movs	r2, r7
    892c:	9906      	ldr	r1, [sp, #24]
    892e:	0020      	movs	r0, r4
    8930:	f002 fef2 	bl	b718 <__ssprint_r>
    8934:	2800      	cmp	r0, #0
    8936:	d000      	beq.n	893a <_svfprintf_r+0x79e>
    8938:	e4b7      	b.n	82aa <_svfprintf_r+0x10e>
    893a:	3e10      	subs	r6, #16
    893c:	68b9      	ldr	r1, [r7, #8]
    893e:	687b      	ldr	r3, [r7, #4]
    8940:	aa32      	add	r2, sp, #200	; 0xc8
    8942:	2e10      	cmp	r6, #16
    8944:	dce8      	bgt.n	8918 <_svfprintf_r+0x77c>
    8946:	46a9      	mov	r9, r5
    8948:	000c      	movs	r4, r1
    894a:	0035      	movs	r5, r6
    894c:	0016      	movs	r6, r2
    894e:	464a      	mov	r2, r9
    8950:	1964      	adds	r4, r4, r5
    8952:	3301      	adds	r3, #1
    8954:	6032      	str	r2, [r6, #0]
    8956:	6075      	str	r5, [r6, #4]
    8958:	60bc      	str	r4, [r7, #8]
    895a:	607b      	str	r3, [r7, #4]
    895c:	2b07      	cmp	r3, #7
    895e:	dd00      	ble.n	8962 <_svfprintf_r+0x7c6>
    8960:	e151      	b.n	8c06 <_svfprintf_r+0xa6a>
    8962:	3608      	adds	r6, #8
    8964:	9b08      	ldr	r3, [sp, #32]
    8966:	05db      	lsls	r3, r3, #23
    8968:	d500      	bpl.n	896c <_svfprintf_r+0x7d0>
    896a:	e0b6      	b.n	8ada <_svfprintf_r+0x93e>
    896c:	9b11      	ldr	r3, [sp, #68]	; 0x44
    896e:	6033      	str	r3, [r6, #0]
    8970:	9b0e      	ldr	r3, [sp, #56]	; 0x38
    8972:	469c      	mov	ip, r3
    8974:	6073      	str	r3, [r6, #4]
    8976:	687b      	ldr	r3, [r7, #4]
    8978:	4464      	add	r4, ip
    897a:	3301      	adds	r3, #1
    897c:	60bc      	str	r4, [r7, #8]
    897e:	607b      	str	r3, [r7, #4]
    8980:	2b07      	cmp	r3, #7
    8982:	dd00      	ble.n	8986 <_svfprintf_r+0x7ea>
    8984:	e09d      	b.n	8ac2 <_svfprintf_r+0x926>
    8986:	3608      	adds	r6, #8
    8988:	9b08      	ldr	r3, [sp, #32]
    898a:	075b      	lsls	r3, r3, #29
    898c:	d541      	bpl.n	8a12 <_svfprintf_r+0x876>
    898e:	9b0b      	ldr	r3, [sp, #44]	; 0x2c
    8990:	9a07      	ldr	r2, [sp, #28]
    8992:	1a9d      	subs	r5, r3, r2
    8994:	2d00      	cmp	r5, #0
    8996:	dd3c      	ble.n	8a12 <_svfprintf_r+0x876>
    8998:	4ac4      	ldr	r2, [pc, #784]	; (8cac <_svfprintf_r+0xb10>)
    899a:	687b      	ldr	r3, [r7, #4]
    899c:	4690      	mov	r8, r2
    899e:	2d10      	cmp	r5, #16
    89a0:	dd26      	ble.n	89f0 <_svfprintf_r+0x854>
    89a2:	2210      	movs	r2, #16
    89a4:	0021      	movs	r1, r4
    89a6:	4691      	mov	r9, r2
    89a8:	9c09      	ldr	r4, [sp, #36]	; 0x24
    89aa:	0032      	movs	r2, r6
    89ac:	002e      	movs	r6, r5
    89ae:	9d06      	ldr	r5, [sp, #24]
    89b0:	e003      	b.n	89ba <_svfprintf_r+0x81e>
    89b2:	3e10      	subs	r6, #16
    89b4:	3208      	adds	r2, #8
    89b6:	2e10      	cmp	r6, #16
    89b8:	dd17      	ble.n	89ea <_svfprintf_r+0x84e>
    89ba:	48bc      	ldr	r0, [pc, #752]	; (8cac <_svfprintf_r+0xb10>)
    89bc:	3110      	adds	r1, #16
    89be:	6010      	str	r0, [r2, #0]
    89c0:	4648      	mov	r0, r9
    89c2:	3301      	adds	r3, #1
    89c4:	6050      	str	r0, [r2, #4]
    89c6:	60b9      	str	r1, [r7, #8]
    89c8:	607b      	str	r3, [r7, #4]
    89ca:	2b07      	cmp	r3, #7
    89cc:	ddf1      	ble.n	89b2 <_svfprintf_r+0x816>
    89ce:	003a      	movs	r2, r7
    89d0:	0029      	movs	r1, r5
    89d2:	0020      	movs	r0, r4
    89d4:	f002 fea0 	bl	b718 <__ssprint_r>
    89d8:	2800      	cmp	r0, #0
    89da:	d000      	beq.n	89de <_svfprintf_r+0x842>
    89dc:	e465      	b.n	82aa <_svfprintf_r+0x10e>
    89de:	3e10      	subs	r6, #16
    89e0:	68b9      	ldr	r1, [r7, #8]
    89e2:	687b      	ldr	r3, [r7, #4]
    89e4:	aa32      	add	r2, sp, #200	; 0xc8
    89e6:	2e10      	cmp	r6, #16
    89e8:	dce7      	bgt.n	89ba <_svfprintf_r+0x81e>
    89ea:	0035      	movs	r5, r6
    89ec:	000c      	movs	r4, r1
    89ee:	0016      	movs	r6, r2
    89f0:	4642      	mov	r2, r8
    89f2:	1964      	adds	r4, r4, r5
    89f4:	3301      	adds	r3, #1
    89f6:	c624      	stmia	r6!, {r2, r5}
    89f8:	60bc      	str	r4, [r7, #8]
    89fa:	607b      	str	r3, [r7, #4]
    89fc:	2b07      	cmp	r3, #7
    89fe:	dd08      	ble.n	8a12 <_svfprintf_r+0x876>
    8a00:	003a      	movs	r2, r7
    8a02:	9906      	ldr	r1, [sp, #24]
    8a04:	9809      	ldr	r0, [sp, #36]	; 0x24
    8a06:	f002 fe87 	bl	b718 <__ssprint_r>
    8a0a:	2800      	cmp	r0, #0
    8a0c:	d000      	beq.n	8a10 <_svfprintf_r+0x874>
    8a0e:	e44c      	b.n	82aa <_svfprintf_r+0x10e>
    8a10:	68bc      	ldr	r4, [r7, #8]
    8a12:	9b0b      	ldr	r3, [sp, #44]	; 0x2c
    8a14:	9907      	ldr	r1, [sp, #28]
    8a16:	428b      	cmp	r3, r1
    8a18:	da00      	bge.n	8a1c <_svfprintf_r+0x880>
    8a1a:	000b      	movs	r3, r1
    8a1c:	9a0a      	ldr	r2, [sp, #40]	; 0x28
    8a1e:	4694      	mov	ip, r2
    8a20:	449c      	add	ip, r3
    8a22:	4663      	mov	r3, ip
    8a24:	930a      	str	r3, [sp, #40]	; 0x28
    8a26:	2c00      	cmp	r4, #0
    8a28:	d000      	beq.n	8a2c <_svfprintf_r+0x890>
    8a2a:	e0d6      	b.n	8bda <_svfprintf_r+0xa3e>
    8a2c:	2300      	movs	r3, #0
    8a2e:	ae32      	add	r6, sp, #200	; 0xc8
    8a30:	607b      	str	r3, [r7, #4]
    8a32:	f7ff fbde 	bl	81f2 <_svfprintf_r+0x56>
    8a36:	9b14      	ldr	r3, [sp, #80]	; 0x50
    8a38:	2b01      	cmp	r3, #1
    8a3a:	dc00      	bgt.n	8a3e <_svfprintf_r+0x8a2>
    8a3c:	e0ae      	b.n	8b9c <_svfprintf_r+0xa00>
    8a3e:	9b11      	ldr	r3, [sp, #68]	; 0x44
    8a40:	3401      	adds	r4, #1
    8a42:	6033      	str	r3, [r6, #0]
    8a44:	2301      	movs	r3, #1
    8a46:	6073      	str	r3, [r6, #4]
    8a48:	687b      	ldr	r3, [r7, #4]
    8a4a:	60bc      	str	r4, [r7, #8]
    8a4c:	3301      	adds	r3, #1
    8a4e:	607b      	str	r3, [r7, #4]
    8a50:	2b07      	cmp	r3, #7
    8a52:	dd00      	ble.n	8a56 <_svfprintf_r+0x8ba>
    8a54:	e2df      	b.n	9016 <_svfprintf_r+0xe7a>
    8a56:	3608      	adds	r6, #8
    8a58:	9a19      	ldr	r2, [sp, #100]	; 0x64
    8a5a:	3301      	adds	r3, #1
    8a5c:	6032      	str	r2, [r6, #0]
    8a5e:	9a18      	ldr	r2, [sp, #96]	; 0x60
    8a60:	4698      	mov	r8, r3
    8a62:	4694      	mov	ip, r2
    8a64:	4464      	add	r4, ip
    8a66:	6072      	str	r2, [r6, #4]
    8a68:	60bc      	str	r4, [r7, #8]
    8a6a:	607b      	str	r3, [r7, #4]
    8a6c:	2b07      	cmp	r3, #7
    8a6e:	dd00      	ble.n	8a72 <_svfprintf_r+0x8d6>
    8a70:	e2de      	b.n	9030 <_svfprintf_r+0xe94>
    8a72:	3608      	adds	r6, #8
    8a74:	2200      	movs	r2, #0
    8a76:	2300      	movs	r3, #0
    8a78:	9816      	ldr	r0, [sp, #88]	; 0x58
    8a7a:	9915      	ldr	r1, [sp, #84]	; 0x54
    8a7c:	f7fc ffe4 	bl	5a48 <__aeabi_dcmpeq>
    8a80:	2800      	cmp	r0, #0
    8a82:	d000      	beq.n	8a86 <_svfprintf_r+0x8ea>
    8a84:	e1a4      	b.n	8dd0 <_svfprintf_r+0xc34>
    8a86:	9d11      	ldr	r5, [sp, #68]	; 0x44
    8a88:	9b14      	ldr	r3, [sp, #80]	; 0x50
    8a8a:	3501      	adds	r5, #1
    8a8c:	3b01      	subs	r3, #1
    8a8e:	6035      	str	r5, [r6, #0]
    8a90:	6073      	str	r3, [r6, #4]
    8a92:	18e4      	adds	r4, r4, r3
    8a94:	2301      	movs	r3, #1
    8a96:	469c      	mov	ip, r3
    8a98:	44e0      	add	r8, ip
    8a9a:	4643      	mov	r3, r8
    8a9c:	60bc      	str	r4, [r7, #8]
    8a9e:	607b      	str	r3, [r7, #4]
    8aa0:	2b07      	cmp	r3, #7
    8aa2:	dd00      	ble.n	8aa6 <_svfprintf_r+0x90a>
    8aa4:	e08b      	b.n	8bbe <_svfprintf_r+0xa22>
    8aa6:	3608      	adds	r6, #8
    8aa8:	ab21      	add	r3, sp, #132	; 0x84
    8aaa:	6033      	str	r3, [r6, #0]
    8aac:	9b1a      	ldr	r3, [sp, #104]	; 0x68
    8aae:	469c      	mov	ip, r3
    8ab0:	6073      	str	r3, [r6, #4]
    8ab2:	4643      	mov	r3, r8
    8ab4:	4464      	add	r4, ip
    8ab6:	3301      	adds	r3, #1
    8ab8:	60bc      	str	r4, [r7, #8]
    8aba:	607b      	str	r3, [r7, #4]
    8abc:	2b07      	cmp	r3, #7
    8abe:	dc00      	bgt.n	8ac2 <_svfprintf_r+0x926>
    8ac0:	e761      	b.n	8986 <_svfprintf_r+0x7ea>
    8ac2:	003a      	movs	r2, r7
    8ac4:	9906      	ldr	r1, [sp, #24]
    8ac6:	9809      	ldr	r0, [sp, #36]	; 0x24
    8ac8:	f002 fe26 	bl	b718 <__ssprint_r>
    8acc:	2800      	cmp	r0, #0
    8ace:	d001      	beq.n	8ad4 <_svfprintf_r+0x938>
    8ad0:	f7ff fbeb 	bl	82aa <_svfprintf_r+0x10e>
    8ad4:	68bc      	ldr	r4, [r7, #8]
    8ad6:	ae32      	add	r6, sp, #200	; 0xc8
    8ad8:	e756      	b.n	8988 <_svfprintf_r+0x7ec>
    8ada:	9b12      	ldr	r3, [sp, #72]	; 0x48
    8adc:	2b65      	cmp	r3, #101	; 0x65
    8ade:	ddaa      	ble.n	8a36 <_svfprintf_r+0x89a>
    8ae0:	2200      	movs	r2, #0
    8ae2:	2300      	movs	r3, #0
    8ae4:	9816      	ldr	r0, [sp, #88]	; 0x58
    8ae6:	9915      	ldr	r1, [sp, #84]	; 0x54
    8ae8:	f7fc ffae 	bl	5a48 <__aeabi_dcmpeq>
    8aec:	2800      	cmp	r0, #0
    8aee:	d100      	bne.n	8af2 <_svfprintf_r+0x956>
    8af0:	e0e2      	b.n	8cb8 <_svfprintf_r+0xb1c>
    8af2:	4b6f      	ldr	r3, [pc, #444]	; (8cb0 <_svfprintf_r+0xb14>)
    8af4:	3401      	adds	r4, #1
    8af6:	6033      	str	r3, [r6, #0]
    8af8:	2301      	movs	r3, #1
    8afa:	6073      	str	r3, [r6, #4]
    8afc:	687b      	ldr	r3, [r7, #4]
    8afe:	60bc      	str	r4, [r7, #8]
    8b00:	3301      	adds	r3, #1
    8b02:	607b      	str	r3, [r7, #4]
    8b04:	2b07      	cmp	r3, #7
    8b06:	dd00      	ble.n	8b0a <_svfprintf_r+0x96e>
    8b08:	e366      	b.n	91d8 <_svfprintf_r+0x103c>
    8b0a:	3608      	adds	r6, #8
    8b0c:	9b1f      	ldr	r3, [sp, #124]	; 0x7c
    8b0e:	9a14      	ldr	r2, [sp, #80]	; 0x50
    8b10:	4293      	cmp	r3, r2
    8b12:	da00      	bge.n	8b16 <_svfprintf_r+0x97a>
    8b14:	e1a4      	b.n	8e60 <_svfprintf_r+0xcc4>
    8b16:	9b08      	ldr	r3, [sp, #32]
    8b18:	07db      	lsls	r3, r3, #31
    8b1a:	d500      	bpl.n	8b1e <_svfprintf_r+0x982>
    8b1c:	e1a0      	b.n	8e60 <_svfprintf_r+0xcc4>
    8b1e:	68bc      	ldr	r4, [r7, #8]
    8b20:	e732      	b.n	8988 <_svfprintf_r+0x7ec>
    8b22:	9b0b      	ldr	r3, [sp, #44]	; 0x2c
    8b24:	9a07      	ldr	r2, [sp, #28]
    8b26:	1a9d      	subs	r5, r3, r2
    8b28:	2d00      	cmp	r5, #0
    8b2a:	dc00      	bgt.n	8b2e <_svfprintf_r+0x992>
    8b2c:	e6d8      	b.n	88e0 <_svfprintf_r+0x744>
    8b2e:	4a61      	ldr	r2, [pc, #388]	; (8cb4 <_svfprintf_r+0xb18>)
    8b30:	687b      	ldr	r3, [r7, #4]
    8b32:	4691      	mov	r9, r2
    8b34:	2d10      	cmp	r5, #16
    8b36:	dd25      	ble.n	8b84 <_svfprintf_r+0x9e8>
    8b38:	2210      	movs	r2, #16
    8b3a:	0021      	movs	r1, r4
    8b3c:	4690      	mov	r8, r2
    8b3e:	9c09      	ldr	r4, [sp, #36]	; 0x24
    8b40:	0032      	movs	r2, r6
    8b42:	464e      	mov	r6, r9
    8b44:	e003      	b.n	8b4e <_svfprintf_r+0x9b2>
    8b46:	3d10      	subs	r5, #16
    8b48:	3208      	adds	r2, #8
    8b4a:	2d10      	cmp	r5, #16
    8b4c:	dd17      	ble.n	8b7e <_svfprintf_r+0x9e2>
    8b4e:	4640      	mov	r0, r8
    8b50:	3110      	adds	r1, #16
    8b52:	3301      	adds	r3, #1
    8b54:	6016      	str	r6, [r2, #0]
    8b56:	6050      	str	r0, [r2, #4]
    8b58:	60b9      	str	r1, [r7, #8]
    8b5a:	607b      	str	r3, [r7, #4]
    8b5c:	2b07      	cmp	r3, #7
    8b5e:	ddf2      	ble.n	8b46 <_svfprintf_r+0x9aa>
    8b60:	003a      	movs	r2, r7
    8b62:	9906      	ldr	r1, [sp, #24]
    8b64:	0020      	movs	r0, r4
    8b66:	f002 fdd7 	bl	b718 <__ssprint_r>
    8b6a:	2800      	cmp	r0, #0
    8b6c:	d001      	beq.n	8b72 <_svfprintf_r+0x9d6>
    8b6e:	f7ff fb9c 	bl	82aa <_svfprintf_r+0x10e>
    8b72:	3d10      	subs	r5, #16
    8b74:	68b9      	ldr	r1, [r7, #8]
    8b76:	687b      	ldr	r3, [r7, #4]
    8b78:	aa32      	add	r2, sp, #200	; 0xc8
    8b7a:	2d10      	cmp	r5, #16
    8b7c:	dce7      	bgt.n	8b4e <_svfprintf_r+0x9b2>
    8b7e:	46b1      	mov	r9, r6
    8b80:	000c      	movs	r4, r1
    8b82:	0016      	movs	r6, r2
    8b84:	464a      	mov	r2, r9
    8b86:	1964      	adds	r4, r4, r5
    8b88:	3301      	adds	r3, #1
    8b8a:	6032      	str	r2, [r6, #0]
    8b8c:	6075      	str	r5, [r6, #4]
    8b8e:	60bc      	str	r4, [r7, #8]
    8b90:	607b      	str	r3, [r7, #4]
    8b92:	2b07      	cmp	r3, #7
    8b94:	dd00      	ble.n	8b98 <_svfprintf_r+0x9fc>
    8b96:	e27e      	b.n	9096 <_svfprintf_r+0xefa>
    8b98:	3608      	adds	r6, #8
    8b9a:	e6a1      	b.n	88e0 <_svfprintf_r+0x744>
    8b9c:	2301      	movs	r3, #1
    8b9e:	9a08      	ldr	r2, [sp, #32]
    8ba0:	4213      	tst	r3, r2
    8ba2:	d000      	beq.n	8ba6 <_svfprintf_r+0xa0a>
    8ba4:	e74b      	b.n	8a3e <_svfprintf_r+0x8a2>
    8ba6:	6073      	str	r3, [r6, #4]
    8ba8:	687b      	ldr	r3, [r7, #4]
    8baa:	9a11      	ldr	r2, [sp, #68]	; 0x44
    8bac:	3301      	adds	r3, #1
    8bae:	3401      	adds	r4, #1
    8bb0:	6032      	str	r2, [r6, #0]
    8bb2:	60bc      	str	r4, [r7, #8]
    8bb4:	4698      	mov	r8, r3
    8bb6:	607b      	str	r3, [r7, #4]
    8bb8:	2b07      	cmp	r3, #7
    8bba:	dc00      	bgt.n	8bbe <_svfprintf_r+0xa22>
    8bbc:	e773      	b.n	8aa6 <_svfprintf_r+0x90a>
    8bbe:	003a      	movs	r2, r7
    8bc0:	9906      	ldr	r1, [sp, #24]
    8bc2:	9809      	ldr	r0, [sp, #36]	; 0x24
    8bc4:	f002 fda8 	bl	b718 <__ssprint_r>
    8bc8:	2800      	cmp	r0, #0
    8bca:	d001      	beq.n	8bd0 <_svfprintf_r+0xa34>
    8bcc:	f7ff fb6d 	bl	82aa <_svfprintf_r+0x10e>
    8bd0:	687b      	ldr	r3, [r7, #4]
    8bd2:	68bc      	ldr	r4, [r7, #8]
    8bd4:	4698      	mov	r8, r3
    8bd6:	ae32      	add	r6, sp, #200	; 0xc8
    8bd8:	e766      	b.n	8aa8 <_svfprintf_r+0x90c>
    8bda:	003a      	movs	r2, r7
    8bdc:	9906      	ldr	r1, [sp, #24]
    8bde:	9809      	ldr	r0, [sp, #36]	; 0x24
    8be0:	f002 fd9a 	bl	b718 <__ssprint_r>
    8be4:	2800      	cmp	r0, #0
    8be6:	d100      	bne.n	8bea <_svfprintf_r+0xa4e>
    8be8:	e720      	b.n	8a2c <_svfprintf_r+0x890>
    8bea:	f7ff fb5e 	bl	82aa <_svfprintf_r+0x10e>
    8bee:	9c08      	ldr	r4, [sp, #32]
    8bf0:	2b01      	cmp	r3, #1
    8bf2:	d100      	bne.n	8bf6 <_svfprintf_r+0xa5a>
    8bf4:	e184      	b.n	8f00 <_svfprintf_r+0xd64>
    8bf6:	2b02      	cmp	r3, #2
    8bf8:	d129      	bne.n	8c4e <_svfprintf_r+0xab2>
    8bfa:	9408      	str	r4, [sp, #32]
    8bfc:	2300      	movs	r3, #0
    8bfe:	2400      	movs	r4, #0
    8c00:	930c      	str	r3, [sp, #48]	; 0x30
    8c02:	940d      	str	r4, [sp, #52]	; 0x34
    8c04:	e4c5      	b.n	8592 <_svfprintf_r+0x3f6>
    8c06:	003a      	movs	r2, r7
    8c08:	9906      	ldr	r1, [sp, #24]
    8c0a:	9809      	ldr	r0, [sp, #36]	; 0x24
    8c0c:	f002 fd84 	bl	b718 <__ssprint_r>
    8c10:	2800      	cmp	r0, #0
    8c12:	d001      	beq.n	8c18 <_svfprintf_r+0xa7c>
    8c14:	f7ff fb49 	bl	82aa <_svfprintf_r+0x10e>
    8c18:	68bc      	ldr	r4, [r7, #8]
    8c1a:	ae32      	add	r6, sp, #200	; 0xc8
    8c1c:	e6a2      	b.n	8964 <_svfprintf_r+0x7c8>
    8c1e:	003a      	movs	r2, r7
    8c20:	9906      	ldr	r1, [sp, #24]
    8c22:	9809      	ldr	r0, [sp, #36]	; 0x24
    8c24:	f002 fd78 	bl	b718 <__ssprint_r>
    8c28:	2800      	cmp	r0, #0
    8c2a:	d001      	beq.n	8c30 <_svfprintf_r+0xa94>
    8c2c:	f7ff fb3d 	bl	82aa <_svfprintf_r+0x10e>
    8c30:	68bc      	ldr	r4, [r7, #8]
    8c32:	ae32      	add	r6, sp, #200	; 0xc8
    8c34:	e640      	b.n	88b8 <_svfprintf_r+0x71c>
    8c36:	003a      	movs	r2, r7
    8c38:	9906      	ldr	r1, [sp, #24]
    8c3a:	9809      	ldr	r0, [sp, #36]	; 0x24
    8c3c:	f002 fd6c 	bl	b718 <__ssprint_r>
    8c40:	2800      	cmp	r0, #0
    8c42:	d001      	beq.n	8c48 <_svfprintf_r+0xaac>
    8c44:	f7ff fb31 	bl	82aa <_svfprintf_r+0x10e>
    8c48:	68bc      	ldr	r4, [r7, #8]
    8c4a:	ae32      	add	r6, sp, #200	; 0xc8
    8c4c:	e644      	b.n	88d8 <_svfprintf_r+0x73c>
    8c4e:	9408      	str	r4, [sp, #32]
    8c50:	2300      	movs	r3, #0
    8c52:	2400      	movs	r4, #0
    8c54:	930c      	str	r3, [sp, #48]	; 0x30
    8c56:	940d      	str	r4, [sp, #52]	; 0x34
    8c58:	980c      	ldr	r0, [sp, #48]	; 0x30
    8c5a:	990d      	ldr	r1, [sp, #52]	; 0x34
    8c5c:	465b      	mov	r3, fp
    8c5e:	aa32      	add	r2, sp, #200	; 0xc8
    8c60:	9307      	str	r3, [sp, #28]
    8c62:	4691      	mov	r9, r2
    8c64:	46b3      	mov	fp, r6
    8c66:	e000      	b.n	8c6a <_svfprintf_r+0xace>
    8c68:	46a1      	mov	r9, r4
    8c6a:	074a      	lsls	r2, r1, #29
    8c6c:	4694      	mov	ip, r2
    8c6e:	464b      	mov	r3, r9
    8c70:	4665      	mov	r5, ip
    8c72:	1e5c      	subs	r4, r3, #1
    8c74:	08c6      	lsrs	r6, r0, #3
    8c76:	2307      	movs	r3, #7
    8c78:	08ca      	lsrs	r2, r1, #3
    8c7a:	4335      	orrs	r5, r6
    8c7c:	0011      	movs	r1, r2
    8c7e:	002a      	movs	r2, r5
    8c80:	4003      	ands	r3, r0
    8c82:	3330      	adds	r3, #48	; 0x30
    8c84:	7023      	strb	r3, [r4, #0]
    8c86:	0028      	movs	r0, r5
    8c88:	430a      	orrs	r2, r1
    8c8a:	d1ed      	bne.n	8c68 <_svfprintf_r+0xacc>
    8c8c:	900c      	str	r0, [sp, #48]	; 0x30
    8c8e:	910d      	str	r1, [sp, #52]	; 0x34
    8c90:	9907      	ldr	r1, [sp, #28]
    8c92:	465e      	mov	r6, fp
    8c94:	468b      	mov	fp, r1
    8c96:	9908      	ldr	r1, [sp, #32]
    8c98:	464a      	mov	r2, r9
    8c9a:	9411      	str	r4, [sp, #68]	; 0x44
    8c9c:	07c9      	lsls	r1, r1, #31
    8c9e:	d500      	bpl.n	8ca2 <_svfprintf_r+0xb06>
    8ca0:	e13d      	b.n	8f1e <_svfprintf_r+0xd82>
    8ca2:	ab32      	add	r3, sp, #200	; 0xc8
    8ca4:	1b1b      	subs	r3, r3, r4
    8ca6:	930e      	str	r3, [sp, #56]	; 0x38
    8ca8:	f7ff fb88 	bl	83bc <_svfprintf_r+0x220>
    8cac:	0000d5cc 	.word	0x0000d5cc
    8cb0:	0000d5c8 	.word	0x0000d5c8
    8cb4:	0000d5dc 	.word	0x0000d5dc
    8cb8:	981f      	ldr	r0, [sp, #124]	; 0x7c
    8cba:	2800      	cmp	r0, #0
    8cbc:	dc00      	bgt.n	8cc0 <_svfprintf_r+0xb24>
    8cbe:	e296      	b.n	91ee <_svfprintf_r+0x1052>
    8cc0:	9a13      	ldr	r2, [sp, #76]	; 0x4c
    8cc2:	9914      	ldr	r1, [sp, #80]	; 0x50
    8cc4:	0013      	movs	r3, r2
    8cc6:	4690      	mov	r8, r2
    8cc8:	428b      	cmp	r3, r1
    8cca:	dd00      	ble.n	8cce <_svfprintf_r+0xb32>
    8ccc:	4688      	mov	r8, r1
    8cce:	4643      	mov	r3, r8
    8cd0:	2b00      	cmp	r3, #0
    8cd2:	dd0c      	ble.n	8cee <_svfprintf_r+0xb52>
    8cd4:	9b11      	ldr	r3, [sp, #68]	; 0x44
    8cd6:	4444      	add	r4, r8
    8cd8:	6033      	str	r3, [r6, #0]
    8cda:	4643      	mov	r3, r8
    8cdc:	6073      	str	r3, [r6, #4]
    8cde:	687b      	ldr	r3, [r7, #4]
    8ce0:	60bc      	str	r4, [r7, #8]
    8ce2:	3301      	adds	r3, #1
    8ce4:	607b      	str	r3, [r7, #4]
    8ce6:	2b07      	cmp	r3, #7
    8ce8:	dd00      	ble.n	8cec <_svfprintf_r+0xb50>
    8cea:	e3b7      	b.n	945c <_svfprintf_r+0x12c0>
    8cec:	3608      	adds	r6, #8
    8cee:	4643      	mov	r3, r8
    8cf0:	43db      	mvns	r3, r3
    8cf2:	4642      	mov	r2, r8
    8cf4:	17db      	asrs	r3, r3, #31
    8cf6:	4013      	ands	r3, r2
    8cf8:	9a13      	ldr	r2, [sp, #76]	; 0x4c
    8cfa:	1ad3      	subs	r3, r2, r3
    8cfc:	4698      	mov	r8, r3
    8cfe:	2b00      	cmp	r3, #0
    8d00:	dc00      	bgt.n	8d04 <_svfprintf_r+0xb68>
    8d02:	e128      	b.n	8f56 <_svfprintf_r+0xdba>
    8d04:	2b10      	cmp	r3, #16
    8d06:	dc01      	bgt.n	8d0c <_svfprintf_r+0xb70>
    8d08:	f000 fce7 	bl	96da <_svfprintf_r+0x153e>
    8d0c:	4acf      	ldr	r2, [pc, #828]	; (904c <_svfprintf_r+0xeb0>)
    8d0e:	0021      	movs	r1, r4
    8d10:	4691      	mov	r9, r2
    8d12:	2210      	movs	r2, #16
    8d14:	687b      	ldr	r3, [r7, #4]
    8d16:	4692      	mov	sl, r2
    8d18:	9d09      	ldr	r5, [sp, #36]	; 0x24
    8d1a:	0032      	movs	r2, r6
    8d1c:	464c      	mov	r4, r9
    8d1e:	4646      	mov	r6, r8
    8d20:	e004      	b.n	8d2c <_svfprintf_r+0xb90>
    8d22:	3208      	adds	r2, #8
    8d24:	3e10      	subs	r6, #16
    8d26:	2e10      	cmp	r6, #16
    8d28:	dc00      	bgt.n	8d2c <_svfprintf_r+0xb90>
    8d2a:	e104      	b.n	8f36 <_svfprintf_r+0xd9a>
    8d2c:	4650      	mov	r0, sl
    8d2e:	3110      	adds	r1, #16
    8d30:	3301      	adds	r3, #1
    8d32:	6014      	str	r4, [r2, #0]
    8d34:	6050      	str	r0, [r2, #4]
    8d36:	60b9      	str	r1, [r7, #8]
    8d38:	607b      	str	r3, [r7, #4]
    8d3a:	2b07      	cmp	r3, #7
    8d3c:	ddf1      	ble.n	8d22 <_svfprintf_r+0xb86>
    8d3e:	003a      	movs	r2, r7
    8d40:	9906      	ldr	r1, [sp, #24]
    8d42:	0028      	movs	r0, r5
    8d44:	f002 fce8 	bl	b718 <__ssprint_r>
    8d48:	2800      	cmp	r0, #0
    8d4a:	d001      	beq.n	8d50 <_svfprintf_r+0xbb4>
    8d4c:	f7ff faad 	bl	82aa <_svfprintf_r+0x10e>
    8d50:	68b9      	ldr	r1, [r7, #8]
    8d52:	687b      	ldr	r3, [r7, #4]
    8d54:	aa32      	add	r2, sp, #200	; 0xc8
    8d56:	e7e5      	b.n	8d24 <_svfprintf_r+0xb88>
    8d58:	9b0d      	ldr	r3, [sp, #52]	; 0x34
    8d5a:	2b00      	cmp	r3, #0
    8d5c:	d100      	bne.n	8d60 <_svfprintf_r+0xbc4>
    8d5e:	e0ca      	b.n	8ef6 <_svfprintf_r+0xd5a>
    8d60:	9c0c      	ldr	r4, [sp, #48]	; 0x30
    8d62:	9d0d      	ldr	r5, [sp, #52]	; 0x34
    8d64:	ab32      	add	r3, sp, #200	; 0xc8
    8d66:	46b1      	mov	r9, r6
    8d68:	001e      	movs	r6, r3
    8d6a:	0020      	movs	r0, r4
    8d6c:	0029      	movs	r1, r5
    8d6e:	220a      	movs	r2, #10
    8d70:	2300      	movs	r3, #0
    8d72:	f003 fa3b 	bl	c1ec <__aeabi_uldivmod>
    8d76:	3e01      	subs	r6, #1
    8d78:	3230      	adds	r2, #48	; 0x30
    8d7a:	7032      	strb	r2, [r6, #0]
    8d7c:	2300      	movs	r3, #0
    8d7e:	0020      	movs	r0, r4
    8d80:	0029      	movs	r1, r5
    8d82:	220a      	movs	r2, #10
    8d84:	f003 fa32 	bl	c1ec <__aeabi_uldivmod>
    8d88:	0003      	movs	r3, r0
    8d8a:	0004      	movs	r4, r0
    8d8c:	000d      	movs	r5, r1
    8d8e:	430b      	orrs	r3, r1
    8d90:	d1eb      	bne.n	8d6a <_svfprintf_r+0xbce>
    8d92:	0032      	movs	r2, r6
    8d94:	ab32      	add	r3, sp, #200	; 0xc8
    8d96:	1a9b      	subs	r3, r3, r2
    8d98:	9611      	str	r6, [sp, #68]	; 0x44
    8d9a:	940c      	str	r4, [sp, #48]	; 0x30
    8d9c:	950d      	str	r5, [sp, #52]	; 0x34
    8d9e:	464e      	mov	r6, r9
    8da0:	930e      	str	r3, [sp, #56]	; 0x38
    8da2:	f7ff fb0b 	bl	83bc <_svfprintf_r+0x220>
    8da6:	2300      	movs	r3, #0
    8da8:	930e      	str	r3, [sp, #56]	; 0x38
    8daa:	ab32      	add	r3, sp, #200	; 0xc8
    8dac:	9311      	str	r3, [sp, #68]	; 0x44
    8dae:	f7ff fb05 	bl	83bc <_svfprintf_r+0x220>
    8db2:	003a      	movs	r2, r7
    8db4:	9906      	ldr	r1, [sp, #24]
    8db6:	9809      	ldr	r0, [sp, #36]	; 0x24
    8db8:	f002 fcae 	bl	b718 <__ssprint_r>
    8dbc:	2800      	cmp	r0, #0
    8dbe:	d001      	beq.n	8dc4 <_svfprintf_r+0xc28>
    8dc0:	f7ff fa73 	bl	82aa <_svfprintf_r+0x10e>
    8dc4:	ab16      	add	r3, sp, #88	; 0x58
    8dc6:	7fdb      	ldrb	r3, [r3, #31]
    8dc8:	68bc      	ldr	r4, [r7, #8]
    8dca:	4698      	mov	r8, r3
    8dcc:	ae32      	add	r6, sp, #200	; 0xc8
    8dce:	e560      	b.n	8892 <_svfprintf_r+0x6f6>
    8dd0:	9b14      	ldr	r3, [sp, #80]	; 0x50
    8dd2:	1e5d      	subs	r5, r3, #1
    8dd4:	2d00      	cmp	r5, #0
    8dd6:	dc00      	bgt.n	8dda <_svfprintf_r+0xc3e>
    8dd8:	e666      	b.n	8aa8 <_svfprintf_r+0x90c>
    8dda:	4b9c      	ldr	r3, [pc, #624]	; (904c <_svfprintf_r+0xeb0>)
    8ddc:	4699      	mov	r9, r3
    8dde:	2d10      	cmp	r5, #16
    8de0:	dd29      	ble.n	8e36 <_svfprintf_r+0xc9a>
    8de2:	2310      	movs	r3, #16
    8de4:	0032      	movs	r2, r6
    8de6:	469a      	mov	sl, r3
    8de8:	002e      	movs	r6, r5
    8dea:	0021      	movs	r1, r4
    8dec:	4643      	mov	r3, r8
    8dee:	9c09      	ldr	r4, [sp, #36]	; 0x24
    8df0:	464d      	mov	r5, r9
    8df2:	e003      	b.n	8dfc <_svfprintf_r+0xc60>
    8df4:	3e10      	subs	r6, #16
    8df6:	3208      	adds	r2, #8
    8df8:	2e10      	cmp	r6, #16
    8dfa:	dd17      	ble.n	8e2c <_svfprintf_r+0xc90>
    8dfc:	4650      	mov	r0, sl
    8dfe:	3110      	adds	r1, #16
    8e00:	3301      	adds	r3, #1
    8e02:	6015      	str	r5, [r2, #0]
    8e04:	6050      	str	r0, [r2, #4]
    8e06:	60b9      	str	r1, [r7, #8]
    8e08:	607b      	str	r3, [r7, #4]
    8e0a:	2b07      	cmp	r3, #7
    8e0c:	ddf2      	ble.n	8df4 <_svfprintf_r+0xc58>
    8e0e:	003a      	movs	r2, r7
    8e10:	9906      	ldr	r1, [sp, #24]
    8e12:	0020      	movs	r0, r4
    8e14:	f002 fc80 	bl	b718 <__ssprint_r>
    8e18:	2800      	cmp	r0, #0
    8e1a:	d001      	beq.n	8e20 <_svfprintf_r+0xc84>
    8e1c:	f7ff fa45 	bl	82aa <_svfprintf_r+0x10e>
    8e20:	3e10      	subs	r6, #16
    8e22:	68b9      	ldr	r1, [r7, #8]
    8e24:	687b      	ldr	r3, [r7, #4]
    8e26:	aa32      	add	r2, sp, #200	; 0xc8
    8e28:	2e10      	cmp	r6, #16
    8e2a:	dce7      	bgt.n	8dfc <_svfprintf_r+0xc60>
    8e2c:	46a9      	mov	r9, r5
    8e2e:	000c      	movs	r4, r1
    8e30:	0035      	movs	r5, r6
    8e32:	4698      	mov	r8, r3
    8e34:	0016      	movs	r6, r2
    8e36:	464b      	mov	r3, r9
    8e38:	6075      	str	r5, [r6, #4]
    8e3a:	6033      	str	r3, [r6, #0]
    8e3c:	1964      	adds	r4, r4, r5
    8e3e:	e629      	b.n	8a94 <_svfprintf_r+0x8f8>
    8e40:	9b0f      	ldr	r3, [sp, #60]	; 0x3c
    8e42:	681a      	ldr	r2, [r3, #0]
    8e44:	f7ff fbfb 	bl	863e <_svfprintf_r+0x4a2>
    8e48:	6813      	ldr	r3, [r2, #0]
    8e4a:	9307      	str	r3, [sp, #28]
    8e4c:	f7ff fa82 	bl	8354 <_svfprintf_r+0x1b8>
    8e50:	9b0f      	ldr	r3, [sp, #60]	; 0x3c
    8e52:	681a      	ldr	r2, [r3, #0]
    8e54:	f7ff fb84 	bl	8560 <_svfprintf_r+0x3c4>
    8e58:	9b0f      	ldr	r3, [sp, #60]	; 0x3c
    8e5a:	681a      	ldr	r2, [r3, #0]
    8e5c:	f7ff fbd1 	bl	8602 <_svfprintf_r+0x466>
    8e60:	9b19      	ldr	r3, [sp, #100]	; 0x64
    8e62:	68ba      	ldr	r2, [r7, #8]
    8e64:	6033      	str	r3, [r6, #0]
    8e66:	9b18      	ldr	r3, [sp, #96]	; 0x60
    8e68:	469c      	mov	ip, r3
    8e6a:	6073      	str	r3, [r6, #4]
    8e6c:	687b      	ldr	r3, [r7, #4]
    8e6e:	4462      	add	r2, ip
    8e70:	3301      	adds	r3, #1
    8e72:	0014      	movs	r4, r2
    8e74:	60ba      	str	r2, [r7, #8]
    8e76:	607b      	str	r3, [r7, #4]
    8e78:	2b07      	cmp	r3, #7
    8e7a:	dd00      	ble.n	8e7e <_svfprintf_r+0xce2>
    8e7c:	e202      	b.n	9284 <_svfprintf_r+0x10e8>
    8e7e:	3608      	adds	r6, #8
    8e80:	9b14      	ldr	r3, [sp, #80]	; 0x50
    8e82:	1e5d      	subs	r5, r3, #1
    8e84:	2d00      	cmp	r5, #0
    8e86:	dc00      	bgt.n	8e8a <_svfprintf_r+0xcee>
    8e88:	e57e      	b.n	8988 <_svfprintf_r+0x7ec>
    8e8a:	4a70      	ldr	r2, [pc, #448]	; (904c <_svfprintf_r+0xeb0>)
    8e8c:	687b      	ldr	r3, [r7, #4]
    8e8e:	4691      	mov	r9, r2
    8e90:	2d10      	cmp	r5, #16
    8e92:	dd25      	ble.n	8ee0 <_svfprintf_r+0xd44>
    8e94:	2210      	movs	r2, #16
    8e96:	0021      	movs	r1, r4
    8e98:	4690      	mov	r8, r2
    8e9a:	9c09      	ldr	r4, [sp, #36]	; 0x24
    8e9c:	0032      	movs	r2, r6
    8e9e:	002e      	movs	r6, r5
    8ea0:	464d      	mov	r5, r9
    8ea2:	e003      	b.n	8eac <_svfprintf_r+0xd10>
    8ea4:	3208      	adds	r2, #8
    8ea6:	3e10      	subs	r6, #16
    8ea8:	2e10      	cmp	r6, #16
    8eaa:	dd15      	ble.n	8ed8 <_svfprintf_r+0xd3c>
    8eac:	4640      	mov	r0, r8
    8eae:	3110      	adds	r1, #16
    8eb0:	3301      	adds	r3, #1
    8eb2:	6015      	str	r5, [r2, #0]
    8eb4:	6050      	str	r0, [r2, #4]
    8eb6:	60b9      	str	r1, [r7, #8]
    8eb8:	607b      	str	r3, [r7, #4]
    8eba:	2b07      	cmp	r3, #7
    8ebc:	ddf2      	ble.n	8ea4 <_svfprintf_r+0xd08>
    8ebe:	003a      	movs	r2, r7
    8ec0:	9906      	ldr	r1, [sp, #24]
    8ec2:	0020      	movs	r0, r4
    8ec4:	f002 fc28 	bl	b718 <__ssprint_r>
    8ec8:	2800      	cmp	r0, #0
    8eca:	d001      	beq.n	8ed0 <_svfprintf_r+0xd34>
    8ecc:	f7ff f9ed 	bl	82aa <_svfprintf_r+0x10e>
    8ed0:	68b9      	ldr	r1, [r7, #8]
    8ed2:	687b      	ldr	r3, [r7, #4]
    8ed4:	aa32      	add	r2, sp, #200	; 0xc8
    8ed6:	e7e6      	b.n	8ea6 <_svfprintf_r+0xd0a>
    8ed8:	46a9      	mov	r9, r5
    8eda:	000c      	movs	r4, r1
    8edc:	0035      	movs	r5, r6
    8ede:	0016      	movs	r6, r2
    8ee0:	464a      	mov	r2, r9
    8ee2:	1964      	adds	r4, r4, r5
    8ee4:	3301      	adds	r3, #1
    8ee6:	6032      	str	r2, [r6, #0]
    8ee8:	6075      	str	r5, [r6, #4]
    8eea:	60bc      	str	r4, [r7, #8]
    8eec:	607b      	str	r3, [r7, #4]
    8eee:	2b07      	cmp	r3, #7
    8ef0:	dc00      	bgt.n	8ef4 <_svfprintf_r+0xd58>
    8ef2:	e548      	b.n	8986 <_svfprintf_r+0x7ea>
    8ef4:	e5e5      	b.n	8ac2 <_svfprintf_r+0x926>
    8ef6:	9b0c      	ldr	r3, [sp, #48]	; 0x30
    8ef8:	2b09      	cmp	r3, #9
    8efa:	d900      	bls.n	8efe <_svfprintf_r+0xd62>
    8efc:	e730      	b.n	8d60 <_svfprintf_r+0xbc4>
    8efe:	9c08      	ldr	r4, [sp, #32]
    8f00:	2227      	movs	r2, #39	; 0x27
    8f02:	9b0c      	ldr	r3, [sp, #48]	; 0x30
    8f04:	a928      	add	r1, sp, #160	; 0xa0
    8f06:	3330      	adds	r3, #48	; 0x30
    8f08:	548b      	strb	r3, [r1, r2]
    8f0a:	2301      	movs	r3, #1
    8f0c:	aa16      	add	r2, sp, #88	; 0x58
    8f0e:	4694      	mov	ip, r2
    8f10:	930e      	str	r3, [sp, #56]	; 0x38
    8f12:	336e      	adds	r3, #110	; 0x6e
    8f14:	4463      	add	r3, ip
    8f16:	9408      	str	r4, [sp, #32]
    8f18:	9311      	str	r3, [sp, #68]	; 0x44
    8f1a:	f7ff fa4f 	bl	83bc <_svfprintf_r+0x220>
    8f1e:	2b30      	cmp	r3, #48	; 0x30
    8f20:	d100      	bne.n	8f24 <_svfprintf_r+0xd88>
    8f22:	e20b      	b.n	933c <_svfprintf_r+0x11a0>
    8f24:	2330      	movs	r3, #48	; 0x30
    8f26:	3a02      	subs	r2, #2
    8f28:	7013      	strb	r3, [r2, #0]
    8f2a:	ab32      	add	r3, sp, #200	; 0xc8
    8f2c:	1a9b      	subs	r3, r3, r2
    8f2e:	930e      	str	r3, [sp, #56]	; 0x38
    8f30:	9211      	str	r2, [sp, #68]	; 0x44
    8f32:	f7ff fa43 	bl	83bc <_svfprintf_r+0x220>
    8f36:	46b0      	mov	r8, r6
    8f38:	46a1      	mov	r9, r4
    8f3a:	0016      	movs	r6, r2
    8f3c:	000c      	movs	r4, r1
    8f3e:	464a      	mov	r2, r9
    8f40:	6032      	str	r2, [r6, #0]
    8f42:	4642      	mov	r2, r8
    8f44:	4444      	add	r4, r8
    8f46:	3301      	adds	r3, #1
    8f48:	6072      	str	r2, [r6, #4]
    8f4a:	60bc      	str	r4, [r7, #8]
    8f4c:	607b      	str	r3, [r7, #4]
    8f4e:	2b07      	cmp	r3, #7
    8f50:	dd00      	ble.n	8f54 <_svfprintf_r+0xdb8>
    8f52:	e29c      	b.n	948e <_svfprintf_r+0x12f2>
    8f54:	3608      	adds	r6, #8
    8f56:	9b1f      	ldr	r3, [sp, #124]	; 0x7c
    8f58:	9a14      	ldr	r2, [sp, #80]	; 0x50
    8f5a:	4293      	cmp	r3, r2
    8f5c:	db4c      	blt.n	8ff8 <_svfprintf_r+0xe5c>
    8f5e:	9a08      	ldr	r2, [sp, #32]
    8f60:	07d2      	lsls	r2, r2, #31
    8f62:	d449      	bmi.n	8ff8 <_svfprintf_r+0xe5c>
    8f64:	9a14      	ldr	r2, [sp, #80]	; 0x50
    8f66:	9913      	ldr	r1, [sp, #76]	; 0x4c
    8f68:	1ad3      	subs	r3, r2, r3
    8f6a:	1a52      	subs	r2, r2, r1
    8f6c:	4690      	mov	r8, r2
    8f6e:	429a      	cmp	r2, r3
    8f70:	dd00      	ble.n	8f74 <_svfprintf_r+0xdd8>
    8f72:	4698      	mov	r8, r3
    8f74:	4642      	mov	r2, r8
    8f76:	2a00      	cmp	r2, #0
    8f78:	dd0f      	ble.n	8f9a <_svfprintf_r+0xdfe>
    8f7a:	9913      	ldr	r1, [sp, #76]	; 0x4c
    8f7c:	9a11      	ldr	r2, [sp, #68]	; 0x44
    8f7e:	468c      	mov	ip, r1
    8f80:	4462      	add	r2, ip
    8f82:	6032      	str	r2, [r6, #0]
    8f84:	4642      	mov	r2, r8
    8f86:	6072      	str	r2, [r6, #4]
    8f88:	687a      	ldr	r2, [r7, #4]
    8f8a:	4444      	add	r4, r8
    8f8c:	3201      	adds	r2, #1
    8f8e:	60bc      	str	r4, [r7, #8]
    8f90:	607a      	str	r2, [r7, #4]
    8f92:	2a07      	cmp	r2, #7
    8f94:	dd00      	ble.n	8f98 <_svfprintf_r+0xdfc>
    8f96:	e286      	b.n	94a6 <_svfprintf_r+0x130a>
    8f98:	3608      	adds	r6, #8
    8f9a:	4642      	mov	r2, r8
    8f9c:	43d5      	mvns	r5, r2
    8f9e:	17ed      	asrs	r5, r5, #31
    8fa0:	4015      	ands	r5, r2
    8fa2:	1b5d      	subs	r5, r3, r5
    8fa4:	2d00      	cmp	r5, #0
    8fa6:	dc00      	bgt.n	8faa <_svfprintf_r+0xe0e>
    8fa8:	e4ee      	b.n	8988 <_svfprintf_r+0x7ec>
    8faa:	4a28      	ldr	r2, [pc, #160]	; (904c <_svfprintf_r+0xeb0>)
    8fac:	687b      	ldr	r3, [r7, #4]
    8fae:	4691      	mov	r9, r2
    8fb0:	2d10      	cmp	r5, #16
    8fb2:	dd95      	ble.n	8ee0 <_svfprintf_r+0xd44>
    8fb4:	2210      	movs	r2, #16
    8fb6:	0021      	movs	r1, r4
    8fb8:	4690      	mov	r8, r2
    8fba:	9c09      	ldr	r4, [sp, #36]	; 0x24
    8fbc:	0032      	movs	r2, r6
    8fbe:	002e      	movs	r6, r5
    8fc0:	464d      	mov	r5, r9
    8fc2:	e003      	b.n	8fcc <_svfprintf_r+0xe30>
    8fc4:	3208      	adds	r2, #8
    8fc6:	3e10      	subs	r6, #16
    8fc8:	2e10      	cmp	r6, #16
    8fca:	dd85      	ble.n	8ed8 <_svfprintf_r+0xd3c>
    8fcc:	4640      	mov	r0, r8
    8fce:	3110      	adds	r1, #16
    8fd0:	3301      	adds	r3, #1
    8fd2:	6015      	str	r5, [r2, #0]
    8fd4:	6050      	str	r0, [r2, #4]
    8fd6:	60b9      	str	r1, [r7, #8]
    8fd8:	607b      	str	r3, [r7, #4]
    8fda:	2b07      	cmp	r3, #7
    8fdc:	ddf2      	ble.n	8fc4 <_svfprintf_r+0xe28>
    8fde:	003a      	movs	r2, r7
    8fe0:	9906      	ldr	r1, [sp, #24]
    8fe2:	0020      	movs	r0, r4
    8fe4:	f002 fb98 	bl	b718 <__ssprint_r>
    8fe8:	2800      	cmp	r0, #0
    8fea:	d001      	beq.n	8ff0 <_svfprintf_r+0xe54>
    8fec:	f7ff f95d 	bl	82aa <_svfprintf_r+0x10e>
    8ff0:	68b9      	ldr	r1, [r7, #8]
    8ff2:	687b      	ldr	r3, [r7, #4]
    8ff4:	aa32      	add	r2, sp, #200	; 0xc8
    8ff6:	e7e6      	b.n	8fc6 <_svfprintf_r+0xe2a>
    8ff8:	9a19      	ldr	r2, [sp, #100]	; 0x64
    8ffa:	6032      	str	r2, [r6, #0]
    8ffc:	9a18      	ldr	r2, [sp, #96]	; 0x60
    8ffe:	4694      	mov	ip, r2
    9000:	6072      	str	r2, [r6, #4]
    9002:	687a      	ldr	r2, [r7, #4]
    9004:	4464      	add	r4, ip
    9006:	3201      	adds	r2, #1
    9008:	60bc      	str	r4, [r7, #8]
    900a:	607a      	str	r2, [r7, #4]
    900c:	2a07      	cmp	r2, #7
    900e:	dd00      	ble.n	9012 <_svfprintf_r+0xe76>
    9010:	e230      	b.n	9474 <_svfprintf_r+0x12d8>
    9012:	3608      	adds	r6, #8
    9014:	e7a6      	b.n	8f64 <_svfprintf_r+0xdc8>
    9016:	003a      	movs	r2, r7
    9018:	9906      	ldr	r1, [sp, #24]
    901a:	9809      	ldr	r0, [sp, #36]	; 0x24
    901c:	f002 fb7c 	bl	b718 <__ssprint_r>
    9020:	2800      	cmp	r0, #0
    9022:	d001      	beq.n	9028 <_svfprintf_r+0xe8c>
    9024:	f7ff f941 	bl	82aa <_svfprintf_r+0x10e>
    9028:	68bc      	ldr	r4, [r7, #8]
    902a:	687b      	ldr	r3, [r7, #4]
    902c:	ae32      	add	r6, sp, #200	; 0xc8
    902e:	e513      	b.n	8a58 <_svfprintf_r+0x8bc>
    9030:	003a      	movs	r2, r7
    9032:	9906      	ldr	r1, [sp, #24]
    9034:	9809      	ldr	r0, [sp, #36]	; 0x24
    9036:	f002 fb6f 	bl	b718 <__ssprint_r>
    903a:	2800      	cmp	r0, #0
    903c:	d001      	beq.n	9042 <_svfprintf_r+0xea6>
    903e:	f7ff f934 	bl	82aa <_svfprintf_r+0x10e>
    9042:	687b      	ldr	r3, [r7, #4]
    9044:	68bc      	ldr	r4, [r7, #8]
    9046:	4698      	mov	r8, r3
    9048:	ae32      	add	r6, sp, #200	; 0xc8
    904a:	e513      	b.n	8a74 <_svfprintf_r+0x8d8>
    904c:	0000d5dc 	.word	0x0000d5dc
    9050:	2307      	movs	r3, #7
    9052:	3207      	adds	r2, #7
    9054:	439a      	bics	r2, r3
    9056:	3301      	adds	r3, #1
    9058:	469c      	mov	ip, r3
    905a:	4494      	add	ip, r2
    905c:	4663      	mov	r3, ip
    905e:	930f      	str	r3, [sp, #60]	; 0x3c
    9060:	6853      	ldr	r3, [r2, #4]
    9062:	6812      	ldr	r2, [r2, #0]
    9064:	930d      	str	r3, [sp, #52]	; 0x34
    9066:	920c      	str	r2, [sp, #48]	; 0x30
    9068:	2b00      	cmp	r3, #0
    906a:	db01      	blt.n	9070 <_svfprintf_r+0xed4>
    906c:	f7ff f97a 	bl	8364 <_svfprintf_r+0x1c8>
    9070:	980c      	ldr	r0, [sp, #48]	; 0x30
    9072:	990d      	ldr	r1, [sp, #52]	; 0x34
    9074:	2300      	movs	r3, #0
    9076:	4242      	negs	r2, r0
    9078:	418b      	sbcs	r3, r1
    907a:	0011      	movs	r1, r2
    907c:	001a      	movs	r2, r3
    907e:	232d      	movs	r3, #45	; 0x2d
    9080:	a816      	add	r0, sp, #88	; 0x58
    9082:	77c3      	strb	r3, [r0, #31]
    9084:	0008      	movs	r0, r1
    9086:	4310      	orrs	r0, r2
    9088:	910c      	str	r1, [sp, #48]	; 0x30
    908a:	920d      	str	r2, [sp, #52]	; 0x34
    908c:	4698      	mov	r8, r3
    908e:	0002      	movs	r2, r0
    9090:	3b2c      	subs	r3, #44	; 0x2c
    9092:	f7ff f970 	bl	8376 <_svfprintf_r+0x1da>
    9096:	003a      	movs	r2, r7
    9098:	9906      	ldr	r1, [sp, #24]
    909a:	9809      	ldr	r0, [sp, #36]	; 0x24
    909c:	f002 fb3c 	bl	b718 <__ssprint_r>
    90a0:	2800      	cmp	r0, #0
    90a2:	d001      	beq.n	90a8 <_svfprintf_r+0xf0c>
    90a4:	f7ff f901 	bl	82aa <_svfprintf_r+0x10e>
    90a8:	68bc      	ldr	r4, [r7, #8]
    90aa:	ae32      	add	r6, sp, #200	; 0xc8
    90ac:	e418      	b.n	88e0 <_svfprintf_r+0x744>
    90ae:	9916      	ldr	r1, [sp, #88]	; 0x58
    90b0:	9d15      	ldr	r5, [sp, #84]	; 0x54
    90b2:	000a      	movs	r2, r1
    90b4:	0008      	movs	r0, r1
    90b6:	002b      	movs	r3, r5
    90b8:	0029      	movs	r1, r5
    90ba:	f7fe fa3d 	bl	7538 <__aeabi_dcmpun>
    90be:	2800      	cmp	r0, #0
    90c0:	d000      	beq.n	90c4 <_svfprintf_r+0xf28>
    90c2:	e2e6      	b.n	9692 <_svfprintf_r+0x14f6>
    90c4:	4653      	mov	r3, sl
    90c6:	3301      	adds	r3, #1
    90c8:	d100      	bne.n	90cc <_svfprintf_r+0xf30>
    90ca:	e20d      	b.n	94e8 <_svfprintf_r+0x134c>
    90cc:	2320      	movs	r3, #32
    90ce:	9a12      	ldr	r2, [sp, #72]	; 0x48
    90d0:	439a      	bics	r2, r3
    90d2:	920e      	str	r2, [sp, #56]	; 0x38
    90d4:	2a47      	cmp	r2, #71	; 0x47
    90d6:	d100      	bne.n	90da <_svfprintf_r+0xf3e>
    90d8:	e11c      	b.n	9314 <_svfprintf_r+0x1178>
    90da:	2380      	movs	r3, #128	; 0x80
    90dc:	005b      	lsls	r3, r3, #1
    90de:	4323      	orrs	r3, r4
    90e0:	9308      	str	r3, [sp, #32]
    90e2:	9b15      	ldr	r3, [sp, #84]	; 0x54
    90e4:	2b00      	cmp	r3, #0
    90e6:	da00      	bge.n	90ea <_svfprintf_r+0xf4e>
    90e8:	e221      	b.n	952e <_svfprintf_r+0x1392>
    90ea:	9a16      	ldr	r2, [sp, #88]	; 0x58
    90ec:	9307      	str	r3, [sp, #28]
    90ee:	2300      	movs	r3, #0
    90f0:	4691      	mov	r9, r2
    90f2:	9310      	str	r3, [sp, #64]	; 0x40
    90f4:	9b12      	ldr	r3, [sp, #72]	; 0x48
    90f6:	2b66      	cmp	r3, #102	; 0x66
    90f8:	d100      	bne.n	90fc <_svfprintf_r+0xf60>
    90fa:	e1fc      	b.n	94f6 <_svfprintf_r+0x135a>
    90fc:	2b46      	cmp	r3, #70	; 0x46
    90fe:	d100      	bne.n	9102 <_svfprintf_r+0xf66>
    9100:	e0db      	b.n	92ba <_svfprintf_r+0x111e>
    9102:	9a0e      	ldr	r2, [sp, #56]	; 0x38
    9104:	9809      	ldr	r0, [sp, #36]	; 0x24
    9106:	3a45      	subs	r2, #69	; 0x45
    9108:	0013      	movs	r3, r2
    910a:	4259      	negs	r1, r3
    910c:	4159      	adcs	r1, r3
    910e:	ab20      	add	r3, sp, #128	; 0x80
    9110:	000d      	movs	r5, r1
    9112:	9303      	str	r3, [sp, #12]
    9114:	ab1f      	add	r3, sp, #124	; 0x7c
    9116:	9302      	str	r3, [sp, #8]
    9118:	2302      	movs	r3, #2
    911a:	aa23      	add	r2, sp, #140	; 0x8c
    911c:	4455      	add	r5, sl
    911e:	921b      	str	r2, [sp, #108]	; 0x6c
    9120:	9204      	str	r2, [sp, #16]
    9122:	9300      	str	r3, [sp, #0]
    9124:	9501      	str	r5, [sp, #4]
    9126:	9b07      	ldr	r3, [sp, #28]
    9128:	464a      	mov	r2, r9
    912a:	f000 fbf9 	bl	9920 <_dtoa_r>
    912e:	9b12      	ldr	r3, [sp, #72]	; 0x48
    9130:	9011      	str	r0, [sp, #68]	; 0x44
    9132:	2b67      	cmp	r3, #103	; 0x67
    9134:	d000      	beq.n	9138 <_svfprintf_r+0xf9c>
    9136:	e239      	b.n	95ac <_svfprintf_r+0x1410>
    9138:	9b11      	ldr	r3, [sp, #68]	; 0x44
    913a:	4698      	mov	r8, r3
    913c:	44a8      	add	r8, r5
    913e:	07e3      	lsls	r3, r4, #31
    9140:	d400      	bmi.n	9144 <_svfprintf_r+0xfa8>
    9142:	e28b      	b.n	965c <_svfprintf_r+0x14c0>
    9144:	2300      	movs	r3, #0
    9146:	2200      	movs	r2, #0
    9148:	4648      	mov	r0, r9
    914a:	9907      	ldr	r1, [sp, #28]
    914c:	f7fc fc7c 	bl	5a48 <__aeabi_dcmpeq>
    9150:	4643      	mov	r3, r8
    9152:	2800      	cmp	r0, #0
    9154:	d10a      	bne.n	916c <_svfprintf_r+0xfd0>
    9156:	9b23      	ldr	r3, [sp, #140]	; 0x8c
    9158:	4543      	cmp	r3, r8
    915a:	d207      	bcs.n	916c <_svfprintf_r+0xfd0>
    915c:	2130      	movs	r1, #48	; 0x30
    915e:	4640      	mov	r0, r8
    9160:	1c5a      	adds	r2, r3, #1
    9162:	9223      	str	r2, [sp, #140]	; 0x8c
    9164:	7019      	strb	r1, [r3, #0]
    9166:	9b23      	ldr	r3, [sp, #140]	; 0x8c
    9168:	4298      	cmp	r0, r3
    916a:	d8f9      	bhi.n	9160 <_svfprintf_r+0xfc4>
    916c:	9a11      	ldr	r2, [sp, #68]	; 0x44
    916e:	1a9b      	subs	r3, r3, r2
    9170:	9314      	str	r3, [sp, #80]	; 0x50
    9172:	9b0e      	ldr	r3, [sp, #56]	; 0x38
    9174:	2b47      	cmp	r3, #71	; 0x47
    9176:	d100      	bne.n	917a <_svfprintf_r+0xfde>
    9178:	e0f6      	b.n	9368 <_svfprintf_r+0x11cc>
    917a:	9b12      	ldr	r3, [sp, #72]	; 0x48
    917c:	2b65      	cmp	r3, #101	; 0x65
    917e:	dc00      	bgt.n	9182 <_svfprintf_r+0xfe6>
    9180:	e226      	b.n	95d0 <_svfprintf_r+0x1434>
    9182:	9b12      	ldr	r3, [sp, #72]	; 0x48
    9184:	2b66      	cmp	r3, #102	; 0x66
    9186:	d100      	bne.n	918a <_svfprintf_r+0xfee>
    9188:	e1f4      	b.n	9574 <_svfprintf_r+0x13d8>
    918a:	9b1f      	ldr	r3, [sp, #124]	; 0x7c
    918c:	9313      	str	r3, [sp, #76]	; 0x4c
    918e:	9b14      	ldr	r3, [sp, #80]	; 0x50
    9190:	9a13      	ldr	r2, [sp, #76]	; 0x4c
    9192:	0019      	movs	r1, r3
    9194:	4291      	cmp	r1, r2
    9196:	dd00      	ble.n	919a <_svfprintf_r+0xffe>
    9198:	e1d4      	b.n	9544 <_svfprintf_r+0x13a8>
    919a:	07e3      	lsls	r3, r4, #31
    919c:	d500      	bpl.n	91a0 <_svfprintf_r+0x1004>
    919e:	e249      	b.n	9634 <_svfprintf_r+0x1498>
    91a0:	43d3      	mvns	r3, r2
    91a2:	17db      	asrs	r3, r3, #31
    91a4:	0011      	movs	r1, r2
    91a6:	401a      	ands	r2, r3
    91a8:	2367      	movs	r3, #103	; 0x67
    91aa:	9207      	str	r2, [sp, #28]
    91ac:	910e      	str	r1, [sp, #56]	; 0x38
    91ae:	9312      	str	r3, [sp, #72]	; 0x48
    91b0:	9b10      	ldr	r3, [sp, #64]	; 0x40
    91b2:	2b00      	cmp	r3, #0
    91b4:	d000      	beq.n	91b8 <_svfprintf_r+0x101c>
    91b6:	e0cf      	b.n	9358 <_svfprintf_r+0x11bc>
    91b8:	ab16      	add	r3, sp, #88	; 0x58
    91ba:	7fdb      	ldrb	r3, [r3, #31]
    91bc:	4698      	mov	r8, r3
    91be:	2300      	movs	r3, #0
    91c0:	469a      	mov	sl, r3
    91c2:	f7ff f903 	bl	83cc <_svfprintf_r+0x230>
    91c6:	9a0f      	ldr	r2, [sp, #60]	; 0x3c
    91c8:	990a      	ldr	r1, [sp, #40]	; 0x28
    91ca:	6813      	ldr	r3, [r2, #0]
    91cc:	6019      	str	r1, [r3, #0]
    91ce:	0013      	movs	r3, r2
    91d0:	3304      	adds	r3, #4
    91d2:	930f      	str	r3, [sp, #60]	; 0x3c
    91d4:	f7ff f80d 	bl	81f2 <_svfprintf_r+0x56>
    91d8:	003a      	movs	r2, r7
    91da:	9906      	ldr	r1, [sp, #24]
    91dc:	9809      	ldr	r0, [sp, #36]	; 0x24
    91de:	f002 fa9b 	bl	b718 <__ssprint_r>
    91e2:	2800      	cmp	r0, #0
    91e4:	d001      	beq.n	91ea <_svfprintf_r+0x104e>
    91e6:	f7ff f860 	bl	82aa <_svfprintf_r+0x10e>
    91ea:	ae32      	add	r6, sp, #200	; 0xc8
    91ec:	e48e      	b.n	8b0c <_svfprintf_r+0x970>
    91ee:	4bde      	ldr	r3, [pc, #888]	; (9568 <_svfprintf_r+0x13cc>)
    91f0:	3401      	adds	r4, #1
    91f2:	6033      	str	r3, [r6, #0]
    91f4:	2301      	movs	r3, #1
    91f6:	6073      	str	r3, [r6, #4]
    91f8:	687b      	ldr	r3, [r7, #4]
    91fa:	60bc      	str	r4, [r7, #8]
    91fc:	3301      	adds	r3, #1
    91fe:	607b      	str	r3, [r7, #4]
    9200:	2b07      	cmp	r3, #7
    9202:	dc7a      	bgt.n	92fa <_svfprintf_r+0x115e>
    9204:	3608      	adds	r6, #8
    9206:	2800      	cmp	r0, #0
    9208:	d107      	bne.n	921a <_svfprintf_r+0x107e>
    920a:	9b14      	ldr	r3, [sp, #80]	; 0x50
    920c:	2b00      	cmp	r3, #0
    920e:	d104      	bne.n	921a <_svfprintf_r+0x107e>
    9210:	9b08      	ldr	r3, [sp, #32]
    9212:	07db      	lsls	r3, r3, #31
    9214:	d401      	bmi.n	921a <_svfprintf_r+0x107e>
    9216:	f7ff fbb7 	bl	8988 <_svfprintf_r+0x7ec>
    921a:	9b19      	ldr	r3, [sp, #100]	; 0x64
    921c:	6033      	str	r3, [r6, #0]
    921e:	9b18      	ldr	r3, [sp, #96]	; 0x60
    9220:	1919      	adds	r1, r3, r4
    9222:	6073      	str	r3, [r6, #4]
    9224:	687b      	ldr	r3, [r7, #4]
    9226:	60b9      	str	r1, [r7, #8]
    9228:	3301      	adds	r3, #1
    922a:	607b      	str	r3, [r7, #4]
    922c:	2b07      	cmp	r3, #7
    922e:	dd00      	ble.n	9232 <_svfprintf_r+0x1096>
    9230:	e1f2      	b.n	9618 <_svfprintf_r+0x147c>
    9232:	0032      	movs	r2, r6
    9234:	3208      	adds	r2, #8
    9236:	2800      	cmp	r0, #0
    9238:	da00      	bge.n	923c <_svfprintf_r+0x10a0>
    923a:	e1cc      	b.n	95d6 <_svfprintf_r+0x143a>
    923c:	9811      	ldr	r0, [sp, #68]	; 0x44
    923e:	3301      	adds	r3, #1
    9240:	6010      	str	r0, [r2, #0]
    9242:	9814      	ldr	r0, [sp, #80]	; 0x50
    9244:	607b      	str	r3, [r7, #4]
    9246:	1844      	adds	r4, r0, r1
    9248:	6050      	str	r0, [r2, #4]
    924a:	60bc      	str	r4, [r7, #8]
    924c:	2b07      	cmp	r3, #7
    924e:	dd00      	ble.n	9252 <_svfprintf_r+0x10b6>
    9250:	e437      	b.n	8ac2 <_svfprintf_r+0x926>
    9252:	3208      	adds	r2, #8
    9254:	0016      	movs	r6, r2
    9256:	f7ff fb97 	bl	8988 <_svfprintf_r+0x7ec>
    925a:	990f      	ldr	r1, [sp, #60]	; 0x3c
    925c:	9a0a      	ldr	r2, [sp, #40]	; 0x28
    925e:	680b      	ldr	r3, [r1, #0]
    9260:	601a      	str	r2, [r3, #0]
    9262:	17d2      	asrs	r2, r2, #31
    9264:	605a      	str	r2, [r3, #4]
    9266:	000b      	movs	r3, r1
    9268:	3304      	adds	r3, #4
    926a:	930f      	str	r3, [sp, #60]	; 0x3c
    926c:	f7fe ffc1 	bl	81f2 <_svfprintf_r+0x56>
    9270:	464b      	mov	r3, r9
    9272:	3101      	adds	r1, #1
    9274:	431c      	orrs	r4, r3
    9276:	780b      	ldrb	r3, [r1, #0]
    9278:	f7fe fff4 	bl	8264 <_svfprintf_r+0xc8>
    927c:	4bbb      	ldr	r3, [pc, #748]	; (956c <_svfprintf_r+0x13d0>)
    927e:	9311      	str	r3, [sp, #68]	; 0x44
    9280:	f7ff f937 	bl	84f2 <_svfprintf_r+0x356>
    9284:	003a      	movs	r2, r7
    9286:	9906      	ldr	r1, [sp, #24]
    9288:	9809      	ldr	r0, [sp, #36]	; 0x24
    928a:	f002 fa45 	bl	b718 <__ssprint_r>
    928e:	2800      	cmp	r0, #0
    9290:	d001      	beq.n	9296 <_svfprintf_r+0x10fa>
    9292:	f7ff f80a 	bl	82aa <_svfprintf_r+0x10e>
    9296:	68bc      	ldr	r4, [r7, #8]
    9298:	ae32      	add	r6, sp, #200	; 0xc8
    929a:	e5f1      	b.n	8e80 <_svfprintf_r+0xce4>
    929c:	2140      	movs	r1, #64	; 0x40
    929e:	9809      	ldr	r0, [sp, #36]	; 0x24
    92a0:	f001 fb32 	bl	a908 <_malloc_r>
    92a4:	9b06      	ldr	r3, [sp, #24]
    92a6:	6018      	str	r0, [r3, #0]
    92a8:	6118      	str	r0, [r3, #16]
    92aa:	2800      	cmp	r0, #0
    92ac:	d100      	bne.n	92b0 <_svfprintf_r+0x1114>
    92ae:	e24f      	b.n	9750 <_svfprintf_r+0x15b4>
    92b0:	2340      	movs	r3, #64	; 0x40
    92b2:	9a06      	ldr	r2, [sp, #24]
    92b4:	6153      	str	r3, [r2, #20]
    92b6:	f7fe ff8e 	bl	81d6 <_svfprintf_r+0x3a>
    92ba:	ab23      	add	r3, sp, #140	; 0x8c
    92bc:	931b      	str	r3, [sp, #108]	; 0x6c
    92be:	9304      	str	r3, [sp, #16]
    92c0:	ab20      	add	r3, sp, #128	; 0x80
    92c2:	9303      	str	r3, [sp, #12]
    92c4:	ab1f      	add	r3, sp, #124	; 0x7c
    92c6:	9302      	str	r3, [sp, #8]
    92c8:	4653      	mov	r3, sl
    92ca:	9301      	str	r3, [sp, #4]
    92cc:	2303      	movs	r3, #3
    92ce:	464a      	mov	r2, r9
    92d0:	9300      	str	r3, [sp, #0]
    92d2:	9809      	ldr	r0, [sp, #36]	; 0x24
    92d4:	9b07      	ldr	r3, [sp, #28]
    92d6:	f000 fb23 	bl	9920 <_dtoa_r>
    92da:	4655      	mov	r5, sl
    92dc:	9011      	str	r0, [sp, #68]	; 0x44
    92de:	9b11      	ldr	r3, [sp, #68]	; 0x44
    92e0:	4698      	mov	r8, r3
    92e2:	9b12      	ldr	r3, [sp, #72]	; 0x48
    92e4:	44a8      	add	r8, r5
    92e6:	2b46      	cmp	r3, #70	; 0x46
    92e8:	d000      	beq.n	92ec <_svfprintf_r+0x1150>
    92ea:	e72b      	b.n	9144 <_svfprintf_r+0xfa8>
    92ec:	9b11      	ldr	r3, [sp, #68]	; 0x44
    92ee:	781b      	ldrb	r3, [r3, #0]
    92f0:	2b30      	cmp	r3, #48	; 0x30
    92f2:	d016      	beq.n	9322 <_svfprintf_r+0x1186>
    92f4:	9b1f      	ldr	r3, [sp, #124]	; 0x7c
    92f6:	4498      	add	r8, r3
    92f8:	e724      	b.n	9144 <_svfprintf_r+0xfa8>
    92fa:	003a      	movs	r2, r7
    92fc:	9906      	ldr	r1, [sp, #24]
    92fe:	9809      	ldr	r0, [sp, #36]	; 0x24
    9300:	f002 fa0a 	bl	b718 <__ssprint_r>
    9304:	2800      	cmp	r0, #0
    9306:	d001      	beq.n	930c <_svfprintf_r+0x1170>
    9308:	f7fe ffcf 	bl	82aa <_svfprintf_r+0x10e>
    930c:	981f      	ldr	r0, [sp, #124]	; 0x7c
    930e:	68bc      	ldr	r4, [r7, #8]
    9310:	ae32      	add	r6, sp, #200	; 0xc8
    9312:	e778      	b.n	9206 <_svfprintf_r+0x106a>
    9314:	4653      	mov	r3, sl
    9316:	2b00      	cmp	r3, #0
    9318:	d000      	beq.n	931c <_svfprintf_r+0x1180>
    931a:	e6de      	b.n	90da <_svfprintf_r+0xf3e>
    931c:	3301      	adds	r3, #1
    931e:	469a      	mov	sl, r3
    9320:	e6db      	b.n	90da <_svfprintf_r+0xf3e>
    9322:	2200      	movs	r2, #0
    9324:	2300      	movs	r3, #0
    9326:	4648      	mov	r0, r9
    9328:	9907      	ldr	r1, [sp, #28]
    932a:	f7fc fb8d 	bl	5a48 <__aeabi_dcmpeq>
    932e:	2800      	cmp	r0, #0
    9330:	d1e0      	bne.n	92f4 <_svfprintf_r+0x1158>
    9332:	2301      	movs	r3, #1
    9334:	1b5b      	subs	r3, r3, r5
    9336:	931f      	str	r3, [sp, #124]	; 0x7c
    9338:	4498      	add	r8, r3
    933a:	e703      	b.n	9144 <_svfprintf_r+0xfa8>
    933c:	9a11      	ldr	r2, [sp, #68]	; 0x44
    933e:	ab32      	add	r3, sp, #200	; 0xc8
    9340:	1a9b      	subs	r3, r3, r2
    9342:	930e      	str	r3, [sp, #56]	; 0x38
    9344:	f7ff f83a 	bl	83bc <_svfprintf_r+0x220>
    9348:	9811      	ldr	r0, [sp, #68]	; 0x44
    934a:	f7fe fba3 	bl	7a94 <strlen>
    934e:	0002      	movs	r2, r0
    9350:	900e      	str	r0, [sp, #56]	; 0x38
    9352:	0003      	movs	r3, r0
    9354:	f7ff f9cd 	bl	86f2 <_svfprintf_r+0x556>
    9358:	232d      	movs	r3, #45	; 0x2d
    935a:	aa16      	add	r2, sp, #88	; 0x58
    935c:	77d3      	strb	r3, [r2, #31]
    935e:	4698      	mov	r8, r3
    9360:	2300      	movs	r3, #0
    9362:	469a      	mov	sl, r3
    9364:	f7ff f835 	bl	83d2 <_svfprintf_r+0x236>
    9368:	9b1f      	ldr	r3, [sp, #124]	; 0x7c
    936a:	9313      	str	r3, [sp, #76]	; 0x4c
    936c:	1cda      	adds	r2, r3, #3
    936e:	db02      	blt.n	9376 <_svfprintf_r+0x11da>
    9370:	459a      	cmp	sl, r3
    9372:	db00      	blt.n	9376 <_svfprintf_r+0x11da>
    9374:	e70b      	b.n	918e <_svfprintf_r+0xff2>
    9376:	9b12      	ldr	r3, [sp, #72]	; 0x48
    9378:	3b02      	subs	r3, #2
    937a:	9312      	str	r3, [sp, #72]	; 0x48
    937c:	222c      	movs	r2, #44	; 0x2c
    937e:	9b13      	ldr	r3, [sp, #76]	; 0x4c
    9380:	2148      	movs	r1, #72	; 0x48
    9382:	1e5d      	subs	r5, r3, #1
    9384:	ab16      	add	r3, sp, #88	; 0x58
    9386:	189b      	adds	r3, r3, r2
    9388:	466a      	mov	r2, sp
    938a:	1852      	adds	r2, r2, r1
    938c:	7812      	ldrb	r2, [r2, #0]
    938e:	951f      	str	r5, [sp, #124]	; 0x7c
    9390:	701a      	strb	r2, [r3, #0]
    9392:	2d00      	cmp	r5, #0
    9394:	da00      	bge.n	9398 <_svfprintf_r+0x11fc>
    9396:	e1a4      	b.n	96e2 <_svfprintf_r+0x1546>
    9398:	212d      	movs	r1, #45	; 0x2d
    939a:	232b      	movs	r3, #43	; 0x2b
    939c:	aa16      	add	r2, sp, #88	; 0x58
    939e:	1852      	adds	r2, r2, r1
    93a0:	7013      	strb	r3, [r2, #0]
    93a2:	2d09      	cmp	r5, #9
    93a4:	dc00      	bgt.n	93a8 <_svfprintf_r+0x120c>
    93a6:	e14c      	b.n	9642 <_svfprintf_r+0x14a6>
    93a8:	aa16      	add	r2, sp, #88	; 0x58
    93aa:	233b      	movs	r3, #59	; 0x3b
    93ac:	4694      	mov	ip, r2
    93ae:	4463      	add	r3, ip
    93b0:	469a      	mov	sl, r3
    93b2:	46b1      	mov	r9, r6
    93b4:	46a0      	mov	r8, r4
    93b6:	4656      	mov	r6, sl
    93b8:	e000      	b.n	93bc <_svfprintf_r+0x1220>
    93ba:	0026      	movs	r6, r4
    93bc:	0028      	movs	r0, r5
    93be:	210a      	movs	r1, #10
    93c0:	f002 ff10 	bl	c1e4 <__aeabi_idivmod>
    93c4:	1e74      	subs	r4, r6, #1
    93c6:	3130      	adds	r1, #48	; 0x30
    93c8:	7021      	strb	r1, [r4, #0]
    93ca:	0028      	movs	r0, r5
    93cc:	210a      	movs	r1, #10
    93ce:	f002 fe23 	bl	c018 <__divsi3>
    93d2:	0005      	movs	r5, r0
    93d4:	2809      	cmp	r0, #9
    93d6:	dcf0      	bgt.n	93ba <_svfprintf_r+0x121e>
    93d8:	0023      	movs	r3, r4
    93da:	4644      	mov	r4, r8
    93dc:	46b0      	mov	r8, r6
    93de:	464e      	mov	r6, r9
    93e0:	4699      	mov	r9, r3
    93e2:	0003      	movs	r3, r0
    93e4:	3330      	adds	r3, #48	; 0x30
    93e6:	b2d8      	uxtb	r0, r3
    93e8:	4643      	mov	r3, r8
    93ea:	3b02      	subs	r3, #2
    93ec:	7018      	strb	r0, [r3, #0]
    93ee:	459a      	cmp	sl, r3
    93f0:	d800      	bhi.n	93f4 <_svfprintf_r+0x1258>
    93f2:	e1b4      	b.n	975e <_svfprintf_r+0x15c2>
    93f4:	4642      	mov	r2, r8
    93f6:	9b1b      	ldr	r3, [sp, #108]	; 0x6c
    93f8:	4645      	mov	r5, r8
    93fa:	1a99      	subs	r1, r3, r2
    93fc:	2301      	movs	r3, #1
    93fe:	3107      	adds	r1, #7
    9400:	425b      	negs	r3, r3
    9402:	e001      	b.n	9408 <_svfprintf_r+0x126c>
    9404:	5ce8      	ldrb	r0, [r5, r3]
    9406:	3301      	adds	r3, #1
    9408:	aa21      	add	r2, sp, #132	; 0x84
    940a:	18d2      	adds	r2, r2, r3
    940c:	70d0      	strb	r0, [r2, #3]
    940e:	428b      	cmp	r3, r1
    9410:	d1f8      	bne.n	9404 <_svfprintf_r+0x1268>
    9412:	a916      	add	r1, sp, #88	; 0x58
    9414:	468c      	mov	ip, r1
    9416:	222e      	movs	r2, #46	; 0x2e
    9418:	464b      	mov	r3, r9
    941a:	4462      	add	r2, ip
    941c:	4694      	mov	ip, r2
    941e:	1afb      	subs	r3, r7, r3
    9420:	4463      	add	r3, ip
    9422:	aa21      	add	r2, sp, #132	; 0x84
    9424:	9914      	ldr	r1, [sp, #80]	; 0x50
    9426:	1a9b      	subs	r3, r3, r2
    9428:	469c      	mov	ip, r3
    942a:	000a      	movs	r2, r1
    942c:	4462      	add	r2, ip
    942e:	931a      	str	r3, [sp, #104]	; 0x68
    9430:	920e      	str	r2, [sp, #56]	; 0x38
    9432:	2901      	cmp	r1, #1
    9434:	dc00      	bgt.n	9438 <_svfprintf_r+0x129c>
    9436:	e145      	b.n	96c4 <_svfprintf_r+0x1528>
    9438:	9a18      	ldr	r2, [sp, #96]	; 0x60
    943a:	9b0e      	ldr	r3, [sp, #56]	; 0x38
    943c:	4694      	mov	ip, r2
    943e:	4463      	add	r3, ip
    9440:	001a      	movs	r2, r3
    9442:	930e      	str	r3, [sp, #56]	; 0x38
    9444:	43db      	mvns	r3, r3
    9446:	17db      	asrs	r3, r3, #31
    9448:	401a      	ands	r2, r3
    944a:	2300      	movs	r3, #0
    944c:	9207      	str	r2, [sp, #28]
    944e:	9313      	str	r3, [sp, #76]	; 0x4c
    9450:	e6ae      	b.n	91b0 <_svfprintf_r+0x1014>
    9452:	2301      	movs	r3, #1
    9454:	425b      	negs	r3, r3
    9456:	930a      	str	r3, [sp, #40]	; 0x28
    9458:	f7fe ff2d 	bl	82b6 <_svfprintf_r+0x11a>
    945c:	003a      	movs	r2, r7
    945e:	9906      	ldr	r1, [sp, #24]
    9460:	9809      	ldr	r0, [sp, #36]	; 0x24
    9462:	f002 f959 	bl	b718 <__ssprint_r>
    9466:	2800      	cmp	r0, #0
    9468:	d001      	beq.n	946e <_svfprintf_r+0x12d2>
    946a:	f7fe ff1e 	bl	82aa <_svfprintf_r+0x10e>
    946e:	68bc      	ldr	r4, [r7, #8]
    9470:	ae32      	add	r6, sp, #200	; 0xc8
    9472:	e43c      	b.n	8cee <_svfprintf_r+0xb52>
    9474:	003a      	movs	r2, r7
    9476:	9906      	ldr	r1, [sp, #24]
    9478:	9809      	ldr	r0, [sp, #36]	; 0x24
    947a:	f002 f94d 	bl	b718 <__ssprint_r>
    947e:	2800      	cmp	r0, #0
    9480:	d001      	beq.n	9486 <_svfprintf_r+0x12ea>
    9482:	f7fe ff12 	bl	82aa <_svfprintf_r+0x10e>
    9486:	9b1f      	ldr	r3, [sp, #124]	; 0x7c
    9488:	68bc      	ldr	r4, [r7, #8]
    948a:	ae32      	add	r6, sp, #200	; 0xc8
    948c:	e56a      	b.n	8f64 <_svfprintf_r+0xdc8>
    948e:	003a      	movs	r2, r7
    9490:	9906      	ldr	r1, [sp, #24]
    9492:	9809      	ldr	r0, [sp, #36]	; 0x24
    9494:	f002 f940 	bl	b718 <__ssprint_r>
    9498:	2800      	cmp	r0, #0
    949a:	d001      	beq.n	94a0 <_svfprintf_r+0x1304>
    949c:	f7fe ff05 	bl	82aa <_svfprintf_r+0x10e>
    94a0:	68bc      	ldr	r4, [r7, #8]
    94a2:	ae32      	add	r6, sp, #200	; 0xc8
    94a4:	e557      	b.n	8f56 <_svfprintf_r+0xdba>
    94a6:	003a      	movs	r2, r7
    94a8:	9906      	ldr	r1, [sp, #24]
    94aa:	9809      	ldr	r0, [sp, #36]	; 0x24
    94ac:	f002 f934 	bl	b718 <__ssprint_r>
    94b0:	2800      	cmp	r0, #0
    94b2:	d001      	beq.n	94b8 <_svfprintf_r+0x131c>
    94b4:	f7fe fef9 	bl	82aa <_svfprintf_r+0x10e>
    94b8:	9b14      	ldr	r3, [sp, #80]	; 0x50
    94ba:	9a1f      	ldr	r2, [sp, #124]	; 0x7c
    94bc:	68bc      	ldr	r4, [r7, #8]
    94be:	1a9b      	subs	r3, r3, r2
    94c0:	ae32      	add	r6, sp, #200	; 0xc8
    94c2:	e56a      	b.n	8f9a <_svfprintf_r+0xdfe>
    94c4:	4653      	mov	r3, sl
    94c6:	9307      	str	r3, [sp, #28]
    94c8:	2b06      	cmp	r3, #6
    94ca:	d901      	bls.n	94d0 <_svfprintf_r+0x1334>
    94cc:	2306      	movs	r3, #6
    94ce:	9307      	str	r3, [sp, #28]
    94d0:	9b07      	ldr	r3, [sp, #28]
    94d2:	950f      	str	r5, [sp, #60]	; 0x3c
    94d4:	930e      	str	r3, [sp, #56]	; 0x38
    94d6:	2300      	movs	r3, #0
    94d8:	4698      	mov	r8, r3
    94da:	469a      	mov	sl, r3
    94dc:	9313      	str	r3, [sp, #76]	; 0x4c
    94de:	4b24      	ldr	r3, [pc, #144]	; (9570 <_svfprintf_r+0x13d4>)
    94e0:	9408      	str	r4, [sp, #32]
    94e2:	9311      	str	r3, [sp, #68]	; 0x44
    94e4:	f7fe ff78 	bl	83d8 <_svfprintf_r+0x23c>
    94e8:	2320      	movs	r3, #32
    94ea:	9a12      	ldr	r2, [sp, #72]	; 0x48
    94ec:	439a      	bics	r2, r3
    94ee:	3b1a      	subs	r3, #26
    94f0:	920e      	str	r2, [sp, #56]	; 0x38
    94f2:	469a      	mov	sl, r3
    94f4:	e5f1      	b.n	90da <_svfprintf_r+0xf3e>
    94f6:	ab23      	add	r3, sp, #140	; 0x8c
    94f8:	931b      	str	r3, [sp, #108]	; 0x6c
    94fa:	9304      	str	r3, [sp, #16]
    94fc:	ab20      	add	r3, sp, #128	; 0x80
    94fe:	9303      	str	r3, [sp, #12]
    9500:	ab1f      	add	r3, sp, #124	; 0x7c
    9502:	9302      	str	r3, [sp, #8]
    9504:	4653      	mov	r3, sl
    9506:	9301      	str	r3, [sp, #4]
    9508:	2303      	movs	r3, #3
    950a:	464a      	mov	r2, r9
    950c:	9300      	str	r3, [sp, #0]
    950e:	9809      	ldr	r0, [sp, #36]	; 0x24
    9510:	9b07      	ldr	r3, [sp, #28]
    9512:	f000 fa05 	bl	9920 <_dtoa_r>
    9516:	0003      	movs	r3, r0
    9518:	4453      	add	r3, sl
    951a:	9011      	str	r0, [sp, #68]	; 0x44
    951c:	4698      	mov	r8, r3
    951e:	4655      	mov	r5, sl
    9520:	e6e4      	b.n	92ec <_svfprintf_r+0x1150>
    9522:	232d      	movs	r3, #45	; 0x2d
    9524:	aa16      	add	r2, sp, #88	; 0x58
    9526:	77d3      	strb	r3, [r2, #31]
    9528:	4698      	mov	r8, r3
    952a:	f7fe ffdb 	bl	84e4 <_svfprintf_r+0x348>
    952e:	2280      	movs	r2, #128	; 0x80
    9530:	0612      	lsls	r2, r2, #24
    9532:	4694      	mov	ip, r2
    9534:	9b16      	ldr	r3, [sp, #88]	; 0x58
    9536:	4699      	mov	r9, r3
    9538:	9b15      	ldr	r3, [sp, #84]	; 0x54
    953a:	4463      	add	r3, ip
    953c:	9307      	str	r3, [sp, #28]
    953e:	232d      	movs	r3, #45	; 0x2d
    9540:	9310      	str	r3, [sp, #64]	; 0x40
    9542:	e5d7      	b.n	90f4 <_svfprintf_r+0xf58>
    9544:	9a18      	ldr	r2, [sp, #96]	; 0x60
    9546:	9b14      	ldr	r3, [sp, #80]	; 0x50
    9548:	4694      	mov	ip, r2
    954a:	9a13      	ldr	r2, [sp, #76]	; 0x4c
    954c:	4463      	add	r3, ip
    954e:	930e      	str	r3, [sp, #56]	; 0x38
    9550:	2a00      	cmp	r2, #0
    9552:	dc00      	bgt.n	9556 <_svfprintf_r+0x13ba>
    9554:	e0ce      	b.n	96f4 <_svfprintf_r+0x1558>
    9556:	001a      	movs	r2, r3
    9558:	43db      	mvns	r3, r3
    955a:	17db      	asrs	r3, r3, #31
    955c:	401a      	ands	r2, r3
    955e:	2367      	movs	r3, #103	; 0x67
    9560:	9207      	str	r2, [sp, #28]
    9562:	9312      	str	r3, [sp, #72]	; 0x48
    9564:	e624      	b.n	91b0 <_svfprintf_r+0x1014>
    9566:	46c0      	nop			; (mov r8, r8)
    9568:	0000d5c8 	.word	0x0000d5c8
    956c:	0000d58c 	.word	0x0000d58c
    9570:	0000d5c0 	.word	0x0000d5c0
    9574:	9b1f      	ldr	r3, [sp, #124]	; 0x7c
    9576:	9313      	str	r3, [sp, #76]	; 0x4c
    9578:	2b00      	cmp	r3, #0
    957a:	dc00      	bgt.n	957e <_svfprintf_r+0x13e2>
    957c:	e0d5      	b.n	972a <_svfprintf_r+0x158e>
    957e:	4652      	mov	r2, sl
    9580:	2a00      	cmp	r2, #0
    9582:	d000      	beq.n	9586 <_svfprintf_r+0x13ea>
    9584:	e092      	b.n	96ac <_svfprintf_r+0x1510>
    9586:	07e2      	lsls	r2, r4, #31
    9588:	d500      	bpl.n	958c <_svfprintf_r+0x13f0>
    958a:	e08f      	b.n	96ac <_svfprintf_r+0x1510>
    958c:	9307      	str	r3, [sp, #28]
    958e:	930e      	str	r3, [sp, #56]	; 0x38
    9590:	e60e      	b.n	91b0 <_svfprintf_r+0x1014>
    9592:	ab16      	add	r3, sp, #88	; 0x58
    9594:	7fdb      	ldrb	r3, [r3, #31]
    9596:	950f      	str	r5, [sp, #60]	; 0x3c
    9598:	4698      	mov	r8, r3
    959a:	4653      	mov	r3, sl
    959c:	9307      	str	r3, [sp, #28]
    959e:	930e      	str	r3, [sp, #56]	; 0x38
    95a0:	2300      	movs	r3, #0
    95a2:	9408      	str	r4, [sp, #32]
    95a4:	469a      	mov	sl, r3
    95a6:	9313      	str	r3, [sp, #76]	; 0x4c
    95a8:	f7fe ff10 	bl	83cc <_svfprintf_r+0x230>
    95ac:	9b11      	ldr	r3, [sp, #68]	; 0x44
    95ae:	4698      	mov	r8, r3
    95b0:	9b12      	ldr	r3, [sp, #72]	; 0x48
    95b2:	44a8      	add	r8, r5
    95b4:	2b47      	cmp	r3, #71	; 0x47
    95b6:	d000      	beq.n	95ba <_svfprintf_r+0x141e>
    95b8:	e5c4      	b.n	9144 <_svfprintf_r+0xfa8>
    95ba:	07e3      	lsls	r3, r4, #31
    95bc:	d500      	bpl.n	95c0 <_svfprintf_r+0x1424>
    95be:	e68e      	b.n	92de <_svfprintf_r+0x1142>
    95c0:	9b23      	ldr	r3, [sp, #140]	; 0x8c
    95c2:	9a11      	ldr	r2, [sp, #68]	; 0x44
    95c4:	1a9b      	subs	r3, r3, r2
    95c6:	9314      	str	r3, [sp, #80]	; 0x50
    95c8:	9b0e      	ldr	r3, [sp, #56]	; 0x38
    95ca:	2b47      	cmp	r3, #71	; 0x47
    95cc:	d100      	bne.n	95d0 <_svfprintf_r+0x1434>
    95ce:	e6cb      	b.n	9368 <_svfprintf_r+0x11cc>
    95d0:	9b1f      	ldr	r3, [sp, #124]	; 0x7c
    95d2:	9313      	str	r3, [sp, #76]	; 0x4c
    95d4:	e6d2      	b.n	937c <_svfprintf_r+0x11e0>
    95d6:	4244      	negs	r4, r0
    95d8:	3010      	adds	r0, #16
    95da:	db00      	blt.n	95de <_svfprintf_r+0x1442>
    95dc:	e0d0      	b.n	9780 <_svfprintf_r+0x15e4>
    95de:	486e      	ldr	r0, [pc, #440]	; (9798 <_svfprintf_r+0x15fc>)
    95e0:	2610      	movs	r6, #16
    95e2:	0005      	movs	r5, r0
    95e4:	e003      	b.n	95ee <_svfprintf_r+0x1452>
    95e6:	3208      	adds	r2, #8
    95e8:	3c10      	subs	r4, #16
    95ea:	2c10      	cmp	r4, #16
    95ec:	dd38      	ble.n	9660 <_svfprintf_r+0x14c4>
    95ee:	3110      	adds	r1, #16
    95f0:	3301      	adds	r3, #1
    95f2:	6015      	str	r5, [r2, #0]
    95f4:	6056      	str	r6, [r2, #4]
    95f6:	60b9      	str	r1, [r7, #8]
    95f8:	607b      	str	r3, [r7, #4]
    95fa:	2b07      	cmp	r3, #7
    95fc:	ddf3      	ble.n	95e6 <_svfprintf_r+0x144a>
    95fe:	003a      	movs	r2, r7
    9600:	9906      	ldr	r1, [sp, #24]
    9602:	9809      	ldr	r0, [sp, #36]	; 0x24
    9604:	f002 f888 	bl	b718 <__ssprint_r>
    9608:	2800      	cmp	r0, #0
    960a:	d001      	beq.n	9610 <_svfprintf_r+0x1474>
    960c:	f7fe fe4d 	bl	82aa <_svfprintf_r+0x10e>
    9610:	68b9      	ldr	r1, [r7, #8]
    9612:	687b      	ldr	r3, [r7, #4]
    9614:	aa32      	add	r2, sp, #200	; 0xc8
    9616:	e7e7      	b.n	95e8 <_svfprintf_r+0x144c>
    9618:	003a      	movs	r2, r7
    961a:	9906      	ldr	r1, [sp, #24]
    961c:	9809      	ldr	r0, [sp, #36]	; 0x24
    961e:	f002 f87b 	bl	b718 <__ssprint_r>
    9622:	2800      	cmp	r0, #0
    9624:	d001      	beq.n	962a <_svfprintf_r+0x148e>
    9626:	f7fe fe40 	bl	82aa <_svfprintf_r+0x10e>
    962a:	981f      	ldr	r0, [sp, #124]	; 0x7c
    962c:	68b9      	ldr	r1, [r7, #8]
    962e:	687b      	ldr	r3, [r7, #4]
    9630:	aa32      	add	r2, sp, #200	; 0xc8
    9632:	e600      	b.n	9236 <_svfprintf_r+0x109a>
    9634:	9a18      	ldr	r2, [sp, #96]	; 0x60
    9636:	9b13      	ldr	r3, [sp, #76]	; 0x4c
    9638:	4694      	mov	ip, r2
    963a:	4463      	add	r3, ip
    963c:	001a      	movs	r2, r3
    963e:	930e      	str	r3, [sp, #56]	; 0x38
    9640:	e78a      	b.n	9558 <_svfprintf_r+0x13bc>
    9642:	212e      	movs	r1, #46	; 0x2e
    9644:	2330      	movs	r3, #48	; 0x30
    9646:	aa16      	add	r2, sp, #88	; 0x58
    9648:	1852      	adds	r2, r2, r1
    964a:	7013      	strb	r3, [r2, #0]
    964c:	002b      	movs	r3, r5
    964e:	aa16      	add	r2, sp, #88	; 0x58
    9650:	3101      	adds	r1, #1
    9652:	3330      	adds	r3, #48	; 0x30
    9654:	1852      	adds	r2, r2, r1
    9656:	7013      	strb	r3, [r2, #0]
    9658:	ab22      	add	r3, sp, #136	; 0x88
    965a:	e6e2      	b.n	9422 <_svfprintf_r+0x1286>
    965c:	9b23      	ldr	r3, [sp, #140]	; 0x8c
    965e:	e585      	b.n	916c <_svfprintf_r+0xfd0>
    9660:	46a9      	mov	r9, r5
    9662:	4648      	mov	r0, r9
    9664:	1909      	adds	r1, r1, r4
    9666:	3301      	adds	r3, #1
    9668:	6010      	str	r0, [r2, #0]
    966a:	6054      	str	r4, [r2, #4]
    966c:	60b9      	str	r1, [r7, #8]
    966e:	3208      	adds	r2, #8
    9670:	607b      	str	r3, [r7, #4]
    9672:	2b07      	cmp	r3, #7
    9674:	dc00      	bgt.n	9678 <_svfprintf_r+0x14dc>
    9676:	e5e1      	b.n	923c <_svfprintf_r+0x10a0>
    9678:	003a      	movs	r2, r7
    967a:	9906      	ldr	r1, [sp, #24]
    967c:	9809      	ldr	r0, [sp, #36]	; 0x24
    967e:	f002 f84b 	bl	b718 <__ssprint_r>
    9682:	2800      	cmp	r0, #0
    9684:	d001      	beq.n	968a <_svfprintf_r+0x14ee>
    9686:	f7fe fe10 	bl	82aa <_svfprintf_r+0x10e>
    968a:	68b9      	ldr	r1, [r7, #8]
    968c:	687b      	ldr	r3, [r7, #4]
    968e:	aa32      	add	r2, sp, #200	; 0xc8
    9690:	e5d4      	b.n	923c <_svfprintf_r+0x10a0>
    9692:	9b15      	ldr	r3, [sp, #84]	; 0x54
    9694:	2b00      	cmp	r3, #0
    9696:	db38      	blt.n	970a <_svfprintf_r+0x156e>
    9698:	ab16      	add	r3, sp, #88	; 0x58
    969a:	7fdb      	ldrb	r3, [r3, #31]
    969c:	4698      	mov	r8, r3
    969e:	9b12      	ldr	r3, [sp, #72]	; 0x48
    96a0:	2b47      	cmp	r3, #71	; 0x47
    96a2:	dc2e      	bgt.n	9702 <_svfprintf_r+0x1566>
    96a4:	4b3d      	ldr	r3, [pc, #244]	; (979c <_svfprintf_r+0x1600>)
    96a6:	9311      	str	r3, [sp, #68]	; 0x44
    96a8:	f7fe ff23 	bl	84f2 <_svfprintf_r+0x356>
    96ac:	9a18      	ldr	r2, [sp, #96]	; 0x60
    96ae:	9b13      	ldr	r3, [sp, #76]	; 0x4c
    96b0:	4694      	mov	ip, r2
    96b2:	4463      	add	r3, ip
    96b4:	4453      	add	r3, sl
    96b6:	001a      	movs	r2, r3
    96b8:	930e      	str	r3, [sp, #56]	; 0x38
    96ba:	43db      	mvns	r3, r3
    96bc:	17db      	asrs	r3, r3, #31
    96be:	401a      	ands	r2, r3
    96c0:	9207      	str	r2, [sp, #28]
    96c2:	e575      	b.n	91b0 <_svfprintf_r+0x1014>
    96c4:	2301      	movs	r3, #1
    96c6:	4023      	ands	r3, r4
    96c8:	9313      	str	r3, [sp, #76]	; 0x4c
    96ca:	d000      	beq.n	96ce <_svfprintf_r+0x1532>
    96cc:	e6b4      	b.n	9438 <_svfprintf_r+0x129c>
    96ce:	9a0e      	ldr	r2, [sp, #56]	; 0x38
    96d0:	43d3      	mvns	r3, r2
    96d2:	17db      	asrs	r3, r3, #31
    96d4:	401a      	ands	r2, r3
    96d6:	9207      	str	r2, [sp, #28]
    96d8:	e56a      	b.n	91b0 <_svfprintf_r+0x1014>
    96da:	4a2f      	ldr	r2, [pc, #188]	; (9798 <_svfprintf_r+0x15fc>)
    96dc:	687b      	ldr	r3, [r7, #4]
    96de:	4691      	mov	r9, r2
    96e0:	e42d      	b.n	8f3e <_svfprintf_r+0xda2>
    96e2:	2301      	movs	r3, #1
    96e4:	9a13      	ldr	r2, [sp, #76]	; 0x4c
    96e6:	391b      	subs	r1, #27
    96e8:	1a9d      	subs	r5, r3, r2
    96ea:	aa16      	add	r2, sp, #88	; 0x58
    96ec:	332c      	adds	r3, #44	; 0x2c
    96ee:	1852      	adds	r2, r2, r1
    96f0:	7013      	strb	r3, [r2, #0]
    96f2:	e656      	b.n	93a2 <_svfprintf_r+0x1206>
    96f4:	9b0e      	ldr	r3, [sp, #56]	; 0x38
    96f6:	9a13      	ldr	r2, [sp, #76]	; 0x4c
    96f8:	1a98      	subs	r0, r3, r2
    96fa:	1c43      	adds	r3, r0, #1
    96fc:	001a      	movs	r2, r3
    96fe:	930e      	str	r3, [sp, #56]	; 0x38
    9700:	e72a      	b.n	9558 <_svfprintf_r+0x13bc>
    9702:	4b27      	ldr	r3, [pc, #156]	; (97a0 <_svfprintf_r+0x1604>)
    9704:	9311      	str	r3, [sp, #68]	; 0x44
    9706:	f7fe fef4 	bl	84f2 <_svfprintf_r+0x356>
    970a:	232d      	movs	r3, #45	; 0x2d
    970c:	aa16      	add	r2, sp, #88	; 0x58
    970e:	77d3      	strb	r3, [r2, #31]
    9710:	4698      	mov	r8, r3
    9712:	e7c4      	b.n	969e <_svfprintf_r+0x1502>
    9714:	9b0f      	ldr	r3, [sp, #60]	; 0x3c
    9716:	1d1a      	adds	r2, r3, #4
    9718:	681b      	ldr	r3, [r3, #0]
    971a:	469a      	mov	sl, r3
    971c:	2b00      	cmp	r3, #0
    971e:	db36      	blt.n	978e <_svfprintf_r+0x15f2>
    9720:	784b      	ldrb	r3, [r1, #1]
    9722:	920f      	str	r2, [sp, #60]	; 0x3c
    9724:	4659      	mov	r1, fp
    9726:	f7fe fd9d 	bl	8264 <_svfprintf_r+0xc8>
    972a:	4653      	mov	r3, sl
    972c:	2b00      	cmp	r3, #0
    972e:	d101      	bne.n	9734 <_svfprintf_r+0x1598>
    9730:	07e3      	lsls	r3, r4, #31
    9732:	d503      	bpl.n	973c <_svfprintf_r+0x15a0>
    9734:	9b18      	ldr	r3, [sp, #96]	; 0x60
    9736:	1c58      	adds	r0, r3, #1
    9738:	0003      	movs	r3, r0
    973a:	e7bb      	b.n	96b4 <_svfprintf_r+0x1518>
    973c:	2301      	movs	r3, #1
    973e:	e725      	b.n	958c <_svfprintf_r+0x13f0>
    9740:	ab16      	add	r3, sp, #88	; 0x58
    9742:	77d8      	strb	r0, [r3, #31]
    9744:	f7fe ff6c 	bl	8620 <_svfprintf_r+0x484>
    9748:	ab16      	add	r3, sp, #88	; 0x58
    974a:	77d8      	strb	r0, [r3, #31]
    974c:	f7ff f814 	bl	8778 <_svfprintf_r+0x5dc>
    9750:	230c      	movs	r3, #12
    9752:	9a09      	ldr	r2, [sp, #36]	; 0x24
    9754:	6013      	str	r3, [r2, #0]
    9756:	3b0d      	subs	r3, #13
    9758:	930a      	str	r3, [sp, #40]	; 0x28
    975a:	f7fe fdac 	bl	82b6 <_svfprintf_r+0x11a>
    975e:	aa16      	add	r2, sp, #88	; 0x58
    9760:	232e      	movs	r3, #46	; 0x2e
    9762:	4694      	mov	ip, r2
    9764:	4463      	add	r3, ip
    9766:	e65c      	b.n	9422 <_svfprintf_r+0x1286>
    9768:	ab16      	add	r3, sp, #88	; 0x58
    976a:	77d8      	strb	r0, [r3, #31]
    976c:	f7fe fe85 	bl	847a <_svfprintf_r+0x2de>
    9770:	ab16      	add	r3, sp, #88	; 0x58
    9772:	77d8      	strb	r0, [r3, #31]
    9774:	f7fe fddd 	bl	8332 <_svfprintf_r+0x196>
    9778:	ab16      	add	r3, sp, #88	; 0x58
    977a:	77d8      	strb	r0, [r3, #31]
    977c:	f7ff f87d 	bl	887a <_svfprintf_r+0x6de>
    9780:	4805      	ldr	r0, [pc, #20]	; (9798 <_svfprintf_r+0x15fc>)
    9782:	4681      	mov	r9, r0
    9784:	e76d      	b.n	9662 <_svfprintf_r+0x14c6>
    9786:	ab16      	add	r3, sp, #88	; 0x58
    9788:	77d8      	strb	r0, [r3, #31]
    978a:	f7fe ff79 	bl	8680 <_svfprintf_r+0x4e4>
    978e:	2301      	movs	r3, #1
    9790:	425b      	negs	r3, r3
    9792:	469a      	mov	sl, r3
    9794:	e7c4      	b.n	9720 <_svfprintf_r+0x1584>
    9796:	46c0      	nop			; (mov r8, r8)
    9798:	0000d5dc 	.word	0x0000d5dc
    979c:	0000d590 	.word	0x0000d590
    97a0:	0000d594 	.word	0x0000d594

000097a4 <register_fini>:
    97a4:	4b03      	ldr	r3, [pc, #12]	; (97b4 <register_fini+0x10>)
    97a6:	b510      	push	{r4, lr}
    97a8:	2b00      	cmp	r3, #0
    97aa:	d002      	beq.n	97b2 <register_fini+0xe>
    97ac:	4802      	ldr	r0, [pc, #8]	; (97b8 <register_fini+0x14>)
    97ae:	f000 f805 	bl	97bc <atexit>
    97b2:	bd10      	pop	{r4, pc}
    97b4:	00000000 	.word	0x00000000
    97b8:	0000a8a9 	.word	0x0000a8a9

000097bc <atexit>:
    97bc:	b510      	push	{r4, lr}
    97be:	0001      	movs	r1, r0
    97c0:	2300      	movs	r3, #0
    97c2:	2200      	movs	r2, #0
    97c4:	2000      	movs	r0, #0
    97c6:	f002 f845 	bl	b854 <__register_exitproc>
    97ca:	bd10      	pop	{r4, pc}

000097cc <quorem>:
    97cc:	b5f0      	push	{r4, r5, r6, r7, lr}
    97ce:	4645      	mov	r5, r8
    97d0:	4680      	mov	r8, r0
    97d2:	46de      	mov	lr, fp
    97d4:	4657      	mov	r7, sl
    97d6:	464e      	mov	r6, r9
    97d8:	4642      	mov	r2, r8
    97da:	b5e0      	push	{r5, r6, r7, lr}
    97dc:	690c      	ldr	r4, [r1, #16]
    97de:	6912      	ldr	r2, [r2, #16]
    97e0:	b085      	sub	sp, #20
    97e2:	000b      	movs	r3, r1
    97e4:	9102      	str	r1, [sp, #8]
    97e6:	2000      	movs	r0, #0
    97e8:	4294      	cmp	r4, r2
    97ea:	dd00      	ble.n	97ee <quorem+0x22>
    97ec:	e090      	b.n	9910 <quorem+0x144>
    97ee:	2214      	movs	r2, #20
    97f0:	4694      	mov	ip, r2
    97f2:	4463      	add	r3, ip
    97f4:	4699      	mov	r9, r3
    97f6:	464a      	mov	r2, r9
    97f8:	3c01      	subs	r4, #1
    97fa:	00a3      	lsls	r3, r4, #2
    97fc:	18d6      	adds	r6, r2, r3
    97fe:	2214      	movs	r2, #20
    9800:	4442      	add	r2, r8
    9802:	4693      	mov	fp, r2
    9804:	449b      	add	fp, r3
    9806:	6833      	ldr	r3, [r6, #0]
    9808:	0015      	movs	r5, r2
    980a:	1c59      	adds	r1, r3, #1
    980c:	465b      	mov	r3, fp
    980e:	6818      	ldr	r0, [r3, #0]
    9810:	9201      	str	r2, [sp, #4]
    9812:	f7fc f871 	bl	58f8 <__udivsi3>
    9816:	1e03      	subs	r3, r0, #0
    9818:	9000      	str	r0, [sp, #0]
    981a:	d042      	beq.n	98a2 <quorem+0xd6>
    981c:	0029      	movs	r1, r5
    981e:	2700      	movs	r7, #0
    9820:	464d      	mov	r5, r9
    9822:	2000      	movs	r0, #0
    9824:	46b1      	mov	r9, r6
    9826:	46a2      	mov	sl, r4
    9828:	003e      	movs	r6, r7
    982a:	0004      	movs	r4, r0
    982c:	469c      	mov	ip, r3
    982e:	002f      	movs	r7, r5
    9830:	0008      	movs	r0, r1
    9832:	9503      	str	r5, [sp, #12]
    9834:	4663      	mov	r3, ip
    9836:	cf04      	ldmia	r7!, {r2}
    9838:	0415      	lsls	r5, r2, #16
    983a:	0c2d      	lsrs	r5, r5, #16
    983c:	435d      	muls	r5, r3
    983e:	0c12      	lsrs	r2, r2, #16
    9840:	435a      	muls	r2, r3
    9842:	19ad      	adds	r5, r5, r6
    9844:	0c2b      	lsrs	r3, r5, #16
    9846:	18d2      	adds	r2, r2, r3
    9848:	6803      	ldr	r3, [r0, #0]
    984a:	042d      	lsls	r5, r5, #16
    984c:	0419      	lsls	r1, r3, #16
    984e:	0c09      	lsrs	r1, r1, #16
    9850:	1909      	adds	r1, r1, r4
    9852:	0c16      	lsrs	r6, r2, #16
    9854:	0c2d      	lsrs	r5, r5, #16
    9856:	0412      	lsls	r2, r2, #16
    9858:	1b49      	subs	r1, r1, r5
    985a:	0c12      	lsrs	r2, r2, #16
    985c:	0c1b      	lsrs	r3, r3, #16
    985e:	1a9b      	subs	r3, r3, r2
    9860:	140a      	asrs	r2, r1, #16
    9862:	189b      	adds	r3, r3, r2
    9864:	0409      	lsls	r1, r1, #16
    9866:	141c      	asrs	r4, r3, #16
    9868:	0c09      	lsrs	r1, r1, #16
    986a:	041b      	lsls	r3, r3, #16
    986c:	4319      	orrs	r1, r3
    986e:	c002      	stmia	r0!, {r1}
    9870:	45b9      	cmp	r9, r7
    9872:	d2df      	bcs.n	9834 <quorem+0x68>
    9874:	9b03      	ldr	r3, [sp, #12]
    9876:	464e      	mov	r6, r9
    9878:	4699      	mov	r9, r3
    987a:	465b      	mov	r3, fp
    987c:	681b      	ldr	r3, [r3, #0]
    987e:	4654      	mov	r4, sl
    9880:	2b00      	cmp	r3, #0
    9882:	d10e      	bne.n	98a2 <quorem+0xd6>
    9884:	465b      	mov	r3, fp
    9886:	9a01      	ldr	r2, [sp, #4]
    9888:	3b04      	subs	r3, #4
    988a:	429a      	cmp	r2, r3
    988c:	d304      	bcc.n	9898 <quorem+0xcc>
    988e:	e006      	b.n	989e <quorem+0xd2>
    9890:	3b04      	subs	r3, #4
    9892:	3c01      	subs	r4, #1
    9894:	429a      	cmp	r2, r3
    9896:	d202      	bcs.n	989e <quorem+0xd2>
    9898:	6819      	ldr	r1, [r3, #0]
    989a:	2900      	cmp	r1, #0
    989c:	d0f8      	beq.n	9890 <quorem+0xc4>
    989e:	4643      	mov	r3, r8
    98a0:	611c      	str	r4, [r3, #16]
    98a2:	9902      	ldr	r1, [sp, #8]
    98a4:	4640      	mov	r0, r8
    98a6:	f001 fda3 	bl	b3f0 <__mcmp>
    98aa:	2800      	cmp	r0, #0
    98ac:	db2f      	blt.n	990e <quorem+0x142>
    98ae:	464f      	mov	r7, r9
    98b0:	2000      	movs	r0, #0
    98b2:	9b00      	ldr	r3, [sp, #0]
    98b4:	9d01      	ldr	r5, [sp, #4]
    98b6:	3301      	adds	r3, #1
    98b8:	9300      	str	r3, [sp, #0]
    98ba:	682b      	ldr	r3, [r5, #0]
    98bc:	cf02      	ldmia	r7!, {r1}
    98be:	041a      	lsls	r2, r3, #16
    98c0:	0c12      	lsrs	r2, r2, #16
    98c2:	1810      	adds	r0, r2, r0
    98c4:	040a      	lsls	r2, r1, #16
    98c6:	0c12      	lsrs	r2, r2, #16
    98c8:	1a82      	subs	r2, r0, r2
    98ca:	0c09      	lsrs	r1, r1, #16
    98cc:	0c1b      	lsrs	r3, r3, #16
    98ce:	1a5b      	subs	r3, r3, r1
    98d0:	1411      	asrs	r1, r2, #16
    98d2:	185b      	adds	r3, r3, r1
    98d4:	0412      	lsls	r2, r2, #16
    98d6:	1418      	asrs	r0, r3, #16
    98d8:	0c12      	lsrs	r2, r2, #16
    98da:	041b      	lsls	r3, r3, #16
    98dc:	4313      	orrs	r3, r2
    98de:	c508      	stmia	r5!, {r3}
    98e0:	42be      	cmp	r6, r7
    98e2:	d2ea      	bcs.n	98ba <quorem+0xee>
    98e4:	9901      	ldr	r1, [sp, #4]
    98e6:	00a3      	lsls	r3, r4, #2
    98e8:	468c      	mov	ip, r1
    98ea:	4463      	add	r3, ip
    98ec:	681a      	ldr	r2, [r3, #0]
    98ee:	2a00      	cmp	r2, #0
    98f0:	d10d      	bne.n	990e <quorem+0x142>
    98f2:	3b04      	subs	r3, #4
    98f4:	000a      	movs	r2, r1
    98f6:	4299      	cmp	r1, r3
    98f8:	d304      	bcc.n	9904 <quorem+0x138>
    98fa:	e006      	b.n	990a <quorem+0x13e>
    98fc:	3b04      	subs	r3, #4
    98fe:	3c01      	subs	r4, #1
    9900:	429a      	cmp	r2, r3
    9902:	d202      	bcs.n	990a <quorem+0x13e>
    9904:	6819      	ldr	r1, [r3, #0]
    9906:	2900      	cmp	r1, #0
    9908:	d0f8      	beq.n	98fc <quorem+0x130>
    990a:	4643      	mov	r3, r8
    990c:	611c      	str	r4, [r3, #16]
    990e:	9800      	ldr	r0, [sp, #0]
    9910:	b005      	add	sp, #20
    9912:	bc3c      	pop	{r2, r3, r4, r5}
    9914:	4690      	mov	r8, r2
    9916:	4699      	mov	r9, r3
    9918:	46a2      	mov	sl, r4
    991a:	46ab      	mov	fp, r5
    991c:	bdf0      	pop	{r4, r5, r6, r7, pc}
    991e:	46c0      	nop			; (mov r8, r8)

00009920 <_dtoa_r>:
    9920:	b5f0      	push	{r4, r5, r6, r7, lr}
    9922:	4657      	mov	r7, sl
    9924:	464e      	mov	r6, r9
    9926:	4645      	mov	r5, r8
    9928:	46de      	mov	lr, fp
    992a:	b5e0      	push	{r5, r6, r7, lr}
    992c:	6c01      	ldr	r1, [r0, #64]	; 0x40
    992e:	b099      	sub	sp, #100	; 0x64
    9930:	4682      	mov	sl, r0
    9932:	001d      	movs	r5, r3
    9934:	0016      	movs	r6, r2
    9936:	001f      	movs	r7, r3
    9938:	2900      	cmp	r1, #0
    993a:	d009      	beq.n	9950 <_dtoa_r+0x30>
    993c:	2301      	movs	r3, #1
    993e:	6c42      	ldr	r2, [r0, #68]	; 0x44
    9940:	4093      	lsls	r3, r2
    9942:	604a      	str	r2, [r1, #4]
    9944:	608b      	str	r3, [r1, #8]
    9946:	f001 fb47 	bl	afd8 <_Bfree>
    994a:	2300      	movs	r3, #0
    994c:	4652      	mov	r2, sl
    994e:	6413      	str	r3, [r2, #64]	; 0x40
    9950:	46b8      	mov	r8, r7
    9952:	2f00      	cmp	r7, #0
    9954:	db37      	blt.n	99c6 <_dtoa_r+0xa6>
    9956:	2300      	movs	r3, #0
    9958:	9a25      	ldr	r2, [sp, #148]	; 0x94
    995a:	6013      	str	r3, [r2, #0]
    995c:	4642      	mov	r2, r8
    995e:	4bd6      	ldr	r3, [pc, #856]	; (9cb8 <_dtoa_r+0x398>)
    9960:	401a      	ands	r2, r3
    9962:	429a      	cmp	r2, r3
    9964:	d018      	beq.n	9998 <_dtoa_r+0x78>
    9966:	2200      	movs	r2, #0
    9968:	2300      	movs	r3, #0
    996a:	0030      	movs	r0, r6
    996c:	0039      	movs	r1, r7
    996e:	f7fc f86b 	bl	5a48 <__aeabi_dcmpeq>
    9972:	2800      	cmp	r0, #0
    9974:	d02f      	beq.n	99d6 <_dtoa_r+0xb6>
    9976:	2301      	movs	r3, #1
    9978:	9a24      	ldr	r2, [sp, #144]	; 0x90
    997a:	6013      	str	r3, [r2, #0]
    997c:	9b26      	ldr	r3, [sp, #152]	; 0x98
    997e:	2b00      	cmp	r3, #0
    9980:	d100      	bne.n	9984 <_dtoa_r+0x64>
    9982:	e22a      	b.n	9dda <_dtoa_r+0x4ba>
    9984:	48cd      	ldr	r0, [pc, #820]	; (9cbc <_dtoa_r+0x39c>)
    9986:	6018      	str	r0, [r3, #0]
    9988:	3801      	subs	r0, #1
    998a:	b019      	add	sp, #100	; 0x64
    998c:	bc3c      	pop	{r2, r3, r4, r5}
    998e:	4690      	mov	r8, r2
    9990:	4699      	mov	r9, r3
    9992:	46a2      	mov	sl, r4
    9994:	46ab      	mov	fp, r5
    9996:	bdf0      	pop	{r4, r5, r6, r7, pc}
    9998:	4bc9      	ldr	r3, [pc, #804]	; (9cc0 <_dtoa_r+0x3a0>)
    999a:	9a24      	ldr	r2, [sp, #144]	; 0x90
    999c:	6013      	str	r3, [r2, #0]
    999e:	2e00      	cmp	r6, #0
    99a0:	d10b      	bne.n	99ba <_dtoa_r+0x9a>
    99a2:	4643      	mov	r3, r8
    99a4:	0318      	lsls	r0, r3, #12
    99a6:	d108      	bne.n	99ba <_dtoa_r+0x9a>
    99a8:	9b26      	ldr	r3, [sp, #152]	; 0x98
    99aa:	48c6      	ldr	r0, [pc, #792]	; (9cc4 <_dtoa_r+0x3a4>)
    99ac:	2b00      	cmp	r3, #0
    99ae:	d0ec      	beq.n	998a <_dtoa_r+0x6a>
    99b0:	0003      	movs	r3, r0
    99b2:	3308      	adds	r3, #8
    99b4:	9a26      	ldr	r2, [sp, #152]	; 0x98
    99b6:	6013      	str	r3, [r2, #0]
    99b8:	e7e7      	b.n	998a <_dtoa_r+0x6a>
    99ba:	9b26      	ldr	r3, [sp, #152]	; 0x98
    99bc:	48c2      	ldr	r0, [pc, #776]	; (9cc8 <_dtoa_r+0x3a8>)
    99be:	2b00      	cmp	r3, #0
    99c0:	d0e3      	beq.n	998a <_dtoa_r+0x6a>
    99c2:	1cc3      	adds	r3, r0, #3
    99c4:	e7f6      	b.n	99b4 <_dtoa_r+0x94>
    99c6:	2301      	movs	r3, #1
    99c8:	9a25      	ldr	r2, [sp, #148]	; 0x94
    99ca:	0068      	lsls	r0, r5, #1
    99cc:	6013      	str	r3, [r2, #0]
    99ce:	0843      	lsrs	r3, r0, #1
    99d0:	4698      	mov	r8, r3
    99d2:	001f      	movs	r7, r3
    99d4:	e7c2      	b.n	995c <_dtoa_r+0x3c>
    99d6:	ab16      	add	r3, sp, #88	; 0x58
    99d8:	9301      	str	r3, [sp, #4]
    99da:	ab17      	add	r3, sp, #92	; 0x5c
    99dc:	9300      	str	r3, [sp, #0]
    99de:	0032      	movs	r2, r6
    99e0:	003b      	movs	r3, r7
    99e2:	4650      	mov	r0, sl
    99e4:	f001 fdba 	bl	b55c <__d2b>
    99e8:	4643      	mov	r3, r8
    99ea:	4683      	mov	fp, r0
    99ec:	0d1a      	lsrs	r2, r3, #20
    99ee:	d100      	bne.n	99f2 <_dtoa_r+0xd2>
    99f0:	e1d6      	b.n	9da0 <_dtoa_r+0x480>
    99f2:	033b      	lsls	r3, r7, #12
    99f4:	4cb5      	ldr	r4, [pc, #724]	; (9ccc <_dtoa_r+0x3ac>)
    99f6:	0b1b      	lsrs	r3, r3, #12
    99f8:	431c      	orrs	r4, r3
    99fa:	4bb5      	ldr	r3, [pc, #724]	; (9cd0 <_dtoa_r+0x3b0>)
    99fc:	0030      	movs	r0, r6
    99fe:	4698      	mov	r8, r3
    9a00:	9b16      	ldr	r3, [sp, #88]	; 0x58
    9a02:	0021      	movs	r1, r4
    9a04:	4699      	mov	r9, r3
    9a06:	2300      	movs	r3, #0
    9a08:	4490      	add	r8, r2
    9a0a:	930f      	str	r3, [sp, #60]	; 0x3c
    9a0c:	2200      	movs	r2, #0
    9a0e:	4bb1      	ldr	r3, [pc, #708]	; (9cd4 <_dtoa_r+0x3b4>)
    9a10:	f7fd fa7c 	bl	6f0c <__aeabi_dsub>
    9a14:	4ab0      	ldr	r2, [pc, #704]	; (9cd8 <_dtoa_r+0x3b8>)
    9a16:	4bb1      	ldr	r3, [pc, #708]	; (9cdc <_dtoa_r+0x3bc>)
    9a18:	f7fc fff8 	bl	6a0c <__aeabi_dmul>
    9a1c:	4ab0      	ldr	r2, [pc, #704]	; (9ce0 <_dtoa_r+0x3c0>)
    9a1e:	4bb1      	ldr	r3, [pc, #708]	; (9ce4 <_dtoa_r+0x3c4>)
    9a20:	f7fc f8b0 	bl	5b84 <__aeabi_dadd>
    9a24:	0004      	movs	r4, r0
    9a26:	4640      	mov	r0, r8
    9a28:	000d      	movs	r5, r1
    9a2a:	f7fd fdd9 	bl	75e0 <__aeabi_i2d>
    9a2e:	4aae      	ldr	r2, [pc, #696]	; (9ce8 <_dtoa_r+0x3c8>)
    9a30:	4bae      	ldr	r3, [pc, #696]	; (9cec <_dtoa_r+0x3cc>)
    9a32:	f7fc ffeb 	bl	6a0c <__aeabi_dmul>
    9a36:	0002      	movs	r2, r0
    9a38:	000b      	movs	r3, r1
    9a3a:	0020      	movs	r0, r4
    9a3c:	0029      	movs	r1, r5
    9a3e:	f7fc f8a1 	bl	5b84 <__aeabi_dadd>
    9a42:	0004      	movs	r4, r0
    9a44:	000d      	movs	r5, r1
    9a46:	f7fd fd97 	bl	7578 <__aeabi_d2iz>
    9a4a:	2200      	movs	r2, #0
    9a4c:	9003      	str	r0, [sp, #12]
    9a4e:	2300      	movs	r3, #0
    9a50:	0020      	movs	r0, r4
    9a52:	0029      	movs	r1, r5
    9a54:	f7fb fffe 	bl	5a54 <__aeabi_dcmplt>
    9a58:	2800      	cmp	r0, #0
    9a5a:	d000      	beq.n	9a5e <_dtoa_r+0x13e>
    9a5c:	e2b1      	b.n	9fc2 <_dtoa_r+0x6a2>
    9a5e:	2301      	movs	r3, #1
    9a60:	9c03      	ldr	r4, [sp, #12]
    9a62:	930c      	str	r3, [sp, #48]	; 0x30
    9a64:	2c16      	cmp	r4, #22
    9a66:	d810      	bhi.n	9a8a <_dtoa_r+0x16a>
    9a68:	49a1      	ldr	r1, [pc, #644]	; (9cf0 <_dtoa_r+0x3d0>)
    9a6a:	00e3      	lsls	r3, r4, #3
    9a6c:	18c9      	adds	r1, r1, r3
    9a6e:	0032      	movs	r2, r6
    9a70:	6808      	ldr	r0, [r1, #0]
    9a72:	6849      	ldr	r1, [r1, #4]
    9a74:	003b      	movs	r3, r7
    9a76:	f7fc f801 	bl	5a7c <__aeabi_dcmpgt>
    9a7a:	2800      	cmp	r0, #0
    9a7c:	d100      	bne.n	9a80 <_dtoa_r+0x160>
    9a7e:	e31d      	b.n	a0bc <_dtoa_r+0x79c>
    9a80:	0023      	movs	r3, r4
    9a82:	3b01      	subs	r3, #1
    9a84:	9303      	str	r3, [sp, #12]
    9a86:	2300      	movs	r3, #0
    9a88:	930c      	str	r3, [sp, #48]	; 0x30
    9a8a:	464b      	mov	r3, r9
    9a8c:	4642      	mov	r2, r8
    9a8e:	1a9a      	subs	r2, r3, r2
    9a90:	2300      	movs	r3, #0
    9a92:	9306      	str	r3, [sp, #24]
    9a94:	0013      	movs	r3, r2
    9a96:	3b01      	subs	r3, #1
    9a98:	9304      	str	r3, [sp, #16]
    9a9a:	d500      	bpl.n	9a9e <_dtoa_r+0x17e>
    9a9c:	e2a1      	b.n	9fe2 <_dtoa_r+0x6c2>
    9a9e:	9b03      	ldr	r3, [sp, #12]
    9aa0:	2b00      	cmp	r3, #0
    9aa2:	da00      	bge.n	9aa6 <_dtoa_r+0x186>
    9aa4:	e284      	b.n	9fb0 <_dtoa_r+0x690>
    9aa6:	469c      	mov	ip, r3
    9aa8:	930d      	str	r3, [sp, #52]	; 0x34
    9aaa:	2300      	movs	r3, #0
    9aac:	9a04      	ldr	r2, [sp, #16]
    9aae:	4699      	mov	r9, r3
    9ab0:	0011      	movs	r1, r2
    9ab2:	4461      	add	r1, ip
    9ab4:	9104      	str	r1, [sp, #16]
    9ab6:	9b22      	ldr	r3, [sp, #136]	; 0x88
    9ab8:	2b09      	cmp	r3, #9
    9aba:	d900      	bls.n	9abe <_dtoa_r+0x19e>
    9abc:	e18f      	b.n	9dde <_dtoa_r+0x4be>
    9abe:	2401      	movs	r4, #1
    9ac0:	2b05      	cmp	r3, #5
    9ac2:	dd02      	ble.n	9aca <_dtoa_r+0x1aa>
    9ac4:	2400      	movs	r4, #0
    9ac6:	3b04      	subs	r3, #4
    9ac8:	9322      	str	r3, [sp, #136]	; 0x88
    9aca:	9b22      	ldr	r3, [sp, #136]	; 0x88
    9acc:	2b03      	cmp	r3, #3
    9ace:	d101      	bne.n	9ad4 <_dtoa_r+0x1b4>
    9ad0:	f000 fcce 	bl	a470 <_dtoa_r+0xb50>
    9ad4:	dc01      	bgt.n	9ada <_dtoa_r+0x1ba>
    9ad6:	f000 fc92 	bl	a3fe <_dtoa_r+0xade>
    9ada:	9b22      	ldr	r3, [sp, #136]	; 0x88
    9adc:	2b04      	cmp	r3, #4
    9ade:	d101      	bne.n	9ae4 <_dtoa_r+0x1c4>
    9ae0:	f000 fc40 	bl	a364 <_dtoa_r+0xa44>
    9ae4:	2301      	movs	r3, #1
    9ae6:	930b      	str	r3, [sp, #44]	; 0x2c
    9ae8:	9b22      	ldr	r3, [sp, #136]	; 0x88
    9aea:	2b05      	cmp	r3, #5
    9aec:	d001      	beq.n	9af2 <_dtoa_r+0x1d2>
    9aee:	f000 fc8b 	bl	a408 <_dtoa_r+0xae8>
    9af2:	9a23      	ldr	r2, [sp, #140]	; 0x8c
    9af4:	9b03      	ldr	r3, [sp, #12]
    9af6:	4694      	mov	ip, r2
    9af8:	4463      	add	r3, ip
    9afa:	930e      	str	r3, [sp, #56]	; 0x38
    9afc:	3301      	adds	r3, #1
    9afe:	9307      	str	r3, [sp, #28]
    9b00:	1e1d      	subs	r5, r3, #0
    9b02:	dc01      	bgt.n	9b08 <_dtoa_r+0x1e8>
    9b04:	f000 fd49 	bl	a59a <_dtoa_r+0xc7a>
    9b08:	9b07      	ldr	r3, [sp, #28]
    9b0a:	4698      	mov	r8, r3
    9b0c:	2300      	movs	r3, #0
    9b0e:	4652      	mov	r2, sl
    9b10:	2100      	movs	r1, #0
    9b12:	6453      	str	r3, [r2, #68]	; 0x44
    9b14:	2d17      	cmp	r5, #23
    9b16:	d90a      	bls.n	9b2e <_dtoa_r+0x20e>
    9b18:	2201      	movs	r2, #1
    9b1a:	3304      	adds	r3, #4
    9b1c:	005b      	lsls	r3, r3, #1
    9b1e:	0018      	movs	r0, r3
    9b20:	3014      	adds	r0, #20
    9b22:	0011      	movs	r1, r2
    9b24:	3201      	adds	r2, #1
    9b26:	4285      	cmp	r5, r0
    9b28:	d2f8      	bcs.n	9b1c <_dtoa_r+0x1fc>
    9b2a:	4653      	mov	r3, sl
    9b2c:	6459      	str	r1, [r3, #68]	; 0x44
    9b2e:	4650      	mov	r0, sl
    9b30:	f001 fa2a 	bl	af88 <_Balloc>
    9b34:	4653      	mov	r3, sl
    9b36:	6418      	str	r0, [r3, #64]	; 0x40
    9b38:	4643      	mov	r3, r8
    9b3a:	900a      	str	r0, [sp, #40]	; 0x28
    9b3c:	2b0e      	cmp	r3, #14
    9b3e:	d900      	bls.n	9b42 <_dtoa_r+0x222>
    9b40:	e161      	b.n	9e06 <_dtoa_r+0x4e6>
    9b42:	2c00      	cmp	r4, #0
    9b44:	d100      	bne.n	9b48 <_dtoa_r+0x228>
    9b46:	e15e      	b.n	9e06 <_dtoa_r+0x4e6>
    9b48:	9610      	str	r6, [sp, #64]	; 0x40
    9b4a:	9711      	str	r7, [sp, #68]	; 0x44
    9b4c:	9e03      	ldr	r6, [sp, #12]
    9b4e:	2e00      	cmp	r6, #0
    9b50:	dc01      	bgt.n	9b56 <_dtoa_r+0x236>
    9b52:	f000 fd25 	bl	a5a0 <_dtoa_r+0xc80>
    9b56:	0032      	movs	r2, r6
    9b58:	210f      	movs	r1, #15
    9b5a:	4b65      	ldr	r3, [pc, #404]	; (9cf0 <_dtoa_r+0x3d0>)
    9b5c:	400a      	ands	r2, r1
    9b5e:	00d2      	lsls	r2, r2, #3
    9b60:	189b      	adds	r3, r3, r2
    9b62:	1136      	asrs	r6, r6, #4
    9b64:	681c      	ldr	r4, [r3, #0]
    9b66:	685d      	ldr	r5, [r3, #4]
    9b68:	06f3      	lsls	r3, r6, #27
    9b6a:	d401      	bmi.n	9b70 <_dtoa_r+0x250>
    9b6c:	f000 fcca 	bl	a504 <_dtoa_r+0xbe4>
    9b70:	4b60      	ldr	r3, [pc, #384]	; (9cf4 <_dtoa_r+0x3d4>)
    9b72:	400e      	ands	r6, r1
    9b74:	6a1a      	ldr	r2, [r3, #32]
    9b76:	6a5b      	ldr	r3, [r3, #36]	; 0x24
    9b78:	9810      	ldr	r0, [sp, #64]	; 0x40
    9b7a:	9911      	ldr	r1, [sp, #68]	; 0x44
    9b7c:	f7fc fb12 	bl	61a4 <__aeabi_ddiv>
    9b80:	2303      	movs	r3, #3
    9b82:	4698      	mov	r8, r3
    9b84:	9008      	str	r0, [sp, #32]
    9b86:	9109      	str	r1, [sp, #36]	; 0x24
    9b88:	2e00      	cmp	r6, #0
    9b8a:	d011      	beq.n	9bb0 <_dtoa_r+0x290>
    9b8c:	4f59      	ldr	r7, [pc, #356]	; (9cf4 <_dtoa_r+0x3d4>)
    9b8e:	2301      	movs	r3, #1
    9b90:	4233      	tst	r3, r6
    9b92:	d009      	beq.n	9ba8 <_dtoa_r+0x288>
    9b94:	469c      	mov	ip, r3
    9b96:	683a      	ldr	r2, [r7, #0]
    9b98:	687b      	ldr	r3, [r7, #4]
    9b9a:	0020      	movs	r0, r4
    9b9c:	0029      	movs	r1, r5
    9b9e:	44e0      	add	r8, ip
    9ba0:	f7fc ff34 	bl	6a0c <__aeabi_dmul>
    9ba4:	0004      	movs	r4, r0
    9ba6:	000d      	movs	r5, r1
    9ba8:	1076      	asrs	r6, r6, #1
    9baa:	3708      	adds	r7, #8
    9bac:	2e00      	cmp	r6, #0
    9bae:	d1ee      	bne.n	9b8e <_dtoa_r+0x26e>
    9bb0:	0022      	movs	r2, r4
    9bb2:	9808      	ldr	r0, [sp, #32]
    9bb4:	9909      	ldr	r1, [sp, #36]	; 0x24
    9bb6:	002b      	movs	r3, r5
    9bb8:	f7fc faf4 	bl	61a4 <__aeabi_ddiv>
    9bbc:	0006      	movs	r6, r0
    9bbe:	000f      	movs	r7, r1
    9bc0:	9b0c      	ldr	r3, [sp, #48]	; 0x30
    9bc2:	2b00      	cmp	r3, #0
    9bc4:	d009      	beq.n	9bda <_dtoa_r+0x2ba>
    9bc6:	2200      	movs	r2, #0
    9bc8:	4b40      	ldr	r3, [pc, #256]	; (9ccc <_dtoa_r+0x3ac>)
    9bca:	0030      	movs	r0, r6
    9bcc:	0039      	movs	r1, r7
    9bce:	f7fb ff41 	bl	5a54 <__aeabi_dcmplt>
    9bd2:	2800      	cmp	r0, #0
    9bd4:	d001      	beq.n	9bda <_dtoa_r+0x2ba>
    9bd6:	f000 fdc2 	bl	a75e <_dtoa_r+0xe3e>
    9bda:	4640      	mov	r0, r8
    9bdc:	f7fd fd00 	bl	75e0 <__aeabi_i2d>
    9be0:	0032      	movs	r2, r6
    9be2:	003b      	movs	r3, r7
    9be4:	f7fc ff12 	bl	6a0c <__aeabi_dmul>
    9be8:	2200      	movs	r2, #0
    9bea:	4b43      	ldr	r3, [pc, #268]	; (9cf8 <_dtoa_r+0x3d8>)
    9bec:	f7fb ffca 	bl	5b84 <__aeabi_dadd>
    9bf0:	4a42      	ldr	r2, [pc, #264]	; (9cfc <_dtoa_r+0x3dc>)
    9bf2:	000b      	movs	r3, r1
    9bf4:	4694      	mov	ip, r2
    9bf6:	4463      	add	r3, ip
    9bf8:	9008      	str	r0, [sp, #32]
    9bfa:	9109      	str	r1, [sp, #36]	; 0x24
    9bfc:	9309      	str	r3, [sp, #36]	; 0x24
    9bfe:	9b07      	ldr	r3, [sp, #28]
    9c00:	2b00      	cmp	r3, #0
    9c02:	d101      	bne.n	9c08 <_dtoa_r+0x2e8>
    9c04:	f000 fc50 	bl	a4a8 <_dtoa_r+0xb88>
    9c08:	9b03      	ldr	r3, [sp, #12]
    9c0a:	9313      	str	r3, [sp, #76]	; 0x4c
    9c0c:	9b07      	ldr	r3, [sp, #28]
    9c0e:	9312      	str	r3, [sp, #72]	; 0x48
    9c10:	9b0b      	ldr	r3, [sp, #44]	; 0x2c
    9c12:	2b00      	cmp	r3, #0
    9c14:	d101      	bne.n	9c1a <_dtoa_r+0x2fa>
    9c16:	f000 fd1d 	bl	a654 <_dtoa_r+0xd34>
    9c1a:	9b12      	ldr	r3, [sp, #72]	; 0x48
    9c1c:	2000      	movs	r0, #0
    9c1e:	1e5a      	subs	r2, r3, #1
    9c20:	4b33      	ldr	r3, [pc, #204]	; (9cf0 <_dtoa_r+0x3d0>)
    9c22:	00d2      	lsls	r2, r2, #3
    9c24:	189b      	adds	r3, r3, r2
    9c26:	681a      	ldr	r2, [r3, #0]
    9c28:	685b      	ldr	r3, [r3, #4]
    9c2a:	4935      	ldr	r1, [pc, #212]	; (9d00 <_dtoa_r+0x3e0>)
    9c2c:	f7fc faba 	bl	61a4 <__aeabi_ddiv>
    9c30:	9a08      	ldr	r2, [sp, #32]
    9c32:	9b09      	ldr	r3, [sp, #36]	; 0x24
    9c34:	f7fd f96a 	bl	6f0c <__aeabi_dsub>
    9c38:	9008      	str	r0, [sp, #32]
    9c3a:	9109      	str	r1, [sp, #36]	; 0x24
    9c3c:	0039      	movs	r1, r7
    9c3e:	0030      	movs	r0, r6
    9c40:	f7fd fc9a 	bl	7578 <__aeabi_d2iz>
    9c44:	0004      	movs	r4, r0
    9c46:	f7fd fccb 	bl	75e0 <__aeabi_i2d>
    9c4a:	0002      	movs	r2, r0
    9c4c:	000b      	movs	r3, r1
    9c4e:	0030      	movs	r0, r6
    9c50:	0039      	movs	r1, r7
    9c52:	f7fd f95b 	bl	6f0c <__aeabi_dsub>
    9c56:	0005      	movs	r5, r0
    9c58:	000e      	movs	r6, r1
    9c5a:	9a0a      	ldr	r2, [sp, #40]	; 0x28
    9c5c:	3430      	adds	r4, #48	; 0x30
    9c5e:	1c51      	adds	r1, r2, #1
    9c60:	b2e7      	uxtb	r7, r4
    9c62:	9114      	str	r1, [sp, #80]	; 0x50
    9c64:	7017      	strb	r7, [r2, #0]
    9c66:	0033      	movs	r3, r6
    9c68:	9808      	ldr	r0, [sp, #32]
    9c6a:	9909      	ldr	r1, [sp, #36]	; 0x24
    9c6c:	002a      	movs	r2, r5
    9c6e:	f7fb ff05 	bl	5a7c <__aeabi_dcmpgt>
    9c72:	2800      	cmp	r0, #0
    9c74:	d001      	beq.n	9c7a <_dtoa_r+0x35a>
    9c76:	f000 fdfe 	bl	a876 <_dtoa_r+0xf56>
    9c7a:	002a      	movs	r2, r5
    9c7c:	0033      	movs	r3, r6
    9c7e:	2000      	movs	r0, #0
    9c80:	4912      	ldr	r1, [pc, #72]	; (9ccc <_dtoa_r+0x3ac>)
    9c82:	f7fd f943 	bl	6f0c <__aeabi_dsub>
    9c86:	0002      	movs	r2, r0
    9c88:	000b      	movs	r3, r1
    9c8a:	9808      	ldr	r0, [sp, #32]
    9c8c:	9909      	ldr	r1, [sp, #36]	; 0x24
    9c8e:	f7fb fef5 	bl	5a7c <__aeabi_dcmpgt>
    9c92:	2800      	cmp	r0, #0
    9c94:	d001      	beq.n	9c9a <_dtoa_r+0x37a>
    9c96:	f000 fde7 	bl	a868 <_dtoa_r+0xf48>
    9c9a:	9b12      	ldr	r3, [sp, #72]	; 0x48
    9c9c:	2b01      	cmp	r3, #1
    9c9e:	d101      	bne.n	9ca4 <_dtoa_r+0x384>
    9ca0:	f000 fc78 	bl	a594 <_dtoa_r+0xc74>
    9ca4:	9a0a      	ldr	r2, [sp, #40]	; 0x28
    9ca6:	9b12      	ldr	r3, [sp, #72]	; 0x48
    9ca8:	4694      	mov	ip, r2
    9caa:	4463      	add	r3, ip
    9cac:	4698      	mov	r8, r3
    9cae:	464b      	mov	r3, r9
    9cb0:	9312      	str	r3, [sp, #72]	; 0x48
    9cb2:	9b14      	ldr	r3, [sp, #80]	; 0x50
    9cb4:	4699      	mov	r9, r3
    9cb6:	e038      	b.n	9d2a <_dtoa_r+0x40a>
    9cb8:	7ff00000 	.word	0x7ff00000
    9cbc:	0000d5c9 	.word	0x0000d5c9
    9cc0:	0000270f 	.word	0x0000270f
    9cc4:	0000d5ec 	.word	0x0000d5ec
    9cc8:	0000d5f8 	.word	0x0000d5f8
    9ccc:	3ff00000 	.word	0x3ff00000
    9cd0:	fffffc01 	.word	0xfffffc01
    9cd4:	3ff80000 	.word	0x3ff80000
    9cd8:	636f4361 	.word	0x636f4361
    9cdc:	3fd287a7 	.word	0x3fd287a7
    9ce0:	8b60c8b3 	.word	0x8b60c8b3
    9ce4:	3fc68a28 	.word	0x3fc68a28
    9ce8:	509f79fb 	.word	0x509f79fb
    9cec:	3fd34413 	.word	0x3fd34413
    9cf0:	0000d638 	.word	0x0000d638
    9cf4:	0000d610 	.word	0x0000d610
    9cf8:	401c0000 	.word	0x401c0000
    9cfc:	fcc00000 	.word	0xfcc00000
    9d00:	3fe00000 	.word	0x3fe00000
    9d04:	002a      	movs	r2, r5
    9d06:	0033      	movs	r3, r6
    9d08:	2000      	movs	r0, #0
    9d0a:	49b9      	ldr	r1, [pc, #740]	; (9ff0 <_dtoa_r+0x6d0>)
    9d0c:	f7fd f8fe 	bl	6f0c <__aeabi_dsub>
    9d10:	9a08      	ldr	r2, [sp, #32]
    9d12:	9b09      	ldr	r3, [sp, #36]	; 0x24
    9d14:	f7fb fe9e 	bl	5a54 <__aeabi_dcmplt>
    9d18:	2800      	cmp	r0, #0
    9d1a:	d001      	beq.n	9d20 <_dtoa_r+0x400>
    9d1c:	f000 fd74 	bl	a808 <_dtoa_r+0xee8>
    9d20:	46a1      	mov	r9, r4
    9d22:	4544      	cmp	r4, r8
    9d24:	d101      	bne.n	9d2a <_dtoa_r+0x40a>
    9d26:	f000 fc33 	bl	a590 <_dtoa_r+0xc70>
    9d2a:	9808      	ldr	r0, [sp, #32]
    9d2c:	9909      	ldr	r1, [sp, #36]	; 0x24
    9d2e:	2200      	movs	r2, #0
    9d30:	4bb0      	ldr	r3, [pc, #704]	; (9ff4 <_dtoa_r+0x6d4>)
    9d32:	f7fc fe6b 	bl	6a0c <__aeabi_dmul>
    9d36:	2200      	movs	r2, #0
    9d38:	4bae      	ldr	r3, [pc, #696]	; (9ff4 <_dtoa_r+0x6d4>)
    9d3a:	9008      	str	r0, [sp, #32]
    9d3c:	9109      	str	r1, [sp, #36]	; 0x24
    9d3e:	0028      	movs	r0, r5
    9d40:	0031      	movs	r1, r6
    9d42:	f7fc fe63 	bl	6a0c <__aeabi_dmul>
    9d46:	000d      	movs	r5, r1
    9d48:	0004      	movs	r4, r0
    9d4a:	f7fd fc15 	bl	7578 <__aeabi_d2iz>
    9d4e:	0007      	movs	r7, r0
    9d50:	f7fd fc46 	bl	75e0 <__aeabi_i2d>
    9d54:	0002      	movs	r2, r0
    9d56:	000b      	movs	r3, r1
    9d58:	0020      	movs	r0, r4
    9d5a:	0029      	movs	r1, r5
    9d5c:	f7fd f8d6 	bl	6f0c <__aeabi_dsub>
    9d60:	464b      	mov	r3, r9
    9d62:	3730      	adds	r7, #48	; 0x30
    9d64:	b2ff      	uxtb	r7, r7
    9d66:	1c5c      	adds	r4, r3, #1
    9d68:	701f      	strb	r7, [r3, #0]
    9d6a:	9a08      	ldr	r2, [sp, #32]
    9d6c:	9b09      	ldr	r3, [sp, #36]	; 0x24
    9d6e:	0005      	movs	r5, r0
    9d70:	000e      	movs	r6, r1
    9d72:	f7fb fe6f 	bl	5a54 <__aeabi_dcmplt>
    9d76:	2800      	cmp	r0, #0
    9d78:	d0c4      	beq.n	9d04 <_dtoa_r+0x3e4>
    9d7a:	9b13      	ldr	r3, [sp, #76]	; 0x4c
    9d7c:	9303      	str	r3, [sp, #12]
    9d7e:	4659      	mov	r1, fp
    9d80:	4650      	mov	r0, sl
    9d82:	f001 f929 	bl	afd8 <_Bfree>
    9d86:	2300      	movs	r3, #0
    9d88:	7023      	strb	r3, [r4, #0]
    9d8a:	9b03      	ldr	r3, [sp, #12]
    9d8c:	9a24      	ldr	r2, [sp, #144]	; 0x90
    9d8e:	3301      	adds	r3, #1
    9d90:	6013      	str	r3, [r2, #0]
    9d92:	9b26      	ldr	r3, [sp, #152]	; 0x98
    9d94:	2b00      	cmp	r3, #0
    9d96:	d100      	bne.n	9d9a <_dtoa_r+0x47a>
    9d98:	e3a8      	b.n	a4ec <_dtoa_r+0xbcc>
    9d9a:	601c      	str	r4, [r3, #0]
    9d9c:	980a      	ldr	r0, [sp, #40]	; 0x28
    9d9e:	e5f4      	b.n	998a <_dtoa_r+0x6a>
    9da0:	9b16      	ldr	r3, [sp, #88]	; 0x58
    9da2:	4699      	mov	r9, r3
    9da4:	9b17      	ldr	r3, [sp, #92]	; 0x5c
    9da6:	444b      	add	r3, r9
    9da8:	001c      	movs	r4, r3
    9daa:	4b93      	ldr	r3, [pc, #588]	; (9ff8 <_dtoa_r+0x6d8>)
    9dac:	18e3      	adds	r3, r4, r3
    9dae:	2b20      	cmp	r3, #32
    9db0:	dc00      	bgt.n	9db4 <_dtoa_r+0x494>
    9db2:	e17e      	b.n	a0b2 <_dtoa_r+0x792>
    9db4:	0031      	movs	r1, r6
    9db6:	4a91      	ldr	r2, [pc, #580]	; (9ffc <_dtoa_r+0x6dc>)
    9db8:	4640      	mov	r0, r8
    9dba:	18a2      	adds	r2, r4, r2
    9dbc:	40d1      	lsrs	r1, r2
    9dbe:	000a      	movs	r2, r1
    9dc0:	2140      	movs	r1, #64	; 0x40
    9dc2:	1acb      	subs	r3, r1, r3
    9dc4:	4098      	lsls	r0, r3
    9dc6:	4310      	orrs	r0, r2
    9dc8:	f7fd fc4c 	bl	7664 <__aeabi_ui2d>
    9dcc:	1e63      	subs	r3, r4, #1
    9dce:	4698      	mov	r8, r3
    9dd0:	2301      	movs	r3, #1
    9dd2:	4d8b      	ldr	r5, [pc, #556]	; (a000 <_dtoa_r+0x6e0>)
    9dd4:	930f      	str	r3, [sp, #60]	; 0x3c
    9dd6:	1949      	adds	r1, r1, r5
    9dd8:	e618      	b.n	9a0c <_dtoa_r+0xec>
    9dda:	488a      	ldr	r0, [pc, #552]	; (a004 <_dtoa_r+0x6e4>)
    9ddc:	e5d5      	b.n	998a <_dtoa_r+0x6a>
    9dde:	2300      	movs	r3, #0
    9de0:	4652      	mov	r2, sl
    9de2:	2100      	movs	r1, #0
    9de4:	6453      	str	r3, [r2, #68]	; 0x44
    9de6:	4650      	mov	r0, sl
    9de8:	f001 f8ce 	bl	af88 <_Balloc>
    9dec:	4653      	mov	r3, sl
    9dee:	6418      	str	r0, [r3, #64]	; 0x40
    9df0:	2301      	movs	r3, #1
    9df2:	425b      	negs	r3, r3
    9df4:	9307      	str	r3, [sp, #28]
    9df6:	930e      	str	r3, [sp, #56]	; 0x38
    9df8:	3302      	adds	r3, #2
    9dfa:	2200      	movs	r2, #0
    9dfc:	930b      	str	r3, [sp, #44]	; 0x2c
    9dfe:	2300      	movs	r3, #0
    9e00:	900a      	str	r0, [sp, #40]	; 0x28
    9e02:	9223      	str	r2, [sp, #140]	; 0x8c
    9e04:	9322      	str	r3, [sp, #136]	; 0x88
    9e06:	9b17      	ldr	r3, [sp, #92]	; 0x5c
    9e08:	2b00      	cmp	r3, #0
    9e0a:	da00      	bge.n	9e0e <_dtoa_r+0x4ee>
    9e0c:	e0ab      	b.n	9f66 <_dtoa_r+0x646>
    9e0e:	9a03      	ldr	r2, [sp, #12]
    9e10:	2a0e      	cmp	r2, #14
    9e12:	dd00      	ble.n	9e16 <_dtoa_r+0x4f6>
    9e14:	e0a7      	b.n	9f66 <_dtoa_r+0x646>
    9e16:	4b7c      	ldr	r3, [pc, #496]	; (a008 <_dtoa_r+0x6e8>)
    9e18:	00d2      	lsls	r2, r2, #3
    9e1a:	189b      	adds	r3, r3, r2
    9e1c:	685c      	ldr	r4, [r3, #4]
    9e1e:	681b      	ldr	r3, [r3, #0]
    9e20:	9304      	str	r3, [sp, #16]
    9e22:	9405      	str	r4, [sp, #20]
    9e24:	9b23      	ldr	r3, [sp, #140]	; 0x8c
    9e26:	2b00      	cmp	r3, #0
    9e28:	da00      	bge.n	9e2c <_dtoa_r+0x50c>
    9e2a:	e2a7      	b.n	a37c <_dtoa_r+0xa5c>
    9e2c:	9c04      	ldr	r4, [sp, #16]
    9e2e:	9d05      	ldr	r5, [sp, #20]
    9e30:	0030      	movs	r0, r6
    9e32:	0022      	movs	r2, r4
    9e34:	002b      	movs	r3, r5
    9e36:	0039      	movs	r1, r7
    9e38:	f7fc f9b4 	bl	61a4 <__aeabi_ddiv>
    9e3c:	f7fd fb9c 	bl	7578 <__aeabi_d2iz>
    9e40:	4680      	mov	r8, r0
    9e42:	f7fd fbcd 	bl	75e0 <__aeabi_i2d>
    9e46:	0022      	movs	r2, r4
    9e48:	002b      	movs	r3, r5
    9e4a:	f7fc fddf 	bl	6a0c <__aeabi_dmul>
    9e4e:	0002      	movs	r2, r0
    9e50:	000b      	movs	r3, r1
    9e52:	0030      	movs	r0, r6
    9e54:	0039      	movs	r1, r7
    9e56:	f7fd f859 	bl	6f0c <__aeabi_dsub>
    9e5a:	4643      	mov	r3, r8
    9e5c:	9a0a      	ldr	r2, [sp, #40]	; 0x28
    9e5e:	3330      	adds	r3, #48	; 0x30
    9e60:	7013      	strb	r3, [r2, #0]
    9e62:	9b07      	ldr	r3, [sp, #28]
    9e64:	0006      	movs	r6, r0
    9e66:	000f      	movs	r7, r1
    9e68:	1c54      	adds	r4, r2, #1
    9e6a:	2b01      	cmp	r3, #1
    9e6c:	d04e      	beq.n	9f0c <_dtoa_r+0x5ec>
    9e6e:	2200      	movs	r2, #0
    9e70:	4b60      	ldr	r3, [pc, #384]	; (9ff4 <_dtoa_r+0x6d4>)
    9e72:	f7fc fdcb 	bl	6a0c <__aeabi_dmul>
    9e76:	2200      	movs	r2, #0
    9e78:	2300      	movs	r3, #0
    9e7a:	0006      	movs	r6, r0
    9e7c:	000f      	movs	r7, r1
    9e7e:	f7fb fde3 	bl	5a48 <__aeabi_dcmpeq>
    9e82:	2800      	cmp	r0, #0
    9e84:	d000      	beq.n	9e88 <_dtoa_r+0x568>
    9e86:	e77a      	b.n	9d7e <_dtoa_r+0x45e>
    9e88:	9b0a      	ldr	r3, [sp, #40]	; 0x28
    9e8a:	9a07      	ldr	r2, [sp, #28]
    9e8c:	1c9d      	adds	r5, r3, #2
    9e8e:	469c      	mov	ip, r3
    9e90:	465b      	mov	r3, fp
    9e92:	9306      	str	r3, [sp, #24]
    9e94:	4653      	mov	r3, sl
    9e96:	4462      	add	r2, ip
    9e98:	46aa      	mov	sl, r5
    9e9a:	9c04      	ldr	r4, [sp, #16]
    9e9c:	9d05      	ldr	r5, [sp, #20]
    9e9e:	4691      	mov	r9, r2
    9ea0:	9307      	str	r3, [sp, #28]
    9ea2:	e00f      	b.n	9ec4 <_dtoa_r+0x5a4>
    9ea4:	2200      	movs	r2, #0
    9ea6:	4b53      	ldr	r3, [pc, #332]	; (9ff4 <_dtoa_r+0x6d4>)
    9ea8:	f7fc fdb0 	bl	6a0c <__aeabi_dmul>
    9eac:	2301      	movs	r3, #1
    9eae:	469c      	mov	ip, r3
    9eb0:	2200      	movs	r2, #0
    9eb2:	2300      	movs	r3, #0
    9eb4:	0006      	movs	r6, r0
    9eb6:	000f      	movs	r7, r1
    9eb8:	44e2      	add	sl, ip
    9eba:	f7fb fdc5 	bl	5a48 <__aeabi_dcmpeq>
    9ebe:	2800      	cmp	r0, #0
    9ec0:	d000      	beq.n	9ec4 <_dtoa_r+0x5a4>
    9ec2:	e2d9      	b.n	a478 <_dtoa_r+0xb58>
    9ec4:	0022      	movs	r2, r4
    9ec6:	002b      	movs	r3, r5
    9ec8:	0030      	movs	r0, r6
    9eca:	0039      	movs	r1, r7
    9ecc:	f7fc f96a 	bl	61a4 <__aeabi_ddiv>
    9ed0:	f7fd fb52 	bl	7578 <__aeabi_d2iz>
    9ed4:	4680      	mov	r8, r0
    9ed6:	f7fd fb83 	bl	75e0 <__aeabi_i2d>
    9eda:	0022      	movs	r2, r4
    9edc:	002b      	movs	r3, r5
    9ede:	f7fc fd95 	bl	6a0c <__aeabi_dmul>
    9ee2:	0002      	movs	r2, r0
    9ee4:	000b      	movs	r3, r1
    9ee6:	0030      	movs	r0, r6
    9ee8:	0039      	movs	r1, r7
    9eea:	f7fd f80f 	bl	6f0c <__aeabi_dsub>
    9eee:	4653      	mov	r3, sl
    9ef0:	4642      	mov	r2, r8
    9ef2:	3b01      	subs	r3, #1
    9ef4:	3230      	adds	r2, #48	; 0x30
    9ef6:	0006      	movs	r6, r0
    9ef8:	000f      	movs	r7, r1
    9efa:	46d3      	mov	fp, sl
    9efc:	701a      	strb	r2, [r3, #0]
    9efe:	45d1      	cmp	r9, sl
    9f00:	d1d0      	bne.n	9ea4 <_dtoa_r+0x584>
    9f02:	9b06      	ldr	r3, [sp, #24]
    9f04:	4654      	mov	r4, sl
    9f06:	469b      	mov	fp, r3
    9f08:	9b07      	ldr	r3, [sp, #28]
    9f0a:	469a      	mov	sl, r3
    9f0c:	0032      	movs	r2, r6
    9f0e:	003b      	movs	r3, r7
    9f10:	0030      	movs	r0, r6
    9f12:	0039      	movs	r1, r7
    9f14:	f7fb fe36 	bl	5b84 <__aeabi_dadd>
    9f18:	0006      	movs	r6, r0
    9f1a:	000f      	movs	r7, r1
    9f1c:	0002      	movs	r2, r0
    9f1e:	000b      	movs	r3, r1
    9f20:	9804      	ldr	r0, [sp, #16]
    9f22:	9905      	ldr	r1, [sp, #20]
    9f24:	f7fb fd96 	bl	5a54 <__aeabi_dcmplt>
    9f28:	2800      	cmp	r0, #0
    9f2a:	d10c      	bne.n	9f46 <_dtoa_r+0x626>
    9f2c:	9804      	ldr	r0, [sp, #16]
    9f2e:	9905      	ldr	r1, [sp, #20]
    9f30:	0032      	movs	r2, r6
    9f32:	003b      	movs	r3, r7
    9f34:	f7fb fd88 	bl	5a48 <__aeabi_dcmpeq>
    9f38:	2800      	cmp	r0, #0
    9f3a:	d100      	bne.n	9f3e <_dtoa_r+0x61e>
    9f3c:	e71f      	b.n	9d7e <_dtoa_r+0x45e>
    9f3e:	4643      	mov	r3, r8
    9f40:	07db      	lsls	r3, r3, #31
    9f42:	d400      	bmi.n	9f46 <_dtoa_r+0x626>
    9f44:	e71b      	b.n	9d7e <_dtoa_r+0x45e>
    9f46:	1e65      	subs	r5, r4, #1
    9f48:	782f      	ldrb	r7, [r5, #0]
    9f4a:	9b0a      	ldr	r3, [sp, #40]	; 0x28
    9f4c:	e006      	b.n	9f5c <_dtoa_r+0x63c>
    9f4e:	429d      	cmp	r5, r3
    9f50:	d100      	bne.n	9f54 <_dtoa_r+0x634>
    9f52:	e351      	b.n	a5f8 <_dtoa_r+0xcd8>
    9f54:	3c02      	subs	r4, #2
    9f56:	7827      	ldrb	r7, [r4, #0]
    9f58:	002c      	movs	r4, r5
    9f5a:	3d01      	subs	r5, #1
    9f5c:	2f39      	cmp	r7, #57	; 0x39
    9f5e:	d0f6      	beq.n	9f4e <_dtoa_r+0x62e>
    9f60:	3701      	adds	r7, #1
    9f62:	702f      	strb	r7, [r5, #0]
    9f64:	e70b      	b.n	9d7e <_dtoa_r+0x45e>
    9f66:	9a0b      	ldr	r2, [sp, #44]	; 0x2c
    9f68:	2a00      	cmp	r2, #0
    9f6a:	d04f      	beq.n	a00c <_dtoa_r+0x6ec>
    9f6c:	9a22      	ldr	r2, [sp, #136]	; 0x88
    9f6e:	2a01      	cmp	r2, #1
    9f70:	dc00      	bgt.n	9f74 <_dtoa_r+0x654>
    9f72:	e22c      	b.n	a3ce <_dtoa_r+0xaae>
    9f74:	9b07      	ldr	r3, [sp, #28]
    9f76:	1e5c      	subs	r4, r3, #1
    9f78:	464b      	mov	r3, r9
    9f7a:	45a1      	cmp	r9, r4
    9f7c:	da00      	bge.n	9f80 <_dtoa_r+0x660>
    9f7e:	e2b8      	b.n	a4f2 <_dtoa_r+0xbd2>
    9f80:	1b1c      	subs	r4, r3, r4
    9f82:	9b07      	ldr	r3, [sp, #28]
    9f84:	2b00      	cmp	r3, #0
    9f86:	da00      	bge.n	9f8a <_dtoa_r+0x66a>
    9f88:	e3d4      	b.n	a734 <_dtoa_r+0xe14>
    9f8a:	9b06      	ldr	r3, [sp, #24]
    9f8c:	9308      	str	r3, [sp, #32]
    9f8e:	9b07      	ldr	r3, [sp, #28]
    9f90:	9a06      	ldr	r2, [sp, #24]
    9f92:	2101      	movs	r1, #1
    9f94:	4694      	mov	ip, r2
    9f96:	449c      	add	ip, r3
    9f98:	4662      	mov	r2, ip
    9f9a:	9206      	str	r2, [sp, #24]
    9f9c:	9a04      	ldr	r2, [sp, #16]
    9f9e:	4650      	mov	r0, sl
    9fa0:	4694      	mov	ip, r2
    9fa2:	449c      	add	ip, r3
    9fa4:	4663      	mov	r3, ip
    9fa6:	9304      	str	r3, [sp, #16]
    9fa8:	f001 f8ae 	bl	b108 <__i2b>
    9fac:	4680      	mov	r8, r0
    9fae:	e032      	b.n	a016 <_dtoa_r+0x6f6>
    9fb0:	9a06      	ldr	r2, [sp, #24]
    9fb2:	9b03      	ldr	r3, [sp, #12]
    9fb4:	1ad2      	subs	r2, r2, r3
    9fb6:	425b      	negs	r3, r3
    9fb8:	4699      	mov	r9, r3
    9fba:	2300      	movs	r3, #0
    9fbc:	9206      	str	r2, [sp, #24]
    9fbe:	930d      	str	r3, [sp, #52]	; 0x34
    9fc0:	e579      	b.n	9ab6 <_dtoa_r+0x196>
    9fc2:	9803      	ldr	r0, [sp, #12]
    9fc4:	f7fd fb0c 	bl	75e0 <__aeabi_i2d>
    9fc8:	000b      	movs	r3, r1
    9fca:	0002      	movs	r2, r0
    9fcc:	0029      	movs	r1, r5
    9fce:	0020      	movs	r0, r4
    9fd0:	f7fb fd3a 	bl	5a48 <__aeabi_dcmpeq>
    9fd4:	0002      	movs	r2, r0
    9fd6:	4250      	negs	r0, r2
    9fd8:	4150      	adcs	r0, r2
    9fda:	9b03      	ldr	r3, [sp, #12]
    9fdc:	1a1b      	subs	r3, r3, r0
    9fde:	9303      	str	r3, [sp, #12]
    9fe0:	e53d      	b.n	9a5e <_dtoa_r+0x13e>
    9fe2:	2301      	movs	r3, #1
    9fe4:	1a9b      	subs	r3, r3, r2
    9fe6:	9306      	str	r3, [sp, #24]
    9fe8:	2300      	movs	r3, #0
    9fea:	9304      	str	r3, [sp, #16]
    9fec:	e557      	b.n	9a9e <_dtoa_r+0x17e>
    9fee:	46c0      	nop			; (mov r8, r8)
    9ff0:	3ff00000 	.word	0x3ff00000
    9ff4:	40240000 	.word	0x40240000
    9ff8:	00000432 	.word	0x00000432
    9ffc:	00000412 	.word	0x00000412
    a000:	fe100000 	.word	0xfe100000
    a004:	0000d5c8 	.word	0x0000d5c8
    a008:	0000d638 	.word	0x0000d638
    a00c:	9b06      	ldr	r3, [sp, #24]
    a00e:	464c      	mov	r4, r9
    a010:	9308      	str	r3, [sp, #32]
    a012:	2300      	movs	r3, #0
    a014:	4698      	mov	r8, r3
    a016:	9908      	ldr	r1, [sp, #32]
    a018:	1e0b      	subs	r3, r1, #0
    a01a:	dd0e      	ble.n	a03a <_dtoa_r+0x71a>
    a01c:	9a04      	ldr	r2, [sp, #16]
    a01e:	2a00      	cmp	r2, #0
    a020:	dd0b      	ble.n	a03a <_dtoa_r+0x71a>
    a022:	4293      	cmp	r3, r2
    a024:	dd00      	ble.n	a028 <_dtoa_r+0x708>
    a026:	e187      	b.n	a338 <_dtoa_r+0xa18>
    a028:	9a06      	ldr	r2, [sp, #24]
    a02a:	1ad2      	subs	r2, r2, r3
    a02c:	9206      	str	r2, [sp, #24]
    a02e:	9a08      	ldr	r2, [sp, #32]
    a030:	1ad2      	subs	r2, r2, r3
    a032:	9208      	str	r2, [sp, #32]
    a034:	9a04      	ldr	r2, [sp, #16]
    a036:	1ad3      	subs	r3, r2, r3
    a038:	9304      	str	r3, [sp, #16]
    a03a:	464b      	mov	r3, r9
    a03c:	2b00      	cmp	r3, #0
    a03e:	d01a      	beq.n	a076 <_dtoa_r+0x756>
    a040:	9b0b      	ldr	r3, [sp, #44]	; 0x2c
    a042:	2b00      	cmp	r3, #0
    a044:	d100      	bne.n	a048 <_dtoa_r+0x728>
    a046:	e1bb      	b.n	a3c0 <_dtoa_r+0xaa0>
    a048:	2c00      	cmp	r4, #0
    a04a:	dd10      	ble.n	a06e <_dtoa_r+0x74e>
    a04c:	4641      	mov	r1, r8
    a04e:	0022      	movs	r2, r4
    a050:	4650      	mov	r0, sl
    a052:	f001 f90d 	bl	b270 <__pow5mult>
    a056:	465a      	mov	r2, fp
    a058:	0001      	movs	r1, r0
    a05a:	4680      	mov	r8, r0
    a05c:	4650      	mov	r0, sl
    a05e:	f001 f85d 	bl	b11c <__multiply>
    a062:	0005      	movs	r5, r0
    a064:	4659      	mov	r1, fp
    a066:	4650      	mov	r0, sl
    a068:	f000 ffb6 	bl	afd8 <_Bfree>
    a06c:	46ab      	mov	fp, r5
    a06e:	464b      	mov	r3, r9
    a070:	1b1a      	subs	r2, r3, r4
    a072:	d000      	beq.n	a076 <_dtoa_r+0x756>
    a074:	e1a5      	b.n	a3c2 <_dtoa_r+0xaa2>
    a076:	2101      	movs	r1, #1
    a078:	4650      	mov	r0, sl
    a07a:	f001 f845 	bl	b108 <__i2b>
    a07e:	9b0d      	ldr	r3, [sp, #52]	; 0x34
    a080:	4681      	mov	r9, r0
    a082:	2b00      	cmp	r3, #0
    a084:	dd1d      	ble.n	a0c2 <_dtoa_r+0x7a2>
    a086:	001a      	movs	r2, r3
    a088:	0001      	movs	r1, r0
    a08a:	4650      	mov	r0, sl
    a08c:	f001 f8f0 	bl	b270 <__pow5mult>
    a090:	9b22      	ldr	r3, [sp, #136]	; 0x88
    a092:	4681      	mov	r9, r0
    a094:	2b01      	cmp	r3, #1
    a096:	dc00      	bgt.n	a09a <_dtoa_r+0x77a>
    a098:	e150      	b.n	a33c <_dtoa_r+0xa1c>
    a09a:	2400      	movs	r4, #0
    a09c:	464b      	mov	r3, r9
    a09e:	691b      	ldr	r3, [r3, #16]
    a0a0:	3303      	adds	r3, #3
    a0a2:	009b      	lsls	r3, r3, #2
    a0a4:	444b      	add	r3, r9
    a0a6:	6858      	ldr	r0, [r3, #4]
    a0a8:	f000 ffe6 	bl	b078 <__hi0bits>
    a0ac:	2320      	movs	r3, #32
    a0ae:	1a1b      	subs	r3, r3, r0
    a0b0:	e010      	b.n	a0d4 <_dtoa_r+0x7b4>
    a0b2:	2220      	movs	r2, #32
    a0b4:	0030      	movs	r0, r6
    a0b6:	1ad3      	subs	r3, r2, r3
    a0b8:	4098      	lsls	r0, r3
    a0ba:	e685      	b.n	9dc8 <_dtoa_r+0x4a8>
    a0bc:	2300      	movs	r3, #0
    a0be:	930c      	str	r3, [sp, #48]	; 0x30
    a0c0:	e4e3      	b.n	9a8a <_dtoa_r+0x16a>
    a0c2:	9b22      	ldr	r3, [sp, #136]	; 0x88
    a0c4:	2400      	movs	r4, #0
    a0c6:	2b01      	cmp	r3, #1
    a0c8:	dc00      	bgt.n	a0cc <_dtoa_r+0x7ac>
    a0ca:	e18b      	b.n	a3e4 <_dtoa_r+0xac4>
    a0cc:	9a0d      	ldr	r2, [sp, #52]	; 0x34
    a0ce:	2301      	movs	r3, #1
    a0d0:	2a00      	cmp	r2, #0
    a0d2:	d1e3      	bne.n	a09c <_dtoa_r+0x77c>
    a0d4:	9904      	ldr	r1, [sp, #16]
    a0d6:	201f      	movs	r0, #31
    a0d8:	468c      	mov	ip, r1
    a0da:	4463      	add	r3, ip
    a0dc:	4018      	ands	r0, r3
    a0de:	d100      	bne.n	a0e2 <_dtoa_r+0x7c2>
    a0e0:	e0ae      	b.n	a240 <_dtoa_r+0x920>
    a0e2:	2320      	movs	r3, #32
    a0e4:	1a1b      	subs	r3, r3, r0
    a0e6:	2b04      	cmp	r3, #4
    a0e8:	dc00      	bgt.n	a0ec <_dtoa_r+0x7cc>
    a0ea:	e3cc      	b.n	a886 <_dtoa_r+0xf66>
    a0ec:	231c      	movs	r3, #28
    a0ee:	1a18      	subs	r0, r3, r0
    a0f0:	9b06      	ldr	r3, [sp, #24]
    a0f2:	469c      	mov	ip, r3
    a0f4:	4484      	add	ip, r0
    a0f6:	4663      	mov	r3, ip
    a0f8:	9306      	str	r3, [sp, #24]
    a0fa:	9b08      	ldr	r3, [sp, #32]
    a0fc:	469c      	mov	ip, r3
    a0fe:	4484      	add	ip, r0
    a100:	4663      	mov	r3, ip
    a102:	468c      	mov	ip, r1
    a104:	4484      	add	ip, r0
    a106:	9308      	str	r3, [sp, #32]
    a108:	4663      	mov	r3, ip
    a10a:	9304      	str	r3, [sp, #16]
    a10c:	9b06      	ldr	r3, [sp, #24]
    a10e:	2b00      	cmp	r3, #0
    a110:	dd05      	ble.n	a11e <_dtoa_r+0x7fe>
    a112:	4659      	mov	r1, fp
    a114:	001a      	movs	r2, r3
    a116:	4650      	mov	r0, sl
    a118:	f001 f90a 	bl	b330 <__lshift>
    a11c:	4683      	mov	fp, r0
    a11e:	9b04      	ldr	r3, [sp, #16]
    a120:	2b00      	cmp	r3, #0
    a122:	dd05      	ble.n	a130 <_dtoa_r+0x810>
    a124:	4649      	mov	r1, r9
    a126:	001a      	movs	r2, r3
    a128:	4650      	mov	r0, sl
    a12a:	f001 f901 	bl	b330 <__lshift>
    a12e:	4681      	mov	r9, r0
    a130:	9b0c      	ldr	r3, [sp, #48]	; 0x30
    a132:	2b00      	cmp	r3, #0
    a134:	d000      	beq.n	a138 <_dtoa_r+0x818>
    a136:	e094      	b.n	a262 <_dtoa_r+0x942>
    a138:	9b07      	ldr	r3, [sp, #28]
    a13a:	2b00      	cmp	r3, #0
    a13c:	dc00      	bgt.n	a140 <_dtoa_r+0x820>
    a13e:	e175      	b.n	a42c <_dtoa_r+0xb0c>
    a140:	9b0b      	ldr	r3, [sp, #44]	; 0x2c
    a142:	2b00      	cmp	r3, #0
    a144:	d100      	bne.n	a148 <_dtoa_r+0x828>
    a146:	e0a6      	b.n	a296 <_dtoa_r+0x976>
    a148:	9b08      	ldr	r3, [sp, #32]
    a14a:	2b00      	cmp	r3, #0
    a14c:	dd05      	ble.n	a15a <_dtoa_r+0x83a>
    a14e:	4641      	mov	r1, r8
    a150:	001a      	movs	r2, r3
    a152:	4650      	mov	r0, sl
    a154:	f001 f8ec 	bl	b330 <__lshift>
    a158:	4680      	mov	r8, r0
    a15a:	4643      	mov	r3, r8
    a15c:	930c      	str	r3, [sp, #48]	; 0x30
    a15e:	2c00      	cmp	r4, #0
    a160:	d000      	beq.n	a164 <_dtoa_r+0x844>
    a162:	e250      	b.n	a606 <_dtoa_r+0xce6>
    a164:	9c07      	ldr	r4, [sp, #28]
    a166:	9a0a      	ldr	r2, [sp, #40]	; 0x28
    a168:	3c01      	subs	r4, #1
    a16a:	0023      	movs	r3, r4
    a16c:	4694      	mov	ip, r2
    a16e:	4463      	add	r3, ip
    a170:	9308      	str	r3, [sp, #32]
    a172:	2301      	movs	r3, #1
    a174:	4033      	ands	r3, r6
    a176:	9307      	str	r3, [sp, #28]
    a178:	464b      	mov	r3, r9
    a17a:	9306      	str	r3, [sp, #24]
    a17c:	9b0c      	ldr	r3, [sp, #48]	; 0x30
    a17e:	4657      	mov	r7, sl
    a180:	4645      	mov	r5, r8
    a182:	465e      	mov	r6, fp
    a184:	4692      	mov	sl, r2
    a186:	4698      	mov	r8, r3
    a188:	9b06      	ldr	r3, [sp, #24]
    a18a:	0030      	movs	r0, r6
    a18c:	0019      	movs	r1, r3
    a18e:	4699      	mov	r9, r3
    a190:	f7ff fb1c 	bl	97cc <quorem>
    a194:	0003      	movs	r3, r0
    a196:	900b      	str	r0, [sp, #44]	; 0x2c
    a198:	3330      	adds	r3, #48	; 0x30
    a19a:	0029      	movs	r1, r5
    a19c:	0030      	movs	r0, r6
    a19e:	9304      	str	r3, [sp, #16]
    a1a0:	f001 f926 	bl	b3f0 <__mcmp>
    a1a4:	4649      	mov	r1, r9
    a1a6:	0004      	movs	r4, r0
    a1a8:	4642      	mov	r2, r8
    a1aa:	0038      	movs	r0, r7
    a1ac:	f001 f93a 	bl	b424 <__mdiff>
    a1b0:	68c3      	ldr	r3, [r0, #12]
    a1b2:	4681      	mov	r9, r0
    a1b4:	2b00      	cmp	r3, #0
    a1b6:	d000      	beq.n	a1ba <_dtoa_r+0x89a>
    a1b8:	e11e      	b.n	a3f8 <_dtoa_r+0xad8>
    a1ba:	0001      	movs	r1, r0
    a1bc:	0030      	movs	r0, r6
    a1be:	f001 f917 	bl	b3f0 <__mcmp>
    a1c2:	4683      	mov	fp, r0
    a1c4:	4649      	mov	r1, r9
    a1c6:	0038      	movs	r0, r7
    a1c8:	f000 ff06 	bl	afd8 <_Bfree>
    a1cc:	465b      	mov	r3, fp
    a1ce:	9a22      	ldr	r2, [sp, #136]	; 0x88
    a1d0:	4313      	orrs	r3, r2
    a1d2:	d103      	bne.n	a1dc <_dtoa_r+0x8bc>
    a1d4:	9b07      	ldr	r3, [sp, #28]
    a1d6:	2b00      	cmp	r3, #0
    a1d8:	d100      	bne.n	a1dc <_dtoa_r+0x8bc>
    a1da:	e306      	b.n	a7ea <_dtoa_r+0xeca>
    a1dc:	2c00      	cmp	r4, #0
    a1de:	da00      	bge.n	a1e2 <_dtoa_r+0x8c2>
    a1e0:	e1a8      	b.n	a534 <_dtoa_r+0xc14>
    a1e2:	9b22      	ldr	r3, [sp, #136]	; 0x88
    a1e4:	431c      	orrs	r4, r3
    a1e6:	d103      	bne.n	a1f0 <_dtoa_r+0x8d0>
    a1e8:	9b07      	ldr	r3, [sp, #28]
    a1ea:	2b00      	cmp	r3, #0
    a1ec:	d100      	bne.n	a1f0 <_dtoa_r+0x8d0>
    a1ee:	e1a1      	b.n	a534 <_dtoa_r+0xc14>
    a1f0:	465b      	mov	r3, fp
    a1f2:	2b00      	cmp	r3, #0
    a1f4:	dd00      	ble.n	a1f8 <_dtoa_r+0x8d8>
    a1f6:	e282      	b.n	a6fe <_dtoa_r+0xdde>
    a1f8:	4669      	mov	r1, sp
    a1fa:	4652      	mov	r2, sl
    a1fc:	4653      	mov	r3, sl
    a1fe:	7c09      	ldrb	r1, [r1, #16]
    a200:	1c5c      	adds	r4, r3, #1
    a202:	7011      	strb	r1, [r2, #0]
    a204:	9a08      	ldr	r2, [sp, #32]
    a206:	4552      	cmp	r2, sl
    a208:	d100      	bne.n	a20c <_dtoa_r+0x8ec>
    a20a:	e28a      	b.n	a722 <_dtoa_r+0xe02>
    a20c:	0031      	movs	r1, r6
    a20e:	2300      	movs	r3, #0
    a210:	220a      	movs	r2, #10
    a212:	0038      	movs	r0, r7
    a214:	f000 feea 	bl	afec <__multadd>
    a218:	2300      	movs	r3, #0
    a21a:	0006      	movs	r6, r0
    a21c:	220a      	movs	r2, #10
    a21e:	0029      	movs	r1, r5
    a220:	0038      	movs	r0, r7
    a222:	4545      	cmp	r5, r8
    a224:	d100      	bne.n	a228 <_dtoa_r+0x908>
    a226:	e0e1      	b.n	a3ec <_dtoa_r+0xacc>
    a228:	f000 fee0 	bl	afec <__multadd>
    a22c:	4641      	mov	r1, r8
    a22e:	0005      	movs	r5, r0
    a230:	2300      	movs	r3, #0
    a232:	220a      	movs	r2, #10
    a234:	0038      	movs	r0, r7
    a236:	f000 fed9 	bl	afec <__multadd>
    a23a:	46a2      	mov	sl, r4
    a23c:	4680      	mov	r8, r0
    a23e:	e7a3      	b.n	a188 <_dtoa_r+0x868>
    a240:	201c      	movs	r0, #28
    a242:	9b06      	ldr	r3, [sp, #24]
    a244:	469c      	mov	ip, r3
    a246:	4484      	add	ip, r0
    a248:	4663      	mov	r3, ip
    a24a:	9306      	str	r3, [sp, #24]
    a24c:	9b08      	ldr	r3, [sp, #32]
    a24e:	469c      	mov	ip, r3
    a250:	4484      	add	ip, r0
    a252:	4663      	mov	r3, ip
    a254:	9308      	str	r3, [sp, #32]
    a256:	9b04      	ldr	r3, [sp, #16]
    a258:	469c      	mov	ip, r3
    a25a:	4484      	add	ip, r0
    a25c:	4663      	mov	r3, ip
    a25e:	9304      	str	r3, [sp, #16]
    a260:	e754      	b.n	a10c <_dtoa_r+0x7ec>
    a262:	4649      	mov	r1, r9
    a264:	4658      	mov	r0, fp
    a266:	f001 f8c3 	bl	b3f0 <__mcmp>
    a26a:	2800      	cmp	r0, #0
    a26c:	db00      	blt.n	a270 <_dtoa_r+0x950>
    a26e:	e763      	b.n	a138 <_dtoa_r+0x818>
    a270:	9b03      	ldr	r3, [sp, #12]
    a272:	4659      	mov	r1, fp
    a274:	3b01      	subs	r3, #1
    a276:	9303      	str	r3, [sp, #12]
    a278:	220a      	movs	r2, #10
    a27a:	2300      	movs	r3, #0
    a27c:	4650      	mov	r0, sl
    a27e:	f000 feb5 	bl	afec <__multadd>
    a282:	9b0b      	ldr	r3, [sp, #44]	; 0x2c
    a284:	4683      	mov	fp, r0
    a286:	2b00      	cmp	r3, #0
    a288:	d000      	beq.n	a28c <_dtoa_r+0x96c>
    a28a:	e2ca      	b.n	a822 <_dtoa_r+0xf02>
    a28c:	9b0e      	ldr	r3, [sp, #56]	; 0x38
    a28e:	2b00      	cmp	r3, #0
    a290:	dc00      	bgt.n	a294 <_dtoa_r+0x974>
    a292:	e2d8      	b.n	a846 <_dtoa_r+0xf26>
    a294:	9307      	str	r3, [sp, #28]
    a296:	9b0a      	ldr	r3, [sp, #40]	; 0x28
    a298:	465d      	mov	r5, fp
    a29a:	2400      	movs	r4, #0
    a29c:	9f07      	ldr	r7, [sp, #28]
    a29e:	469b      	mov	fp, r3
    a2a0:	e006      	b.n	a2b0 <_dtoa_r+0x990>
    a2a2:	0029      	movs	r1, r5
    a2a4:	2300      	movs	r3, #0
    a2a6:	220a      	movs	r2, #10
    a2a8:	4650      	mov	r0, sl
    a2aa:	f000 fe9f 	bl	afec <__multadd>
    a2ae:	0005      	movs	r5, r0
    a2b0:	4649      	mov	r1, r9
    a2b2:	0028      	movs	r0, r5
    a2b4:	f7ff fa8a 	bl	97cc <quorem>
    a2b8:	465b      	mov	r3, fp
    a2ba:	3030      	adds	r0, #48	; 0x30
    a2bc:	5518      	strb	r0, [r3, r4]
    a2be:	3401      	adds	r4, #1
    a2c0:	42bc      	cmp	r4, r7
    a2c2:	dbee      	blt.n	a2a2 <_dtoa_r+0x982>
    a2c4:	46ab      	mov	fp, r5
    a2c6:	0006      	movs	r6, r0
    a2c8:	9c07      	ldr	r4, [sp, #28]
    a2ca:	2c00      	cmp	r4, #0
    a2cc:	dc00      	bgt.n	a2d0 <_dtoa_r+0x9b0>
    a2ce:	e237      	b.n	a740 <_dtoa_r+0xe20>
    a2d0:	9b0a      	ldr	r3, [sp, #40]	; 0x28
    a2d2:	2700      	movs	r7, #0
    a2d4:	469c      	mov	ip, r3
    a2d6:	4464      	add	r4, ip
    a2d8:	4659      	mov	r1, fp
    a2da:	2201      	movs	r2, #1
    a2dc:	4650      	mov	r0, sl
    a2de:	f001 f827 	bl	b330 <__lshift>
    a2e2:	4649      	mov	r1, r9
    a2e4:	4683      	mov	fp, r0
    a2e6:	f001 f883 	bl	b3f0 <__mcmp>
    a2ea:	2800      	cmp	r0, #0
    a2ec:	dc00      	bgt.n	a2f0 <_dtoa_r+0x9d0>
    a2ee:	e144      	b.n	a57a <_dtoa_r+0xc5a>
    a2f0:	1e65      	subs	r5, r4, #1
    a2f2:	782b      	ldrb	r3, [r5, #0]
    a2f4:	9a0a      	ldr	r2, [sp, #40]	; 0x28
    a2f6:	e006      	b.n	a306 <_dtoa_r+0x9e6>
    a2f8:	4295      	cmp	r5, r2
    a2fa:	d100      	bne.n	a2fe <_dtoa_r+0x9de>
    a2fc:	e0b1      	b.n	a462 <_dtoa_r+0xb42>
    a2fe:	3c02      	subs	r4, #2
    a300:	7823      	ldrb	r3, [r4, #0]
    a302:	002c      	movs	r4, r5
    a304:	3d01      	subs	r5, #1
    a306:	2b39      	cmp	r3, #57	; 0x39
    a308:	d0f6      	beq.n	a2f8 <_dtoa_r+0x9d8>
    a30a:	3301      	adds	r3, #1
    a30c:	702b      	strb	r3, [r5, #0]
    a30e:	4649      	mov	r1, r9
    a310:	4650      	mov	r0, sl
    a312:	f000 fe61 	bl	afd8 <_Bfree>
    a316:	4643      	mov	r3, r8
    a318:	2b00      	cmp	r3, #0
    a31a:	d100      	bne.n	a31e <_dtoa_r+0x9fe>
    a31c:	e52f      	b.n	9d7e <_dtoa_r+0x45e>
    a31e:	2f00      	cmp	r7, #0
    a320:	d005      	beq.n	a32e <_dtoa_r+0xa0e>
    a322:	4547      	cmp	r7, r8
    a324:	d003      	beq.n	a32e <_dtoa_r+0xa0e>
    a326:	0039      	movs	r1, r7
    a328:	4650      	mov	r0, sl
    a32a:	f000 fe55 	bl	afd8 <_Bfree>
    a32e:	4641      	mov	r1, r8
    a330:	4650      	mov	r0, sl
    a332:	f000 fe51 	bl	afd8 <_Bfree>
    a336:	e522      	b.n	9d7e <_dtoa_r+0x45e>
    a338:	0013      	movs	r3, r2
    a33a:	e675      	b.n	a028 <_dtoa_r+0x708>
    a33c:	2e00      	cmp	r6, #0
    a33e:	d000      	beq.n	a342 <_dtoa_r+0xa22>
    a340:	e6ab      	b.n	a09a <_dtoa_r+0x77a>
    a342:	033b      	lsls	r3, r7, #12
    a344:	2400      	movs	r4, #0
    a346:	2b00      	cmp	r3, #0
    a348:	d000      	beq.n	a34c <_dtoa_r+0xa2c>
    a34a:	e6bf      	b.n	a0cc <_dtoa_r+0x7ac>
    a34c:	4bba      	ldr	r3, [pc, #744]	; (a638 <_dtoa_r+0xd18>)
    a34e:	423b      	tst	r3, r7
    a350:	d100      	bne.n	a354 <_dtoa_r+0xa34>
    a352:	e6bb      	b.n	a0cc <_dtoa_r+0x7ac>
    a354:	9b06      	ldr	r3, [sp, #24]
    a356:	3401      	adds	r4, #1
    a358:	3301      	adds	r3, #1
    a35a:	9306      	str	r3, [sp, #24]
    a35c:	9b04      	ldr	r3, [sp, #16]
    a35e:	3301      	adds	r3, #1
    a360:	9304      	str	r3, [sp, #16]
    a362:	e6b3      	b.n	a0cc <_dtoa_r+0x7ac>
    a364:	2301      	movs	r3, #1
    a366:	930b      	str	r3, [sp, #44]	; 0x2c
    a368:	9b23      	ldr	r3, [sp, #140]	; 0x8c
    a36a:	2b00      	cmp	r3, #0
    a36c:	dc00      	bgt.n	a370 <_dtoa_r+0xa50>
    a36e:	e0d1      	b.n	a514 <_dtoa_r+0xbf4>
    a370:	001d      	movs	r5, r3
    a372:	4698      	mov	r8, r3
    a374:	930e      	str	r3, [sp, #56]	; 0x38
    a376:	9307      	str	r3, [sp, #28]
    a378:	f7ff fbc8 	bl	9b0c <_dtoa_r+0x1ec>
    a37c:	9b07      	ldr	r3, [sp, #28]
    a37e:	2b00      	cmp	r3, #0
    a380:	dd00      	ble.n	a384 <_dtoa_r+0xa64>
    a382:	e553      	b.n	9e2c <_dtoa_r+0x50c>
    a384:	d000      	beq.n	a388 <_dtoa_r+0xa68>
    a386:	e0ad      	b.n	a4e4 <_dtoa_r+0xbc4>
    a388:	9804      	ldr	r0, [sp, #16]
    a38a:	9905      	ldr	r1, [sp, #20]
    a38c:	2200      	movs	r2, #0
    a38e:	4bab      	ldr	r3, [pc, #684]	; (a63c <_dtoa_r+0xd1c>)
    a390:	f7fc fb3c 	bl	6a0c <__aeabi_dmul>
    a394:	003b      	movs	r3, r7
    a396:	0032      	movs	r2, r6
    a398:	f7fb fb7a 	bl	5a90 <__aeabi_dcmpge>
    a39c:	2300      	movs	r3, #0
    a39e:	4699      	mov	r9, r3
    a3a0:	4698      	mov	r8, r3
    a3a2:	2800      	cmp	r0, #0
    a3a4:	d055      	beq.n	a452 <_dtoa_r+0xb32>
    a3a6:	9b23      	ldr	r3, [sp, #140]	; 0x8c
    a3a8:	9c0a      	ldr	r4, [sp, #40]	; 0x28
    a3aa:	43db      	mvns	r3, r3
    a3ac:	9303      	str	r3, [sp, #12]
    a3ae:	4649      	mov	r1, r9
    a3b0:	4650      	mov	r0, sl
    a3b2:	f000 fe11 	bl	afd8 <_Bfree>
    a3b6:	4643      	mov	r3, r8
    a3b8:	2b00      	cmp	r3, #0
    a3ba:	d100      	bne.n	a3be <_dtoa_r+0xa9e>
    a3bc:	e4df      	b.n	9d7e <_dtoa_r+0x45e>
    a3be:	e7b6      	b.n	a32e <_dtoa_r+0xa0e>
    a3c0:	464a      	mov	r2, r9
    a3c2:	4659      	mov	r1, fp
    a3c4:	4650      	mov	r0, sl
    a3c6:	f000 ff53 	bl	b270 <__pow5mult>
    a3ca:	4683      	mov	fp, r0
    a3cc:	e653      	b.n	a076 <_dtoa_r+0x756>
    a3ce:	9a0f      	ldr	r2, [sp, #60]	; 0x3c
    a3d0:	2a00      	cmp	r2, #0
    a3d2:	d100      	bne.n	a3d6 <_dtoa_r+0xab6>
    a3d4:	e1b6      	b.n	a744 <_dtoa_r+0xe24>
    a3d6:	4a9a      	ldr	r2, [pc, #616]	; (a640 <_dtoa_r+0xd20>)
    a3d8:	464c      	mov	r4, r9
    a3da:	4694      	mov	ip, r2
    a3dc:	9a06      	ldr	r2, [sp, #24]
    a3de:	4463      	add	r3, ip
    a3e0:	9208      	str	r2, [sp, #32]
    a3e2:	e5d5      	b.n	9f90 <_dtoa_r+0x670>
    a3e4:	2e00      	cmp	r6, #0
    a3e6:	d000      	beq.n	a3ea <_dtoa_r+0xaca>
    a3e8:	e670      	b.n	a0cc <_dtoa_r+0x7ac>
    a3ea:	e7aa      	b.n	a342 <_dtoa_r+0xa22>
    a3ec:	f000 fdfe 	bl	afec <__multadd>
    a3f0:	46a2      	mov	sl, r4
    a3f2:	0005      	movs	r5, r0
    a3f4:	4680      	mov	r8, r0
    a3f6:	e6c7      	b.n	a188 <_dtoa_r+0x868>
    a3f8:	2301      	movs	r3, #1
    a3fa:	469b      	mov	fp, r3
    a3fc:	e6e2      	b.n	a1c4 <_dtoa_r+0x8a4>
    a3fe:	2300      	movs	r3, #0
    a400:	930b      	str	r3, [sp, #44]	; 0x2c
    a402:	9b22      	ldr	r3, [sp, #136]	; 0x88
    a404:	2b02      	cmp	r3, #2
    a406:	d0af      	beq.n	a368 <_dtoa_r+0xa48>
    a408:	2400      	movs	r4, #0
    a40a:	4653      	mov	r3, sl
    a40c:	0021      	movs	r1, r4
    a40e:	645c      	str	r4, [r3, #68]	; 0x44
    a410:	4650      	mov	r0, sl
    a412:	f000 fdb9 	bl	af88 <_Balloc>
    a416:	4653      	mov	r3, sl
    a418:	6418      	str	r0, [r3, #64]	; 0x40
    a41a:	2301      	movs	r3, #1
    a41c:	425b      	negs	r3, r3
    a41e:	9307      	str	r3, [sp, #28]
    a420:	930e      	str	r3, [sp, #56]	; 0x38
    a422:	3302      	adds	r3, #2
    a424:	900a      	str	r0, [sp, #40]	; 0x28
    a426:	9423      	str	r4, [sp, #140]	; 0x8c
    a428:	930b      	str	r3, [sp, #44]	; 0x2c
    a42a:	e4ec      	b.n	9e06 <_dtoa_r+0x4e6>
    a42c:	9b22      	ldr	r3, [sp, #136]	; 0x88
    a42e:	2b02      	cmp	r3, #2
    a430:	dc00      	bgt.n	a434 <_dtoa_r+0xb14>
    a432:	e685      	b.n	a140 <_dtoa_r+0x820>
    a434:	9b07      	ldr	r3, [sp, #28]
    a436:	2b00      	cmp	r3, #0
    a438:	d1b5      	bne.n	a3a6 <_dtoa_r+0xa86>
    a43a:	4649      	mov	r1, r9
    a43c:	2205      	movs	r2, #5
    a43e:	4650      	mov	r0, sl
    a440:	f000 fdd4 	bl	afec <__multadd>
    a444:	4681      	mov	r9, r0
    a446:	0001      	movs	r1, r0
    a448:	4658      	mov	r0, fp
    a44a:	f000 ffd1 	bl	b3f0 <__mcmp>
    a44e:	2800      	cmp	r0, #0
    a450:	dda9      	ble.n	a3a6 <_dtoa_r+0xa86>
    a452:	2331      	movs	r3, #49	; 0x31
    a454:	9a0a      	ldr	r2, [sp, #40]	; 0x28
    a456:	7013      	strb	r3, [r2, #0]
    a458:	9b03      	ldr	r3, [sp, #12]
    a45a:	1c54      	adds	r4, r2, #1
    a45c:	3301      	adds	r3, #1
    a45e:	9303      	str	r3, [sp, #12]
    a460:	e7a5      	b.n	a3ae <_dtoa_r+0xa8e>
    a462:	9b03      	ldr	r3, [sp, #12]
    a464:	9a0a      	ldr	r2, [sp, #40]	; 0x28
    a466:	3301      	adds	r3, #1
    a468:	9303      	str	r3, [sp, #12]
    a46a:	2331      	movs	r3, #49	; 0x31
    a46c:	7013      	strb	r3, [r2, #0]
    a46e:	e74e      	b.n	a30e <_dtoa_r+0x9ee>
    a470:	2300      	movs	r3, #0
    a472:	930b      	str	r3, [sp, #44]	; 0x2c
    a474:	f7ff fb3d 	bl	9af2 <_dtoa_r+0x1d2>
    a478:	9b06      	ldr	r3, [sp, #24]
    a47a:	465c      	mov	r4, fp
    a47c:	469b      	mov	fp, r3
    a47e:	9b07      	ldr	r3, [sp, #28]
    a480:	469a      	mov	sl, r3
    a482:	e47c      	b.n	9d7e <_dtoa_r+0x45e>
    a484:	4640      	mov	r0, r8
    a486:	f7fd f8ab 	bl	75e0 <__aeabi_i2d>
    a48a:	0032      	movs	r2, r6
    a48c:	003b      	movs	r3, r7
    a48e:	f7fc fabd 	bl	6a0c <__aeabi_dmul>
    a492:	2200      	movs	r2, #0
    a494:	4b6b      	ldr	r3, [pc, #428]	; (a644 <_dtoa_r+0xd24>)
    a496:	f7fb fb75 	bl	5b84 <__aeabi_dadd>
    a49a:	4a6b      	ldr	r2, [pc, #428]	; (a648 <_dtoa_r+0xd28>)
    a49c:	000b      	movs	r3, r1
    a49e:	4694      	mov	ip, r2
    a4a0:	4463      	add	r3, ip
    a4a2:	9008      	str	r0, [sp, #32]
    a4a4:	9109      	str	r1, [sp, #36]	; 0x24
    a4a6:	9309      	str	r3, [sp, #36]	; 0x24
    a4a8:	2200      	movs	r2, #0
    a4aa:	4b64      	ldr	r3, [pc, #400]	; (a63c <_dtoa_r+0xd1c>)
    a4ac:	0030      	movs	r0, r6
    a4ae:	0039      	movs	r1, r7
    a4b0:	f7fc fd2c 	bl	6f0c <__aeabi_dsub>
    a4b4:	9e08      	ldr	r6, [sp, #32]
    a4b6:	9f09      	ldr	r7, [sp, #36]	; 0x24
    a4b8:	0032      	movs	r2, r6
    a4ba:	003b      	movs	r3, r7
    a4bc:	0004      	movs	r4, r0
    a4be:	000d      	movs	r5, r1
    a4c0:	f7fb fadc 	bl	5a7c <__aeabi_dcmpgt>
    a4c4:	2800      	cmp	r0, #0
    a4c6:	d000      	beq.n	a4ca <_dtoa_r+0xbaa>
    a4c8:	e0b2      	b.n	a630 <_dtoa_r+0xd10>
    a4ca:	2080      	movs	r0, #128	; 0x80
    a4cc:	0600      	lsls	r0, r0, #24
    a4ce:	4684      	mov	ip, r0
    a4d0:	0039      	movs	r1, r7
    a4d2:	4461      	add	r1, ip
    a4d4:	000b      	movs	r3, r1
    a4d6:	0032      	movs	r2, r6
    a4d8:	0020      	movs	r0, r4
    a4da:	0029      	movs	r1, r5
    a4dc:	f7fb faba 	bl	5a54 <__aeabi_dcmplt>
    a4e0:	2800      	cmp	r0, #0
    a4e2:	d057      	beq.n	a594 <_dtoa_r+0xc74>
    a4e4:	2300      	movs	r3, #0
    a4e6:	4699      	mov	r9, r3
    a4e8:	4698      	mov	r8, r3
    a4ea:	e75c      	b.n	a3a6 <_dtoa_r+0xa86>
    a4ec:	980a      	ldr	r0, [sp, #40]	; 0x28
    a4ee:	f7ff fa4c 	bl	998a <_dtoa_r+0x6a>
    a4f2:	1ae2      	subs	r2, r4, r3
    a4f4:	9b0d      	ldr	r3, [sp, #52]	; 0x34
    a4f6:	46a1      	mov	r9, r4
    a4f8:	469c      	mov	ip, r3
    a4fa:	4494      	add	ip, r2
    a4fc:	4663      	mov	r3, ip
    a4fe:	2400      	movs	r4, #0
    a500:	930d      	str	r3, [sp, #52]	; 0x34
    a502:	e53e      	b.n	9f82 <_dtoa_r+0x662>
    a504:	9a10      	ldr	r2, [sp, #64]	; 0x40
    a506:	9b11      	ldr	r3, [sp, #68]	; 0x44
    a508:	9208      	str	r2, [sp, #32]
    a50a:	9309      	str	r3, [sp, #36]	; 0x24
    a50c:	2302      	movs	r3, #2
    a50e:	4698      	mov	r8, r3
    a510:	f7ff fb3a 	bl	9b88 <_dtoa_r+0x268>
    a514:	2300      	movs	r3, #0
    a516:	4652      	mov	r2, sl
    a518:	2100      	movs	r1, #0
    a51a:	6453      	str	r3, [r2, #68]	; 0x44
    a51c:	4650      	mov	r0, sl
    a51e:	f000 fd33 	bl	af88 <_Balloc>
    a522:	4653      	mov	r3, sl
    a524:	6418      	str	r0, [r3, #64]	; 0x40
    a526:	2301      	movs	r3, #1
    a528:	900a      	str	r0, [sp, #40]	; 0x28
    a52a:	9307      	str	r3, [sp, #28]
    a52c:	9323      	str	r3, [sp, #140]	; 0x8c
    a52e:	930e      	str	r3, [sp, #56]	; 0x38
    a530:	f7ff fb07 	bl	9b42 <_dtoa_r+0x222>
    a534:	4643      	mov	r3, r8
    a536:	930c      	str	r3, [sp, #48]	; 0x30
    a538:	465b      	mov	r3, fp
    a53a:	9a06      	ldr	r2, [sp, #24]
    a53c:	46a8      	mov	r8, r5
    a53e:	46b3      	mov	fp, r6
    a540:	4655      	mov	r5, sl
    a542:	9e04      	ldr	r6, [sp, #16]
    a544:	4691      	mov	r9, r2
    a546:	46ba      	mov	sl, r7
    a548:	2b00      	cmp	r3, #0
    a54a:	dd10      	ble.n	a56e <_dtoa_r+0xc4e>
    a54c:	4659      	mov	r1, fp
    a54e:	2201      	movs	r2, #1
    a550:	0038      	movs	r0, r7
    a552:	f000 feed 	bl	b330 <__lshift>
    a556:	4649      	mov	r1, r9
    a558:	4683      	mov	fp, r0
    a55a:	f000 ff49 	bl	b3f0 <__mcmp>
    a55e:	2800      	cmp	r0, #0
    a560:	dc00      	bgt.n	a564 <_dtoa_r+0xc44>
    a562:	e157      	b.n	a814 <_dtoa_r+0xef4>
    a564:	2e39      	cmp	r6, #57	; 0x39
    a566:	d100      	bne.n	a56a <_dtoa_r+0xc4a>
    a568:	e122      	b.n	a7b0 <_dtoa_r+0xe90>
    a56a:	9e0b      	ldr	r6, [sp, #44]	; 0x2c
    a56c:	3631      	adds	r6, #49	; 0x31
    a56e:	9b0c      	ldr	r3, [sp, #48]	; 0x30
    a570:	4647      	mov	r7, r8
    a572:	1c6c      	adds	r4, r5, #1
    a574:	702e      	strb	r6, [r5, #0]
    a576:	4698      	mov	r8, r3
    a578:	e6c9      	b.n	a30e <_dtoa_r+0x9ee>
    a57a:	2800      	cmp	r0, #0
    a57c:	d103      	bne.n	a586 <_dtoa_r+0xc66>
    a57e:	07f3      	lsls	r3, r6, #31
    a580:	d501      	bpl.n	a586 <_dtoa_r+0xc66>
    a582:	e6b5      	b.n	a2f0 <_dtoa_r+0x9d0>
    a584:	001c      	movs	r4, r3
    a586:	1e63      	subs	r3, r4, #1
    a588:	781a      	ldrb	r2, [r3, #0]
    a58a:	2a30      	cmp	r2, #48	; 0x30
    a58c:	d0fa      	beq.n	a584 <_dtoa_r+0xc64>
    a58e:	e6be      	b.n	a30e <_dtoa_r+0x9ee>
    a590:	9b12      	ldr	r3, [sp, #72]	; 0x48
    a592:	4699      	mov	r9, r3
    a594:	9e10      	ldr	r6, [sp, #64]	; 0x40
    a596:	9f11      	ldr	r7, [sp, #68]	; 0x44
    a598:	e435      	b.n	9e06 <_dtoa_r+0x4e6>
    a59a:	2501      	movs	r5, #1
    a59c:	f7ff fab4 	bl	9b08 <_dtoa_r+0x1e8>
    a5a0:	9b03      	ldr	r3, [sp, #12]
    a5a2:	2b00      	cmp	r3, #0
    a5a4:	d100      	bne.n	a5a8 <_dtoa_r+0xc88>
    a5a6:	e0d4      	b.n	a752 <_dtoa_r+0xe32>
    a5a8:	9810      	ldr	r0, [sp, #64]	; 0x40
    a5aa:	9911      	ldr	r1, [sp, #68]	; 0x44
    a5ac:	425c      	negs	r4, r3
    a5ae:	230f      	movs	r3, #15
    a5b0:	4a26      	ldr	r2, [pc, #152]	; (a64c <_dtoa_r+0xd2c>)
    a5b2:	4023      	ands	r3, r4
    a5b4:	00db      	lsls	r3, r3, #3
    a5b6:	18d3      	adds	r3, r2, r3
    a5b8:	681a      	ldr	r2, [r3, #0]
    a5ba:	685b      	ldr	r3, [r3, #4]
    a5bc:	f7fc fa26 	bl	6a0c <__aeabi_dmul>
    a5c0:	1124      	asrs	r4, r4, #4
    a5c2:	0006      	movs	r6, r0
    a5c4:	000f      	movs	r7, r1
    a5c6:	2c00      	cmp	r4, #0
    a5c8:	d100      	bne.n	a5cc <_dtoa_r+0xcac>
    a5ca:	e149      	b.n	a860 <_dtoa_r+0xf40>
    a5cc:	2302      	movs	r3, #2
    a5ce:	4698      	mov	r8, r3
    a5d0:	4d1f      	ldr	r5, [pc, #124]	; (a650 <_dtoa_r+0xd30>)
    a5d2:	2301      	movs	r3, #1
    a5d4:	4223      	tst	r3, r4
    a5d6:	d009      	beq.n	a5ec <_dtoa_r+0xccc>
    a5d8:	469c      	mov	ip, r3
    a5da:	682a      	ldr	r2, [r5, #0]
    a5dc:	686b      	ldr	r3, [r5, #4]
    a5de:	0030      	movs	r0, r6
    a5e0:	0039      	movs	r1, r7
    a5e2:	44e0      	add	r8, ip
    a5e4:	f7fc fa12 	bl	6a0c <__aeabi_dmul>
    a5e8:	0006      	movs	r6, r0
    a5ea:	000f      	movs	r7, r1
    a5ec:	1064      	asrs	r4, r4, #1
    a5ee:	3508      	adds	r5, #8
    a5f0:	2c00      	cmp	r4, #0
    a5f2:	d1ee      	bne.n	a5d2 <_dtoa_r+0xcb2>
    a5f4:	f7ff fae4 	bl	9bc0 <_dtoa_r+0x2a0>
    a5f8:	9b03      	ldr	r3, [sp, #12]
    a5fa:	2730      	movs	r7, #48	; 0x30
    a5fc:	3301      	adds	r3, #1
    a5fe:	9303      	str	r3, [sp, #12]
    a600:	2330      	movs	r3, #48	; 0x30
    a602:	702b      	strb	r3, [r5, #0]
    a604:	e4ac      	b.n	9f60 <_dtoa_r+0x640>
    a606:	6859      	ldr	r1, [r3, #4]
    a608:	4650      	mov	r0, sl
    a60a:	f000 fcbd 	bl	af88 <_Balloc>
    a60e:	4643      	mov	r3, r8
    a610:	4641      	mov	r1, r8
    a612:	0004      	movs	r4, r0
    a614:	691b      	ldr	r3, [r3, #16]
    a616:	310c      	adds	r1, #12
    a618:	1c9a      	adds	r2, r3, #2
    a61a:	0092      	lsls	r2, r2, #2
    a61c:	300c      	adds	r0, #12
    a61e:	f7fd f983 	bl	7928 <memcpy>
    a622:	2201      	movs	r2, #1
    a624:	0021      	movs	r1, r4
    a626:	4650      	mov	r0, sl
    a628:	f000 fe82 	bl	b330 <__lshift>
    a62c:	900c      	str	r0, [sp, #48]	; 0x30
    a62e:	e599      	b.n	a164 <_dtoa_r+0x844>
    a630:	2300      	movs	r3, #0
    a632:	4699      	mov	r9, r3
    a634:	4698      	mov	r8, r3
    a636:	e70c      	b.n	a452 <_dtoa_r+0xb32>
    a638:	7ff00000 	.word	0x7ff00000
    a63c:	40140000 	.word	0x40140000
    a640:	00000433 	.word	0x00000433
    a644:	401c0000 	.word	0x401c0000
    a648:	fcc00000 	.word	0xfcc00000
    a64c:	0000d638 	.word	0x0000d638
    a650:	0000d610 	.word	0x0000d610
    a654:	9b12      	ldr	r3, [sp, #72]	; 0x48
    a656:	498f      	ldr	r1, [pc, #572]	; (a894 <_dtoa_r+0xf74>)
    a658:	3b01      	subs	r3, #1
    a65a:	00db      	lsls	r3, r3, #3
    a65c:	18c9      	adds	r1, r1, r3
    a65e:	6808      	ldr	r0, [r1, #0]
    a660:	6849      	ldr	r1, [r1, #4]
    a662:	9a08      	ldr	r2, [sp, #32]
    a664:	9b09      	ldr	r3, [sp, #36]	; 0x24
    a666:	f7fc f9d1 	bl	6a0c <__aeabi_dmul>
    a66a:	9014      	str	r0, [sp, #80]	; 0x50
    a66c:	9115      	str	r1, [sp, #84]	; 0x54
    a66e:	0039      	movs	r1, r7
    a670:	0030      	movs	r0, r6
    a672:	f7fc ff81 	bl	7578 <__aeabi_d2iz>
    a676:	0005      	movs	r5, r0
    a678:	f7fc ffb2 	bl	75e0 <__aeabi_i2d>
    a67c:	0002      	movs	r2, r0
    a67e:	000b      	movs	r3, r1
    a680:	0030      	movs	r0, r6
    a682:	0039      	movs	r1, r7
    a684:	f7fc fc42 	bl	6f0c <__aeabi_dsub>
    a688:	9b12      	ldr	r3, [sp, #72]	; 0x48
    a68a:	9008      	str	r0, [sp, #32]
    a68c:	9109      	str	r1, [sp, #36]	; 0x24
    a68e:	990a      	ldr	r1, [sp, #40]	; 0x28
    a690:	001a      	movs	r2, r3
    a692:	468c      	mov	ip, r1
    a694:	3530      	adds	r5, #48	; 0x30
    a696:	4462      	add	r2, ip
    a698:	1c4c      	adds	r4, r1, #1
    a69a:	700d      	strb	r5, [r1, #0]
    a69c:	4690      	mov	r8, r2
    a69e:	2b01      	cmp	r3, #1
    a6a0:	d01b      	beq.n	a6da <_dtoa_r+0xdba>
    a6a2:	9808      	ldr	r0, [sp, #32]
    a6a4:	9909      	ldr	r1, [sp, #36]	; 0x24
    a6a6:	0025      	movs	r5, r4
    a6a8:	2200      	movs	r2, #0
    a6aa:	4b7b      	ldr	r3, [pc, #492]	; (a898 <_dtoa_r+0xf78>)
    a6ac:	f7fc f9ae 	bl	6a0c <__aeabi_dmul>
    a6b0:	000f      	movs	r7, r1
    a6b2:	0006      	movs	r6, r0
    a6b4:	f7fc ff60 	bl	7578 <__aeabi_d2iz>
    a6b8:	0004      	movs	r4, r0
    a6ba:	f7fc ff91 	bl	75e0 <__aeabi_i2d>
    a6be:	3430      	adds	r4, #48	; 0x30
    a6c0:	0002      	movs	r2, r0
    a6c2:	000b      	movs	r3, r1
    a6c4:	0030      	movs	r0, r6
    a6c6:	0039      	movs	r1, r7
    a6c8:	f7fc fc20 	bl	6f0c <__aeabi_dsub>
    a6cc:	702c      	strb	r4, [r5, #0]
    a6ce:	3501      	adds	r5, #1
    a6d0:	45a8      	cmp	r8, r5
    a6d2:	d1e9      	bne.n	a6a8 <_dtoa_r+0xd88>
    a6d4:	4644      	mov	r4, r8
    a6d6:	9008      	str	r0, [sp, #32]
    a6d8:	9109      	str	r1, [sp, #36]	; 0x24
    a6da:	9814      	ldr	r0, [sp, #80]	; 0x50
    a6dc:	9915      	ldr	r1, [sp, #84]	; 0x54
    a6de:	2200      	movs	r2, #0
    a6e0:	4b6e      	ldr	r3, [pc, #440]	; (a89c <_dtoa_r+0xf7c>)
    a6e2:	f7fb fa4f 	bl	5b84 <__aeabi_dadd>
    a6e6:	9a08      	ldr	r2, [sp, #32]
    a6e8:	9b09      	ldr	r3, [sp, #36]	; 0x24
    a6ea:	f7fb f9b3 	bl	5a54 <__aeabi_dcmplt>
    a6ee:	2800      	cmp	r0, #0
    a6f0:	d067      	beq.n	a7c2 <_dtoa_r+0xea2>
    a6f2:	9b13      	ldr	r3, [sp, #76]	; 0x4c
    a6f4:	1e65      	subs	r5, r4, #1
    a6f6:	9303      	str	r3, [sp, #12]
    a6f8:	782f      	ldrb	r7, [r5, #0]
    a6fa:	9b0a      	ldr	r3, [sp, #40]	; 0x28
    a6fc:	e42e      	b.n	9f5c <_dtoa_r+0x63c>
    a6fe:	4643      	mov	r3, r8
    a700:	46b3      	mov	fp, r6
    a702:	930c      	str	r3, [sp, #48]	; 0x30
    a704:	9e04      	ldr	r6, [sp, #16]
    a706:	9b06      	ldr	r3, [sp, #24]
    a708:	46a8      	mov	r8, r5
    a70a:	4699      	mov	r9, r3
    a70c:	4655      	mov	r5, sl
    a70e:	46ba      	mov	sl, r7
    a710:	2e39      	cmp	r6, #57	; 0x39
    a712:	d04d      	beq.n	a7b0 <_dtoa_r+0xe90>
    a714:	9b0c      	ldr	r3, [sp, #48]	; 0x30
    a716:	3601      	adds	r6, #1
    a718:	4647      	mov	r7, r8
    a71a:	1c6c      	adds	r4, r5, #1
    a71c:	702e      	strb	r6, [r5, #0]
    a71e:	4698      	mov	r8, r3
    a720:	e5f5      	b.n	a30e <_dtoa_r+0x9ee>
    a722:	4642      	mov	r2, r8
    a724:	9b06      	ldr	r3, [sp, #24]
    a726:	46b3      	mov	fp, r6
    a728:	46ba      	mov	sl, r7
    a72a:	9e04      	ldr	r6, [sp, #16]
    a72c:	4699      	mov	r9, r3
    a72e:	002f      	movs	r7, r5
    a730:	4690      	mov	r8, r2
    a732:	e5d1      	b.n	a2d8 <_dtoa_r+0x9b8>
    a734:	9b06      	ldr	r3, [sp, #24]
    a736:	9a07      	ldr	r2, [sp, #28]
    a738:	1a9b      	subs	r3, r3, r2
    a73a:	9308      	str	r3, [sp, #32]
    a73c:	2300      	movs	r3, #0
    a73e:	e427      	b.n	9f90 <_dtoa_r+0x670>
    a740:	2401      	movs	r4, #1
    a742:	e5c5      	b.n	a2d0 <_dtoa_r+0x9b0>
    a744:	2336      	movs	r3, #54	; 0x36
    a746:	9a16      	ldr	r2, [sp, #88]	; 0x58
    a748:	464c      	mov	r4, r9
    a74a:	1a9b      	subs	r3, r3, r2
    a74c:	9a06      	ldr	r2, [sp, #24]
    a74e:	9208      	str	r2, [sp, #32]
    a750:	e41e      	b.n	9f90 <_dtoa_r+0x670>
    a752:	2302      	movs	r3, #2
    a754:	9e10      	ldr	r6, [sp, #64]	; 0x40
    a756:	9f11      	ldr	r7, [sp, #68]	; 0x44
    a758:	4698      	mov	r8, r3
    a75a:	f7ff fa31 	bl	9bc0 <_dtoa_r+0x2a0>
    a75e:	9b07      	ldr	r3, [sp, #28]
    a760:	2b00      	cmp	r3, #0
    a762:	d100      	bne.n	a766 <_dtoa_r+0xe46>
    a764:	e68e      	b.n	a484 <_dtoa_r+0xb64>
    a766:	9c0e      	ldr	r4, [sp, #56]	; 0x38
    a768:	2c00      	cmp	r4, #0
    a76a:	dc00      	bgt.n	a76e <_dtoa_r+0xe4e>
    a76c:	e712      	b.n	a594 <_dtoa_r+0xc74>
    a76e:	9b03      	ldr	r3, [sp, #12]
    a770:	2200      	movs	r2, #0
    a772:	3b01      	subs	r3, #1
    a774:	9313      	str	r3, [sp, #76]	; 0x4c
    a776:	0030      	movs	r0, r6
    a778:	4b47      	ldr	r3, [pc, #284]	; (a898 <_dtoa_r+0xf78>)
    a77a:	0039      	movs	r1, r7
    a77c:	f7fc f946 	bl	6a0c <__aeabi_dmul>
    a780:	0006      	movs	r6, r0
    a782:	4640      	mov	r0, r8
    a784:	000f      	movs	r7, r1
    a786:	3001      	adds	r0, #1
    a788:	f7fc ff2a 	bl	75e0 <__aeabi_i2d>
    a78c:	0032      	movs	r2, r6
    a78e:	003b      	movs	r3, r7
    a790:	f7fc f93c 	bl	6a0c <__aeabi_dmul>
    a794:	2200      	movs	r2, #0
    a796:	4b42      	ldr	r3, [pc, #264]	; (a8a0 <_dtoa_r+0xf80>)
    a798:	f7fb f9f4 	bl	5b84 <__aeabi_dadd>
    a79c:	4a41      	ldr	r2, [pc, #260]	; (a8a4 <_dtoa_r+0xf84>)
    a79e:	000b      	movs	r3, r1
    a7a0:	4694      	mov	ip, r2
    a7a2:	4463      	add	r3, ip
    a7a4:	9008      	str	r0, [sp, #32]
    a7a6:	9109      	str	r1, [sp, #36]	; 0x24
    a7a8:	9412      	str	r4, [sp, #72]	; 0x48
    a7aa:	9309      	str	r3, [sp, #36]	; 0x24
    a7ac:	f7ff fa30 	bl	9c10 <_dtoa_r+0x2f0>
    a7b0:	2339      	movs	r3, #57	; 0x39
    a7b2:	702b      	strb	r3, [r5, #0]
    a7b4:	9b0c      	ldr	r3, [sp, #48]	; 0x30
    a7b6:	4647      	mov	r7, r8
    a7b8:	1c6c      	adds	r4, r5, #1
    a7ba:	4698      	mov	r8, r3
    a7bc:	9a0a      	ldr	r2, [sp, #40]	; 0x28
    a7be:	2339      	movs	r3, #57	; 0x39
    a7c0:	e5a1      	b.n	a306 <_dtoa_r+0x9e6>
    a7c2:	9a14      	ldr	r2, [sp, #80]	; 0x50
    a7c4:	9b15      	ldr	r3, [sp, #84]	; 0x54
    a7c6:	2000      	movs	r0, #0
    a7c8:	4934      	ldr	r1, [pc, #208]	; (a89c <_dtoa_r+0xf7c>)
    a7ca:	f7fc fb9f 	bl	6f0c <__aeabi_dsub>
    a7ce:	9a08      	ldr	r2, [sp, #32]
    a7d0:	9b09      	ldr	r3, [sp, #36]	; 0x24
    a7d2:	f7fb f953 	bl	5a7c <__aeabi_dcmpgt>
    a7d6:	2800      	cmp	r0, #0
    a7d8:	d101      	bne.n	a7de <_dtoa_r+0xebe>
    a7da:	e6db      	b.n	a594 <_dtoa_r+0xc74>
    a7dc:	001c      	movs	r4, r3
    a7de:	1e63      	subs	r3, r4, #1
    a7e0:	781a      	ldrb	r2, [r3, #0]
    a7e2:	2a30      	cmp	r2, #48	; 0x30
    a7e4:	d0fa      	beq.n	a7dc <_dtoa_r+0xebc>
    a7e6:	f7ff fac8 	bl	9d7a <_dtoa_r+0x45a>
    a7ea:	4643      	mov	r3, r8
    a7ec:	46b3      	mov	fp, r6
    a7ee:	930c      	str	r3, [sp, #48]	; 0x30
    a7f0:	9e04      	ldr	r6, [sp, #16]
    a7f2:	9b06      	ldr	r3, [sp, #24]
    a7f4:	46a8      	mov	r8, r5
    a7f6:	4699      	mov	r9, r3
    a7f8:	4655      	mov	r5, sl
    a7fa:	46ba      	mov	sl, r7
    a7fc:	2e39      	cmp	r6, #57	; 0x39
    a7fe:	d0d7      	beq.n	a7b0 <_dtoa_r+0xe90>
    a800:	2c00      	cmp	r4, #0
    a802:	dd00      	ble.n	a806 <_dtoa_r+0xee6>
    a804:	e6b1      	b.n	a56a <_dtoa_r+0xc4a>
    a806:	e6b2      	b.n	a56e <_dtoa_r+0xc4e>
    a808:	9a13      	ldr	r2, [sp, #76]	; 0x4c
    a80a:	464d      	mov	r5, r9
    a80c:	9203      	str	r2, [sp, #12]
    a80e:	9b0a      	ldr	r3, [sp, #40]	; 0x28
    a810:	f7ff fba4 	bl	9f5c <_dtoa_r+0x63c>
    a814:	2800      	cmp	r0, #0
    a816:	d000      	beq.n	a81a <_dtoa_r+0xefa>
    a818:	e6a9      	b.n	a56e <_dtoa_r+0xc4e>
    a81a:	07f3      	lsls	r3, r6, #31
    a81c:	d400      	bmi.n	a820 <_dtoa_r+0xf00>
    a81e:	e6a6      	b.n	a56e <_dtoa_r+0xc4e>
    a820:	e6a0      	b.n	a564 <_dtoa_r+0xc44>
    a822:	2300      	movs	r3, #0
    a824:	4641      	mov	r1, r8
    a826:	220a      	movs	r2, #10
    a828:	4650      	mov	r0, sl
    a82a:	f000 fbdf 	bl	afec <__multadd>
    a82e:	9b0e      	ldr	r3, [sp, #56]	; 0x38
    a830:	4680      	mov	r8, r0
    a832:	2b00      	cmp	r3, #0
    a834:	dd01      	ble.n	a83a <_dtoa_r+0xf1a>
    a836:	9307      	str	r3, [sp, #28]
    a838:	e486      	b.n	a148 <_dtoa_r+0x828>
    a83a:	9b22      	ldr	r3, [sp, #136]	; 0x88
    a83c:	2b02      	cmp	r3, #2
    a83e:	dc1f      	bgt.n	a880 <_dtoa_r+0xf60>
    a840:	9b0e      	ldr	r3, [sp, #56]	; 0x38
    a842:	9307      	str	r3, [sp, #28]
    a844:	e480      	b.n	a148 <_dtoa_r+0x828>
    a846:	9b22      	ldr	r3, [sp, #136]	; 0x88
    a848:	2b02      	cmp	r3, #2
    a84a:	dc19      	bgt.n	a880 <_dtoa_r+0xf60>
    a84c:	4649      	mov	r1, r9
    a84e:	f7fe ffbd 	bl	97cc <quorem>
    a852:	9b0a      	ldr	r3, [sp, #40]	; 0x28
    a854:	3030      	adds	r0, #48	; 0x30
    a856:	7018      	strb	r0, [r3, #0]
    a858:	9b0e      	ldr	r3, [sp, #56]	; 0x38
    a85a:	0006      	movs	r6, r0
    a85c:	9307      	str	r3, [sp, #28]
    a85e:	e533      	b.n	a2c8 <_dtoa_r+0x9a8>
    a860:	2302      	movs	r3, #2
    a862:	4698      	mov	r8, r3
    a864:	f7ff f9ac 	bl	9bc0 <_dtoa_r+0x2a0>
    a868:	9b13      	ldr	r3, [sp, #76]	; 0x4c
    a86a:	9c14      	ldr	r4, [sp, #80]	; 0x50
    a86c:	9303      	str	r3, [sp, #12]
    a86e:	9b0a      	ldr	r3, [sp, #40]	; 0x28
    a870:	001d      	movs	r5, r3
    a872:	f7ff fb73 	bl	9f5c <_dtoa_r+0x63c>
    a876:	9b13      	ldr	r3, [sp, #76]	; 0x4c
    a878:	9c14      	ldr	r4, [sp, #80]	; 0x50
    a87a:	9303      	str	r3, [sp, #12]
    a87c:	f7ff fa7f 	bl	9d7e <_dtoa_r+0x45e>
    a880:	9b0e      	ldr	r3, [sp, #56]	; 0x38
    a882:	9307      	str	r3, [sp, #28]
    a884:	e5d6      	b.n	a434 <_dtoa_r+0xb14>
    a886:	2b04      	cmp	r3, #4
    a888:	d100      	bne.n	a88c <_dtoa_r+0xf6c>
    a88a:	e43f      	b.n	a10c <_dtoa_r+0x7ec>
    a88c:	233c      	movs	r3, #60	; 0x3c
    a88e:	1a18      	subs	r0, r3, r0
    a890:	e4d7      	b.n	a242 <_dtoa_r+0x922>
    a892:	46c0      	nop			; (mov r8, r8)
    a894:	0000d638 	.word	0x0000d638
    a898:	40240000 	.word	0x40240000
    a89c:	3fe00000 	.word	0x3fe00000
    a8a0:	401c0000 	.word	0x401c0000
    a8a4:	fcc00000 	.word	0xfcc00000

0000a8a8 <__libc_fini_array>:
    a8a8:	b570      	push	{r4, r5, r6, lr}
    a8aa:	4b09      	ldr	r3, [pc, #36]	; (a8d0 <__libc_fini_array+0x28>)
    a8ac:	4c09      	ldr	r4, [pc, #36]	; (a8d4 <__libc_fini_array+0x2c>)
    a8ae:	1ae4      	subs	r4, r4, r3
    a8b0:	10a4      	asrs	r4, r4, #2
    a8b2:	d009      	beq.n	a8c8 <__libc_fini_array+0x20>
    a8b4:	4a08      	ldr	r2, [pc, #32]	; (a8d8 <__libc_fini_array+0x30>)
    a8b6:	18a5      	adds	r5, r4, r2
    a8b8:	00ad      	lsls	r5, r5, #2
    a8ba:	18ed      	adds	r5, r5, r3
    a8bc:	682b      	ldr	r3, [r5, #0]
    a8be:	3c01      	subs	r4, #1
    a8c0:	4798      	blx	r3
    a8c2:	3d04      	subs	r5, #4
    a8c4:	2c00      	cmp	r4, #0
    a8c6:	d1f9      	bne.n	a8bc <__libc_fini_array+0x14>
    a8c8:	f002 ffac 	bl	d824 <_fini>
    a8cc:	bd70      	pop	{r4, r5, r6, pc}
    a8ce:	46c0      	nop			; (mov r8, r8)
    a8d0:	0000d830 	.word	0x0000d830
    a8d4:	0000d834 	.word	0x0000d834
    a8d8:	3fffffff 	.word	0x3fffffff

0000a8dc <__locale_ctype_ptr_l>:
    a8dc:	23ec      	movs	r3, #236	; 0xec
    a8de:	58c0      	ldr	r0, [r0, r3]
    a8e0:	4770      	bx	lr
    a8e2:	46c0      	nop			; (mov r8, r8)

0000a8e4 <_localeconv_r>:
    a8e4:	4b04      	ldr	r3, [pc, #16]	; (a8f8 <_localeconv_r+0x14>)
    a8e6:	681b      	ldr	r3, [r3, #0]
    a8e8:	6b58      	ldr	r0, [r3, #52]	; 0x34
    a8ea:	2800      	cmp	r0, #0
    a8ec:	d001      	beq.n	a8f2 <_localeconv_r+0xe>
    a8ee:	30f0      	adds	r0, #240	; 0xf0
    a8f0:	4770      	bx	lr
    a8f2:	4802      	ldr	r0, [pc, #8]	; (a8fc <_localeconv_r+0x18>)
    a8f4:	e7fb      	b.n	a8ee <_localeconv_r+0xa>
    a8f6:	46c0      	nop			; (mov r8, r8)
    a8f8:	20000014 	.word	0x20000014
    a8fc:	20000444 	.word	0x20000444

0000a900 <__retarget_lock_acquire_recursive>:
    a900:	4770      	bx	lr
    a902:	46c0      	nop			; (mov r8, r8)

0000a904 <__retarget_lock_release_recursive>:
    a904:	4770      	bx	lr
    a906:	46c0      	nop			; (mov r8, r8)

0000a908 <_malloc_r>:
    a908:	b5f0      	push	{r4, r5, r6, r7, lr}
    a90a:	4657      	mov	r7, sl
    a90c:	4645      	mov	r5, r8
    a90e:	46de      	mov	lr, fp
    a910:	464e      	mov	r6, r9
    a912:	b5e0      	push	{r5, r6, r7, lr}
    a914:	000d      	movs	r5, r1
    a916:	350b      	adds	r5, #11
    a918:	b083      	sub	sp, #12
    a91a:	0007      	movs	r7, r0
    a91c:	2d16      	cmp	r5, #22
    a91e:	d800      	bhi.n	a922 <_malloc_r+0x1a>
    a920:	e09f      	b.n	aa62 <_malloc_r+0x15a>
    a922:	2307      	movs	r3, #7
    a924:	439d      	bics	r5, r3
    a926:	d500      	bpl.n	a92a <_malloc_r+0x22>
    a928:	e0c4      	b.n	aab4 <_malloc_r+0x1ac>
    a92a:	42a9      	cmp	r1, r5
    a92c:	d900      	bls.n	a930 <_malloc_r+0x28>
    a92e:	e0c1      	b.n	aab4 <_malloc_r+0x1ac>
    a930:	f000 fb1a 	bl	af68 <__malloc_lock>
    a934:	23f8      	movs	r3, #248	; 0xf8
    a936:	33ff      	adds	r3, #255	; 0xff
    a938:	429d      	cmp	r5, r3
    a93a:	d800      	bhi.n	a93e <_malloc_r+0x36>
    a93c:	e28f      	b.n	ae5e <_malloc_r+0x556>
    a93e:	0a68      	lsrs	r0, r5, #9
    a940:	d100      	bne.n	a944 <_malloc_r+0x3c>
    a942:	e0bb      	b.n	aabc <_malloc_r+0x1b4>
    a944:	2804      	cmp	r0, #4
    a946:	d900      	bls.n	a94a <_malloc_r+0x42>
    a948:	e162      	b.n	ac10 <_malloc_r+0x308>
    a94a:	2338      	movs	r3, #56	; 0x38
    a94c:	4698      	mov	r8, r3
    a94e:	09a8      	lsrs	r0, r5, #6
    a950:	4480      	add	r8, r0
    a952:	3039      	adds	r0, #57	; 0x39
    a954:	00c1      	lsls	r1, r0, #3
    a956:	4ed2      	ldr	r6, [pc, #840]	; (aca0 <_malloc_r+0x398>)
    a958:	1871      	adds	r1, r6, r1
    a95a:	3908      	subs	r1, #8
    a95c:	68cc      	ldr	r4, [r1, #12]
    a95e:	42a1      	cmp	r1, r4
    a960:	d019      	beq.n	a996 <_malloc_r+0x8e>
    a962:	2303      	movs	r3, #3
    a964:	6862      	ldr	r2, [r4, #4]
    a966:	439a      	bics	r2, r3
    a968:	0013      	movs	r3, r2
    a96a:	1b52      	subs	r2, r2, r5
    a96c:	2a0f      	cmp	r2, #15
    a96e:	dd00      	ble.n	a972 <_malloc_r+0x6a>
    a970:	e0aa      	b.n	aac8 <_malloc_r+0x1c0>
    a972:	2a00      	cmp	r2, #0
    a974:	db00      	blt.n	a978 <_malloc_r+0x70>
    a976:	e088      	b.n	aa8a <_malloc_r+0x182>
    a978:	2303      	movs	r3, #3
    a97a:	469c      	mov	ip, r3
    a97c:	e008      	b.n	a990 <_malloc_r+0x88>
    a97e:	4662      	mov	r2, ip
    a980:	6863      	ldr	r3, [r4, #4]
    a982:	4393      	bics	r3, r2
    a984:	1b5a      	subs	r2, r3, r5
    a986:	2a0f      	cmp	r2, #15
    a988:	dd00      	ble.n	a98c <_malloc_r+0x84>
    a98a:	e09d      	b.n	aac8 <_malloc_r+0x1c0>
    a98c:	2a00      	cmp	r2, #0
    a98e:	da7c      	bge.n	aa8a <_malloc_r+0x182>
    a990:	68e4      	ldr	r4, [r4, #12]
    a992:	42a1      	cmp	r1, r4
    a994:	d1f3      	bne.n	a97e <_malloc_r+0x76>
    a996:	0032      	movs	r2, r6
    a998:	6934      	ldr	r4, [r6, #16]
    a99a:	3208      	adds	r2, #8
    a99c:	4294      	cmp	r4, r2
    a99e:	d100      	bne.n	a9a2 <_malloc_r+0x9a>
    a9a0:	e190      	b.n	acc4 <_malloc_r+0x3bc>
    a9a2:	2303      	movs	r3, #3
    a9a4:	6861      	ldr	r1, [r4, #4]
    a9a6:	4399      	bics	r1, r3
    a9a8:	4689      	mov	r9, r1
    a9aa:	1b49      	subs	r1, r1, r5
    a9ac:	290f      	cmp	r1, #15
    a9ae:	dd00      	ble.n	a9b2 <_malloc_r+0xaa>
    a9b0:	e162      	b.n	ac78 <_malloc_r+0x370>
    a9b2:	6172      	str	r2, [r6, #20]
    a9b4:	6132      	str	r2, [r6, #16]
    a9b6:	2900      	cmp	r1, #0
    a9b8:	db00      	blt.n	a9bc <_malloc_r+0xb4>
    a9ba:	e087      	b.n	aacc <_malloc_r+0x1c4>
    a9bc:	4ab9      	ldr	r2, [pc, #740]	; (aca4 <_malloc_r+0x39c>)
    a9be:	464b      	mov	r3, r9
    a9c0:	4591      	cmp	r9, r2
    a9c2:	d900      	bls.n	a9c6 <_malloc_r+0xbe>
    a9c4:	e130      	b.n	ac28 <_malloc_r+0x320>
    a9c6:	08db      	lsrs	r3, r3, #3
    a9c8:	3aff      	subs	r2, #255	; 0xff
    a9ca:	1099      	asrs	r1, r3, #2
    a9cc:	3aff      	subs	r2, #255	; 0xff
    a9ce:	408a      	lsls	r2, r1
    a9d0:	00db      	lsls	r3, r3, #3
    a9d2:	6871      	ldr	r1, [r6, #4]
    a9d4:	199b      	adds	r3, r3, r6
    a9d6:	430a      	orrs	r2, r1
    a9d8:	6899      	ldr	r1, [r3, #8]
    a9da:	6072      	str	r2, [r6, #4]
    a9dc:	60e3      	str	r3, [r4, #12]
    a9de:	60a1      	str	r1, [r4, #8]
    a9e0:	609c      	str	r4, [r3, #8]
    a9e2:	0013      	movs	r3, r2
    a9e4:	60cc      	str	r4, [r1, #12]
    a9e6:	2101      	movs	r1, #1
    a9e8:	1082      	asrs	r2, r0, #2
    a9ea:	4091      	lsls	r1, r2
    a9ec:	4299      	cmp	r1, r3
    a9ee:	d86f      	bhi.n	aad0 <_malloc_r+0x1c8>
    a9f0:	420b      	tst	r3, r1
    a9f2:	d105      	bne.n	aa00 <_malloc_r+0xf8>
    a9f4:	2203      	movs	r2, #3
    a9f6:	4390      	bics	r0, r2
    a9f8:	0049      	lsls	r1, r1, #1
    a9fa:	3004      	adds	r0, #4
    a9fc:	420b      	tst	r3, r1
    a9fe:	d0fb      	beq.n	a9f8 <_malloc_r+0xf0>
    aa00:	2303      	movs	r3, #3
    aa02:	4698      	mov	r8, r3
    aa04:	00c3      	lsls	r3, r0, #3
    aa06:	4699      	mov	r9, r3
    aa08:	44b1      	add	r9, r6
    aa0a:	46cc      	mov	ip, r9
    aa0c:	4682      	mov	sl, r0
    aa0e:	4663      	mov	r3, ip
    aa10:	68dc      	ldr	r4, [r3, #12]
    aa12:	45a4      	cmp	ip, r4
    aa14:	d107      	bne.n	aa26 <_malloc_r+0x11e>
    aa16:	e157      	b.n	acc8 <_malloc_r+0x3c0>
    aa18:	2a00      	cmp	r2, #0
    aa1a:	db00      	blt.n	aa1e <_malloc_r+0x116>
    aa1c:	e166      	b.n	acec <_malloc_r+0x3e4>
    aa1e:	68e4      	ldr	r4, [r4, #12]
    aa20:	45a4      	cmp	ip, r4
    aa22:	d100      	bne.n	aa26 <_malloc_r+0x11e>
    aa24:	e150      	b.n	acc8 <_malloc_r+0x3c0>
    aa26:	4642      	mov	r2, r8
    aa28:	6863      	ldr	r3, [r4, #4]
    aa2a:	4393      	bics	r3, r2
    aa2c:	1b5a      	subs	r2, r3, r5
    aa2e:	2a0f      	cmp	r2, #15
    aa30:	ddf2      	ble.n	aa18 <_malloc_r+0x110>
    aa32:	2001      	movs	r0, #1
    aa34:	4680      	mov	r8, r0
    aa36:	1961      	adds	r1, r4, r5
    aa38:	4305      	orrs	r5, r0
    aa3a:	6065      	str	r5, [r4, #4]
    aa3c:	68a0      	ldr	r0, [r4, #8]
    aa3e:	68e5      	ldr	r5, [r4, #12]
    aa40:	3608      	adds	r6, #8
    aa42:	60c5      	str	r5, [r0, #12]
    aa44:	60a8      	str	r0, [r5, #8]
    aa46:	4640      	mov	r0, r8
    aa48:	60f1      	str	r1, [r6, #12]
    aa4a:	60b1      	str	r1, [r6, #8]
    aa4c:	4310      	orrs	r0, r2
    aa4e:	6048      	str	r0, [r1, #4]
    aa50:	60ce      	str	r6, [r1, #12]
    aa52:	608e      	str	r6, [r1, #8]
    aa54:	0038      	movs	r0, r7
    aa56:	50e2      	str	r2, [r4, r3]
    aa58:	f000 fa8e 	bl	af78 <__malloc_unlock>
    aa5c:	0020      	movs	r0, r4
    aa5e:	3008      	adds	r0, #8
    aa60:	e021      	b.n	aaa6 <_malloc_r+0x19e>
    aa62:	2910      	cmp	r1, #16
    aa64:	d826      	bhi.n	aab4 <_malloc_r+0x1ac>
    aa66:	0038      	movs	r0, r7
    aa68:	f000 fa7e 	bl	af68 <__malloc_lock>
    aa6c:	2510      	movs	r5, #16
    aa6e:	2318      	movs	r3, #24
    aa70:	2002      	movs	r0, #2
    aa72:	4e8b      	ldr	r6, [pc, #556]	; (aca0 <_malloc_r+0x398>)
    aa74:	18f3      	adds	r3, r6, r3
    aa76:	001a      	movs	r2, r3
    aa78:	685c      	ldr	r4, [r3, #4]
    aa7a:	3a08      	subs	r2, #8
    aa7c:	4294      	cmp	r4, r2
    aa7e:	d100      	bne.n	aa82 <_malloc_r+0x17a>
    aa80:	e12e      	b.n	ace0 <_malloc_r+0x3d8>
    aa82:	2303      	movs	r3, #3
    aa84:	6862      	ldr	r2, [r4, #4]
    aa86:	439a      	bics	r2, r3
    aa88:	0013      	movs	r3, r2
    aa8a:	68e2      	ldr	r2, [r4, #12]
    aa8c:	68a1      	ldr	r1, [r4, #8]
    aa8e:	60ca      	str	r2, [r1, #12]
    aa90:	6091      	str	r1, [r2, #8]
    aa92:	2201      	movs	r2, #1
    aa94:	18e3      	adds	r3, r4, r3
    aa96:	6859      	ldr	r1, [r3, #4]
    aa98:	0038      	movs	r0, r7
    aa9a:	430a      	orrs	r2, r1
    aa9c:	605a      	str	r2, [r3, #4]
    aa9e:	f000 fa6b 	bl	af78 <__malloc_unlock>
    aaa2:	0020      	movs	r0, r4
    aaa4:	3008      	adds	r0, #8
    aaa6:	b003      	add	sp, #12
    aaa8:	bc3c      	pop	{r2, r3, r4, r5}
    aaaa:	4690      	mov	r8, r2
    aaac:	4699      	mov	r9, r3
    aaae:	46a2      	mov	sl, r4
    aab0:	46ab      	mov	fp, r5
    aab2:	bdf0      	pop	{r4, r5, r6, r7, pc}
    aab4:	230c      	movs	r3, #12
    aab6:	2000      	movs	r0, #0
    aab8:	603b      	str	r3, [r7, #0]
    aaba:	e7f4      	b.n	aaa6 <_malloc_r+0x19e>
    aabc:	2180      	movs	r1, #128	; 0x80
    aabe:	233f      	movs	r3, #63	; 0x3f
    aac0:	2040      	movs	r0, #64	; 0x40
    aac2:	0089      	lsls	r1, r1, #2
    aac4:	4698      	mov	r8, r3
    aac6:	e746      	b.n	a956 <_malloc_r+0x4e>
    aac8:	4640      	mov	r0, r8
    aaca:	e764      	b.n	a996 <_malloc_r+0x8e>
    aacc:	464b      	mov	r3, r9
    aace:	e7e0      	b.n	aa92 <_malloc_r+0x18a>
    aad0:	2303      	movs	r3, #3
    aad2:	68b4      	ldr	r4, [r6, #8]
    aad4:	6862      	ldr	r2, [r4, #4]
    aad6:	439a      	bics	r2, r3
    aad8:	4690      	mov	r8, r2
    aada:	42aa      	cmp	r2, r5
    aadc:	d303      	bcc.n	aae6 <_malloc_r+0x1de>
    aade:	1b53      	subs	r3, r2, r5
    aae0:	2b0f      	cmp	r3, #15
    aae2:	dd00      	ble.n	aae6 <_malloc_r+0x1de>
    aae4:	e086      	b.n	abf4 <_malloc_r+0x2ec>
    aae6:	0023      	movs	r3, r4
    aae8:	4443      	add	r3, r8
    aaea:	4a6f      	ldr	r2, [pc, #444]	; (aca8 <_malloc_r+0x3a0>)
    aaec:	9301      	str	r3, [sp, #4]
    aaee:	4b6f      	ldr	r3, [pc, #444]	; (acac <_malloc_r+0x3a4>)
    aaf0:	4693      	mov	fp, r2
    aaf2:	681b      	ldr	r3, [r3, #0]
    aaf4:	6812      	ldr	r2, [r2, #0]
    aaf6:	18eb      	adds	r3, r5, r3
    aaf8:	3201      	adds	r2, #1
    aafa:	d100      	bne.n	aafe <_malloc_r+0x1f6>
    aafc:	e168      	b.n	add0 <_malloc_r+0x4c8>
    aafe:	4a6c      	ldr	r2, [pc, #432]	; (acb0 <_malloc_r+0x3a8>)
    ab00:	4694      	mov	ip, r2
    ab02:	4463      	add	r3, ip
    ab04:	0b1b      	lsrs	r3, r3, #12
    ab06:	031b      	lsls	r3, r3, #12
    ab08:	9300      	str	r3, [sp, #0]
    ab0a:	9900      	ldr	r1, [sp, #0]
    ab0c:	0038      	movs	r0, r7
    ab0e:	f000 fd83 	bl	b618 <_sbrk_r>
    ab12:	0003      	movs	r3, r0
    ab14:	4681      	mov	r9, r0
    ab16:	3301      	adds	r3, #1
    ab18:	d061      	beq.n	abde <_malloc_r+0x2d6>
    ab1a:	9b01      	ldr	r3, [sp, #4]
    ab1c:	4283      	cmp	r3, r0
    ab1e:	d900      	bls.n	ab22 <_malloc_r+0x21a>
    ab20:	e0ff      	b.n	ad22 <_malloc_r+0x41a>
    ab22:	4b64      	ldr	r3, [pc, #400]	; (acb4 <_malloc_r+0x3ac>)
    ab24:	9a00      	ldr	r2, [sp, #0]
    ab26:	469a      	mov	sl, r3
    ab28:	681b      	ldr	r3, [r3, #0]
    ab2a:	469c      	mov	ip, r3
    ab2c:	4653      	mov	r3, sl
    ab2e:	4462      	add	r2, ip
    ab30:	601a      	str	r2, [r3, #0]
    ab32:	9b01      	ldr	r3, [sp, #4]
    ab34:	0011      	movs	r1, r2
    ab36:	4283      	cmp	r3, r0
    ab38:	d100      	bne.n	ab3c <_malloc_r+0x234>
    ab3a:	e155      	b.n	ade8 <_malloc_r+0x4e0>
    ab3c:	465b      	mov	r3, fp
    ab3e:	681b      	ldr	r3, [r3, #0]
    ab40:	3301      	adds	r3, #1
    ab42:	d100      	bne.n	ab46 <_malloc_r+0x23e>
    ab44:	e16c      	b.n	ae20 <_malloc_r+0x518>
    ab46:	464b      	mov	r3, r9
    ab48:	9a01      	ldr	r2, [sp, #4]
    ab4a:	1a9b      	subs	r3, r3, r2
    ab4c:	1859      	adds	r1, r3, r1
    ab4e:	4653      	mov	r3, sl
    ab50:	6019      	str	r1, [r3, #0]
    ab52:	2307      	movs	r3, #7
    ab54:	464a      	mov	r2, r9
    ab56:	4013      	ands	r3, r2
    ab58:	d100      	bne.n	ab5c <_malloc_r+0x254>
    ab5a:	e124      	b.n	ada6 <_malloc_r+0x49e>
    ab5c:	2108      	movs	r1, #8
    ab5e:	4689      	mov	r9, r1
    ab60:	4955      	ldr	r1, [pc, #340]	; (acb8 <_malloc_r+0x3b0>)
    ab62:	1ad2      	subs	r2, r2, r3
    ab64:	4491      	add	r9, r2
    ab66:	1acb      	subs	r3, r1, r3
    ab68:	9a00      	ldr	r2, [sp, #0]
    ab6a:	0038      	movs	r0, r7
    ab6c:	444a      	add	r2, r9
    ab6e:	0511      	lsls	r1, r2, #20
    ab70:	0d09      	lsrs	r1, r1, #20
    ab72:	1a5b      	subs	r3, r3, r1
    ab74:	0019      	movs	r1, r3
    ab76:	469b      	mov	fp, r3
    ab78:	f000 fd4e 	bl	b618 <_sbrk_r>
    ab7c:	1c43      	adds	r3, r0, #1
    ab7e:	d100      	bne.n	ab82 <_malloc_r+0x27a>
    ab80:	e142      	b.n	ae08 <_malloc_r+0x500>
    ab82:	464b      	mov	r3, r9
    ab84:	1ac0      	subs	r0, r0, r3
    ab86:	2301      	movs	r3, #1
    ab88:	4458      	add	r0, fp
    ab8a:	4318      	orrs	r0, r3
    ab8c:	4653      	mov	r3, sl
    ab8e:	681b      	ldr	r3, [r3, #0]
    ab90:	445b      	add	r3, fp
    ab92:	0019      	movs	r1, r3
    ab94:	4653      	mov	r3, sl
    ab96:	6019      	str	r1, [r3, #0]
    ab98:	464b      	mov	r3, r9
    ab9a:	60b3      	str	r3, [r6, #8]
    ab9c:	6058      	str	r0, [r3, #4]
    ab9e:	42b4      	cmp	r4, r6
    aba0:	d013      	beq.n	abca <_malloc_r+0x2c2>
    aba2:	4643      	mov	r3, r8
    aba4:	2b0f      	cmp	r3, #15
    aba6:	d800      	bhi.n	abaa <_malloc_r+0x2a2>
    aba8:	e0e8      	b.n	ad7c <_malloc_r+0x474>
    abaa:	4643      	mov	r3, r8
    abac:	2207      	movs	r2, #7
    abae:	6860      	ldr	r0, [r4, #4]
    abb0:	3b0c      	subs	r3, #12
    abb2:	4393      	bics	r3, r2
    abb4:	3a06      	subs	r2, #6
    abb6:	4002      	ands	r2, r0
    abb8:	2005      	movs	r0, #5
    abba:	431a      	orrs	r2, r3
    abbc:	6062      	str	r2, [r4, #4]
    abbe:	18e2      	adds	r2, r4, r3
    abc0:	6050      	str	r0, [r2, #4]
    abc2:	6090      	str	r0, [r2, #8]
    abc4:	2b0f      	cmp	r3, #15
    abc6:	d900      	bls.n	abca <_malloc_r+0x2c2>
    abc8:	e122      	b.n	ae10 <_malloc_r+0x508>
    abca:	4b3c      	ldr	r3, [pc, #240]	; (acbc <_malloc_r+0x3b4>)
    abcc:	681a      	ldr	r2, [r3, #0]
    abce:	4291      	cmp	r1, r2
    abd0:	d900      	bls.n	abd4 <_malloc_r+0x2cc>
    abd2:	6019      	str	r1, [r3, #0]
    abd4:	4b3a      	ldr	r3, [pc, #232]	; (acc0 <_malloc_r+0x3b8>)
    abd6:	681a      	ldr	r2, [r3, #0]
    abd8:	4291      	cmp	r1, r2
    abda:	d900      	bls.n	abde <_malloc_r+0x2d6>
    abdc:	6019      	str	r1, [r3, #0]
    abde:	2303      	movs	r3, #3
    abe0:	68b4      	ldr	r4, [r6, #8]
    abe2:	6862      	ldr	r2, [r4, #4]
    abe4:	439a      	bics	r2, r3
    abe6:	1b53      	subs	r3, r2, r5
    abe8:	4295      	cmp	r5, r2
    abea:	d900      	bls.n	abee <_malloc_r+0x2e6>
    abec:	e0c9      	b.n	ad82 <_malloc_r+0x47a>
    abee:	2b0f      	cmp	r3, #15
    abf0:	dc00      	bgt.n	abf4 <_malloc_r+0x2ec>
    abf2:	e0c6      	b.n	ad82 <_malloc_r+0x47a>
    abf4:	2201      	movs	r2, #1
    abf6:	0029      	movs	r1, r5
    abf8:	4313      	orrs	r3, r2
    abfa:	4311      	orrs	r1, r2
    abfc:	1965      	adds	r5, r4, r5
    abfe:	6061      	str	r1, [r4, #4]
    ac00:	0038      	movs	r0, r7
    ac02:	60b5      	str	r5, [r6, #8]
    ac04:	606b      	str	r3, [r5, #4]
    ac06:	f000 f9b7 	bl	af78 <__malloc_unlock>
    ac0a:	0020      	movs	r0, r4
    ac0c:	3008      	adds	r0, #8
    ac0e:	e74a      	b.n	aaa6 <_malloc_r+0x19e>
    ac10:	2814      	cmp	r0, #20
    ac12:	d97a      	bls.n	ad0a <_malloc_r+0x402>
    ac14:	2854      	cmp	r0, #84	; 0x54
    ac16:	d900      	bls.n	ac1a <_malloc_r+0x312>
    ac18:	e0ba      	b.n	ad90 <_malloc_r+0x488>
    ac1a:	236e      	movs	r3, #110	; 0x6e
    ac1c:	4698      	mov	r8, r3
    ac1e:	0b28      	lsrs	r0, r5, #12
    ac20:	4480      	add	r8, r0
    ac22:	306f      	adds	r0, #111	; 0x6f
    ac24:	00c1      	lsls	r1, r0, #3
    ac26:	e696      	b.n	a956 <_malloc_r+0x4e>
    ac28:	0a5a      	lsrs	r2, r3, #9
    ac2a:	2a04      	cmp	r2, #4
    ac2c:	d973      	bls.n	ad16 <_malloc_r+0x40e>
    ac2e:	2a14      	cmp	r2, #20
    ac30:	d900      	bls.n	ac34 <_malloc_r+0x32c>
    ac32:	e0d0      	b.n	add6 <_malloc_r+0x4ce>
    ac34:	0011      	movs	r1, r2
    ac36:	325c      	adds	r2, #92	; 0x5c
    ac38:	315b      	adds	r1, #91	; 0x5b
    ac3a:	00d2      	lsls	r2, r2, #3
    ac3c:	2308      	movs	r3, #8
    ac3e:	425b      	negs	r3, r3
    ac40:	469c      	mov	ip, r3
    ac42:	18b2      	adds	r2, r6, r2
    ac44:	4494      	add	ip, r2
    ac46:	4663      	mov	r3, ip
    ac48:	689a      	ldr	r2, [r3, #8]
    ac4a:	2303      	movs	r3, #3
    ac4c:	4698      	mov	r8, r3
    ac4e:	4594      	cmp	ip, r2
    ac50:	d100      	bne.n	ac54 <_malloc_r+0x34c>
    ac52:	e0ab      	b.n	adac <_malloc_r+0x4a4>
    ac54:	4643      	mov	r3, r8
    ac56:	6851      	ldr	r1, [r2, #4]
    ac58:	4399      	bics	r1, r3
    ac5a:	4589      	cmp	r9, r1
    ac5c:	d300      	bcc.n	ac60 <_malloc_r+0x358>
    ac5e:	e095      	b.n	ad8c <_malloc_r+0x484>
    ac60:	6892      	ldr	r2, [r2, #8]
    ac62:	4594      	cmp	ip, r2
    ac64:	d1f6      	bne.n	ac54 <_malloc_r+0x34c>
    ac66:	4663      	mov	r3, ip
    ac68:	68da      	ldr	r2, [r3, #12]
    ac6a:	6873      	ldr	r3, [r6, #4]
    ac6c:	4661      	mov	r1, ip
    ac6e:	60e2      	str	r2, [r4, #12]
    ac70:	60a1      	str	r1, [r4, #8]
    ac72:	6094      	str	r4, [r2, #8]
    ac74:	60cc      	str	r4, [r1, #12]
    ac76:	e6b6      	b.n	a9e6 <_malloc_r+0xde>
    ac78:	2301      	movs	r3, #1
    ac7a:	1960      	adds	r0, r4, r5
    ac7c:	431d      	orrs	r5, r3
    ac7e:	6065      	str	r5, [r4, #4]
    ac80:	6170      	str	r0, [r6, #20]
    ac82:	6130      	str	r0, [r6, #16]
    ac84:	60c2      	str	r2, [r0, #12]
    ac86:	6082      	str	r2, [r0, #8]
    ac88:	001a      	movs	r2, r3
    ac8a:	464b      	mov	r3, r9
    ac8c:	430a      	orrs	r2, r1
    ac8e:	6042      	str	r2, [r0, #4]
    ac90:	0038      	movs	r0, r7
    ac92:	50e1      	str	r1, [r4, r3]
    ac94:	f000 f970 	bl	af78 <__malloc_unlock>
    ac98:	0020      	movs	r0, r4
    ac9a:	3008      	adds	r0, #8
    ac9c:	e703      	b.n	aaa6 <_malloc_r+0x19e>
    ac9e:	46c0      	nop			; (mov r8, r8)
    aca0:	200005b0 	.word	0x200005b0
    aca4:	000001ff 	.word	0x000001ff
    aca8:	200009b8 	.word	0x200009b8
    acac:	20000c64 	.word	0x20000c64
    acb0:	0000100f 	.word	0x0000100f
    acb4:	20000c34 	.word	0x20000c34
    acb8:	00001008 	.word	0x00001008
    acbc:	20000c5c 	.word	0x20000c5c
    acc0:	20000c60 	.word	0x20000c60
    acc4:	6873      	ldr	r3, [r6, #4]
    acc6:	e68e      	b.n	a9e6 <_malloc_r+0xde>
    acc8:	2308      	movs	r3, #8
    acca:	469b      	mov	fp, r3
    accc:	3b07      	subs	r3, #7
    acce:	44dc      	add	ip, fp
    acd0:	469b      	mov	fp, r3
    acd2:	44da      	add	sl, fp
    acd4:	4643      	mov	r3, r8
    acd6:	4652      	mov	r2, sl
    acd8:	4213      	tst	r3, r2
    acda:	d000      	beq.n	acde <_malloc_r+0x3d6>
    acdc:	e697      	b.n	aa0e <_malloc_r+0x106>
    acde:	e037      	b.n	ad50 <_malloc_r+0x448>
    ace0:	68dc      	ldr	r4, [r3, #12]
    ace2:	3002      	adds	r0, #2
    ace4:	42a3      	cmp	r3, r4
    ace6:	d100      	bne.n	acea <_malloc_r+0x3e2>
    ace8:	e655      	b.n	a996 <_malloc_r+0x8e>
    acea:	e6ca      	b.n	aa82 <_malloc_r+0x17a>
    acec:	2201      	movs	r2, #1
    acee:	18e3      	adds	r3, r4, r3
    acf0:	6859      	ldr	r1, [r3, #4]
    acf2:	0038      	movs	r0, r7
    acf4:	430a      	orrs	r2, r1
    acf6:	605a      	str	r2, [r3, #4]
    acf8:	68e3      	ldr	r3, [r4, #12]
    acfa:	68a2      	ldr	r2, [r4, #8]
    acfc:	60d3      	str	r3, [r2, #12]
    acfe:	609a      	str	r2, [r3, #8]
    ad00:	f000 f93a 	bl	af78 <__malloc_unlock>
    ad04:	0020      	movs	r0, r4
    ad06:	3008      	adds	r0, #8
    ad08:	e6cd      	b.n	aaa6 <_malloc_r+0x19e>
    ad0a:	235b      	movs	r3, #91	; 0x5b
    ad0c:	4698      	mov	r8, r3
    ad0e:	4480      	add	r8, r0
    ad10:	305c      	adds	r0, #92	; 0x5c
    ad12:	00c1      	lsls	r1, r0, #3
    ad14:	e61f      	b.n	a956 <_malloc_r+0x4e>
    ad16:	099a      	lsrs	r2, r3, #6
    ad18:	0011      	movs	r1, r2
    ad1a:	3239      	adds	r2, #57	; 0x39
    ad1c:	3138      	adds	r1, #56	; 0x38
    ad1e:	00d2      	lsls	r2, r2, #3
    ad20:	e78c      	b.n	ac3c <_malloc_r+0x334>
    ad22:	42b4      	cmp	r4, r6
    ad24:	d000      	beq.n	ad28 <_malloc_r+0x420>
    ad26:	e75a      	b.n	abde <_malloc_r+0x2d6>
    ad28:	4b4f      	ldr	r3, [pc, #316]	; (ae68 <_malloc_r+0x560>)
    ad2a:	9a00      	ldr	r2, [sp, #0]
    ad2c:	469a      	mov	sl, r3
    ad2e:	681b      	ldr	r3, [r3, #0]
    ad30:	469c      	mov	ip, r3
    ad32:	4653      	mov	r3, sl
    ad34:	4462      	add	r2, ip
    ad36:	0011      	movs	r1, r2
    ad38:	601a      	str	r2, [r3, #0]
    ad3a:	e6ff      	b.n	ab3c <_malloc_r+0x234>
    ad3c:	2308      	movs	r3, #8
    ad3e:	425b      	negs	r3, r3
    ad40:	469c      	mov	ip, r3
    ad42:	44e1      	add	r9, ip
    ad44:	464b      	mov	r3, r9
    ad46:	689b      	ldr	r3, [r3, #8]
    ad48:	3801      	subs	r0, #1
    ad4a:	4599      	cmp	r9, r3
    ad4c:	d000      	beq.n	ad50 <_malloc_r+0x448>
    ad4e:	e084      	b.n	ae5a <_malloc_r+0x552>
    ad50:	4643      	mov	r3, r8
    ad52:	4203      	tst	r3, r0
    ad54:	d1f2      	bne.n	ad3c <_malloc_r+0x434>
    ad56:	6873      	ldr	r3, [r6, #4]
    ad58:	438b      	bics	r3, r1
    ad5a:	6073      	str	r3, [r6, #4]
    ad5c:	0049      	lsls	r1, r1, #1
    ad5e:	4299      	cmp	r1, r3
    ad60:	d900      	bls.n	ad64 <_malloc_r+0x45c>
    ad62:	e6b5      	b.n	aad0 <_malloc_r+0x1c8>
    ad64:	2900      	cmp	r1, #0
    ad66:	d100      	bne.n	ad6a <_malloc_r+0x462>
    ad68:	e6b2      	b.n	aad0 <_malloc_r+0x1c8>
    ad6a:	4650      	mov	r0, sl
    ad6c:	420b      	tst	r3, r1
    ad6e:	d000      	beq.n	ad72 <_malloc_r+0x46a>
    ad70:	e648      	b.n	aa04 <_malloc_r+0xfc>
    ad72:	0049      	lsls	r1, r1, #1
    ad74:	3004      	adds	r0, #4
    ad76:	420b      	tst	r3, r1
    ad78:	d0fb      	beq.n	ad72 <_malloc_r+0x46a>
    ad7a:	e643      	b.n	aa04 <_malloc_r+0xfc>
    ad7c:	2301      	movs	r3, #1
    ad7e:	464a      	mov	r2, r9
    ad80:	6053      	str	r3, [r2, #4]
    ad82:	0038      	movs	r0, r7
    ad84:	f000 f8f8 	bl	af78 <__malloc_unlock>
    ad88:	2000      	movs	r0, #0
    ad8a:	e68c      	b.n	aaa6 <_malloc_r+0x19e>
    ad8c:	4694      	mov	ip, r2
    ad8e:	e76a      	b.n	ac66 <_malloc_r+0x35e>
    ad90:	23aa      	movs	r3, #170	; 0xaa
    ad92:	005b      	lsls	r3, r3, #1
    ad94:	4298      	cmp	r0, r3
    ad96:	d811      	bhi.n	adbc <_malloc_r+0x4b4>
    ad98:	3bdd      	subs	r3, #221	; 0xdd
    ad9a:	4698      	mov	r8, r3
    ad9c:	0be8      	lsrs	r0, r5, #15
    ad9e:	4480      	add	r8, r0
    ada0:	3078      	adds	r0, #120	; 0x78
    ada2:	00c1      	lsls	r1, r0, #3
    ada4:	e5d7      	b.n	a956 <_malloc_r+0x4e>
    ada6:	2380      	movs	r3, #128	; 0x80
    ada8:	015b      	lsls	r3, r3, #5
    adaa:	e6dd      	b.n	ab68 <_malloc_r+0x260>
    adac:	1089      	asrs	r1, r1, #2
    adae:	3b02      	subs	r3, #2
    adb0:	408b      	lsls	r3, r1
    adb2:	6872      	ldr	r2, [r6, #4]
    adb4:	4313      	orrs	r3, r2
    adb6:	6073      	str	r3, [r6, #4]
    adb8:	4662      	mov	r2, ip
    adba:	e757      	b.n	ac6c <_malloc_r+0x364>
    adbc:	4b2b      	ldr	r3, [pc, #172]	; (ae6c <_malloc_r+0x564>)
    adbe:	4298      	cmp	r0, r3
    adc0:	d81c      	bhi.n	adfc <_malloc_r+0x4f4>
    adc2:	237c      	movs	r3, #124	; 0x7c
    adc4:	4698      	mov	r8, r3
    adc6:	0ca8      	lsrs	r0, r5, #18
    adc8:	4480      	add	r8, r0
    adca:	307d      	adds	r0, #125	; 0x7d
    adcc:	00c1      	lsls	r1, r0, #3
    adce:	e5c2      	b.n	a956 <_malloc_r+0x4e>
    add0:	3310      	adds	r3, #16
    add2:	9300      	str	r3, [sp, #0]
    add4:	e699      	b.n	ab0a <_malloc_r+0x202>
    add6:	2a54      	cmp	r2, #84	; 0x54
    add8:	d826      	bhi.n	ae28 <_malloc_r+0x520>
    adda:	464b      	mov	r3, r9
    addc:	0b1a      	lsrs	r2, r3, #12
    adde:	0011      	movs	r1, r2
    ade0:	326f      	adds	r2, #111	; 0x6f
    ade2:	316e      	adds	r1, #110	; 0x6e
    ade4:	00d2      	lsls	r2, r2, #3
    ade6:	e729      	b.n	ac3c <_malloc_r+0x334>
    ade8:	051b      	lsls	r3, r3, #20
    adea:	d000      	beq.n	adee <_malloc_r+0x4e6>
    adec:	e6a6      	b.n	ab3c <_malloc_r+0x234>
    adee:	2001      	movs	r0, #1
    adf0:	9b00      	ldr	r3, [sp, #0]
    adf2:	68b2      	ldr	r2, [r6, #8]
    adf4:	4443      	add	r3, r8
    adf6:	4303      	orrs	r3, r0
    adf8:	6053      	str	r3, [r2, #4]
    adfa:	e6e6      	b.n	abca <_malloc_r+0x2c2>
    adfc:	21fe      	movs	r1, #254	; 0xfe
    adfe:	237e      	movs	r3, #126	; 0x7e
    ae00:	207f      	movs	r0, #127	; 0x7f
    ae02:	0089      	lsls	r1, r1, #2
    ae04:	4698      	mov	r8, r3
    ae06:	e5a6      	b.n	a956 <_malloc_r+0x4e>
    ae08:	2300      	movs	r3, #0
    ae0a:	2001      	movs	r0, #1
    ae0c:	469b      	mov	fp, r3
    ae0e:	e6bd      	b.n	ab8c <_malloc_r+0x284>
    ae10:	0021      	movs	r1, r4
    ae12:	0038      	movs	r0, r7
    ae14:	3108      	adds	r1, #8
    ae16:	f000 fe13 	bl	ba40 <_free_r>
    ae1a:	4653      	mov	r3, sl
    ae1c:	6819      	ldr	r1, [r3, #0]
    ae1e:	e6d4      	b.n	abca <_malloc_r+0x2c2>
    ae20:	465b      	mov	r3, fp
    ae22:	464a      	mov	r2, r9
    ae24:	601a      	str	r2, [r3, #0]
    ae26:	e694      	b.n	ab52 <_malloc_r+0x24a>
    ae28:	21aa      	movs	r1, #170	; 0xaa
    ae2a:	0049      	lsls	r1, r1, #1
    ae2c:	428a      	cmp	r2, r1
    ae2e:	d806      	bhi.n	ae3e <_malloc_r+0x536>
    ae30:	464b      	mov	r3, r9
    ae32:	0bda      	lsrs	r2, r3, #15
    ae34:	0011      	movs	r1, r2
    ae36:	3278      	adds	r2, #120	; 0x78
    ae38:	3177      	adds	r1, #119	; 0x77
    ae3a:	00d2      	lsls	r2, r2, #3
    ae3c:	e6fe      	b.n	ac3c <_malloc_r+0x334>
    ae3e:	490b      	ldr	r1, [pc, #44]	; (ae6c <_malloc_r+0x564>)
    ae40:	428a      	cmp	r2, r1
    ae42:	d806      	bhi.n	ae52 <_malloc_r+0x54a>
    ae44:	464b      	mov	r3, r9
    ae46:	0c9a      	lsrs	r2, r3, #18
    ae48:	0011      	movs	r1, r2
    ae4a:	327d      	adds	r2, #125	; 0x7d
    ae4c:	317c      	adds	r1, #124	; 0x7c
    ae4e:	00d2      	lsls	r2, r2, #3
    ae50:	e6f4      	b.n	ac3c <_malloc_r+0x334>
    ae52:	22fe      	movs	r2, #254	; 0xfe
    ae54:	217e      	movs	r1, #126	; 0x7e
    ae56:	0092      	lsls	r2, r2, #2
    ae58:	e6f0      	b.n	ac3c <_malloc_r+0x334>
    ae5a:	6873      	ldr	r3, [r6, #4]
    ae5c:	e77e      	b.n	ad5c <_malloc_r+0x454>
    ae5e:	002b      	movs	r3, r5
    ae60:	08e8      	lsrs	r0, r5, #3
    ae62:	3308      	adds	r3, #8
    ae64:	e605      	b.n	aa72 <_malloc_r+0x16a>
    ae66:	46c0      	nop			; (mov r8, r8)
    ae68:	20000c34 	.word	0x20000c34
    ae6c:	00000554 	.word	0x00000554

0000ae70 <__ascii_mbtowc>:
    ae70:	b082      	sub	sp, #8
    ae72:	2900      	cmp	r1, #0
    ae74:	d00a      	beq.n	ae8c <__ascii_mbtowc+0x1c>
    ae76:	2a00      	cmp	r2, #0
    ae78:	d00b      	beq.n	ae92 <__ascii_mbtowc+0x22>
    ae7a:	2b00      	cmp	r3, #0
    ae7c:	d00b      	beq.n	ae96 <__ascii_mbtowc+0x26>
    ae7e:	7813      	ldrb	r3, [r2, #0]
    ae80:	600b      	str	r3, [r1, #0]
    ae82:	7810      	ldrb	r0, [r2, #0]
    ae84:	1e43      	subs	r3, r0, #1
    ae86:	4198      	sbcs	r0, r3
    ae88:	b002      	add	sp, #8
    ae8a:	4770      	bx	lr
    ae8c:	a901      	add	r1, sp, #4
    ae8e:	2a00      	cmp	r2, #0
    ae90:	d1f3      	bne.n	ae7a <__ascii_mbtowc+0xa>
    ae92:	2000      	movs	r0, #0
    ae94:	e7f8      	b.n	ae88 <__ascii_mbtowc+0x18>
    ae96:	2002      	movs	r0, #2
    ae98:	4240      	negs	r0, r0
    ae9a:	e7f5      	b.n	ae88 <__ascii_mbtowc+0x18>

0000ae9c <memchr>:
    ae9c:	b570      	push	{r4, r5, r6, lr}
    ae9e:	b2cd      	uxtb	r5, r1
    aea0:	0783      	lsls	r3, r0, #30
    aea2:	d034      	beq.n	af0e <memchr+0x72>
    aea4:	1e54      	subs	r4, r2, #1
    aea6:	2a00      	cmp	r2, #0
    aea8:	d01b      	beq.n	aee2 <memchr+0x46>
    aeaa:	7803      	ldrb	r3, [r0, #0]
    aeac:	42ab      	cmp	r3, r5
    aeae:	d019      	beq.n	aee4 <memchr+0x48>
    aeb0:	2203      	movs	r2, #3
    aeb2:	e004      	b.n	aebe <memchr+0x22>
    aeb4:	3c01      	subs	r4, #1
    aeb6:	d314      	bcc.n	aee2 <memchr+0x46>
    aeb8:	7803      	ldrb	r3, [r0, #0]
    aeba:	42ab      	cmp	r3, r5
    aebc:	d012      	beq.n	aee4 <memchr+0x48>
    aebe:	3001      	adds	r0, #1
    aec0:	4210      	tst	r0, r2
    aec2:	d1f7      	bne.n	aeb4 <memchr+0x18>
    aec4:	2c03      	cmp	r4, #3
    aec6:	d80e      	bhi.n	aee6 <memchr+0x4a>
    aec8:	2c00      	cmp	r4, #0
    aeca:	d00a      	beq.n	aee2 <memchr+0x46>
    aecc:	7803      	ldrb	r3, [r0, #0]
    aece:	42ab      	cmp	r3, r5
    aed0:	d008      	beq.n	aee4 <memchr+0x48>
    aed2:	1904      	adds	r4, r0, r4
    aed4:	e002      	b.n	aedc <memchr+0x40>
    aed6:	7803      	ldrb	r3, [r0, #0]
    aed8:	42ab      	cmp	r3, r5
    aeda:	d003      	beq.n	aee4 <memchr+0x48>
    aedc:	3001      	adds	r0, #1
    aede:	4284      	cmp	r4, r0
    aee0:	d1f9      	bne.n	aed6 <memchr+0x3a>
    aee2:	2000      	movs	r0, #0
    aee4:	bd70      	pop	{r4, r5, r6, pc}
    aee6:	22ff      	movs	r2, #255	; 0xff
    aee8:	060b      	lsls	r3, r1, #24
    aeea:	0c1b      	lsrs	r3, r3, #16
    aeec:	4011      	ands	r1, r2
    aeee:	4319      	orrs	r1, r3
    aef0:	040b      	lsls	r3, r1, #16
    aef2:	4e08      	ldr	r6, [pc, #32]	; (af14 <memchr+0x78>)
    aef4:	4319      	orrs	r1, r3
    aef6:	6803      	ldr	r3, [r0, #0]
    aef8:	4a07      	ldr	r2, [pc, #28]	; (af18 <memchr+0x7c>)
    aefa:	404b      	eors	r3, r1
    aefc:	189a      	adds	r2, r3, r2
    aefe:	439a      	bics	r2, r3
    af00:	4232      	tst	r2, r6
    af02:	d1e3      	bne.n	aecc <memchr+0x30>
    af04:	3c04      	subs	r4, #4
    af06:	3004      	adds	r0, #4
    af08:	2c03      	cmp	r4, #3
    af0a:	d8f4      	bhi.n	aef6 <memchr+0x5a>
    af0c:	e7dc      	b.n	aec8 <memchr+0x2c>
    af0e:	0014      	movs	r4, r2
    af10:	e7d8      	b.n	aec4 <memchr+0x28>
    af12:	46c0      	nop			; (mov r8, r8)
    af14:	80808080 	.word	0x80808080
    af18:	fefefeff 	.word	0xfefefeff

0000af1c <memcmp>:
    af1c:	b510      	push	{r4, lr}
    af1e:	2a03      	cmp	r2, #3
    af20:	d91c      	bls.n	af5c <memcmp+0x40>
    af22:	0003      	movs	r3, r0
    af24:	430b      	orrs	r3, r1
    af26:	079b      	lsls	r3, r3, #30
    af28:	d00f      	beq.n	af4a <memcmp+0x2e>
    af2a:	7803      	ldrb	r3, [r0, #0]
    af2c:	780c      	ldrb	r4, [r1, #0]
    af2e:	1882      	adds	r2, r0, r2
    af30:	42a3      	cmp	r3, r4
    af32:	d004      	beq.n	af3e <memcmp+0x22>
    af34:	e015      	b.n	af62 <memcmp+0x46>
    af36:	7803      	ldrb	r3, [r0, #0]
    af38:	780c      	ldrb	r4, [r1, #0]
    af3a:	42a3      	cmp	r3, r4
    af3c:	d111      	bne.n	af62 <memcmp+0x46>
    af3e:	3001      	adds	r0, #1
    af40:	3101      	adds	r1, #1
    af42:	4282      	cmp	r2, r0
    af44:	d1f7      	bne.n	af36 <memcmp+0x1a>
    af46:	2000      	movs	r0, #0
    af48:	bd10      	pop	{r4, pc}
    af4a:	6803      	ldr	r3, [r0, #0]
    af4c:	680c      	ldr	r4, [r1, #0]
    af4e:	42a3      	cmp	r3, r4
    af50:	d1eb      	bne.n	af2a <memcmp+0xe>
    af52:	3a04      	subs	r2, #4
    af54:	3004      	adds	r0, #4
    af56:	3104      	adds	r1, #4
    af58:	2a03      	cmp	r2, #3
    af5a:	d8f6      	bhi.n	af4a <memcmp+0x2e>
    af5c:	2a00      	cmp	r2, #0
    af5e:	d1e4      	bne.n	af2a <memcmp+0xe>
    af60:	e7f1      	b.n	af46 <memcmp+0x2a>
    af62:	1b18      	subs	r0, r3, r4
    af64:	e7f0      	b.n	af48 <memcmp+0x2c>
    af66:	46c0      	nop			; (mov r8, r8)

0000af68 <__malloc_lock>:
    af68:	b510      	push	{r4, lr}
    af6a:	4802      	ldr	r0, [pc, #8]	; (af74 <__malloc_lock+0xc>)
    af6c:	f7ff fcc8 	bl	a900 <__retarget_lock_acquire_recursive>
    af70:	bd10      	pop	{r4, pc}
    af72:	46c0      	nop			; (mov r8, r8)
    af74:	20000d00 	.word	0x20000d00

0000af78 <__malloc_unlock>:
    af78:	b510      	push	{r4, lr}
    af7a:	4802      	ldr	r0, [pc, #8]	; (af84 <__malloc_unlock+0xc>)
    af7c:	f7ff fcc2 	bl	a904 <__retarget_lock_release_recursive>
    af80:	bd10      	pop	{r4, pc}
    af82:	46c0      	nop			; (mov r8, r8)
    af84:	20000d00 	.word	0x20000d00

0000af88 <_Balloc>:
    af88:	b570      	push	{r4, r5, r6, lr}
    af8a:	0004      	movs	r4, r0
    af8c:	6cc0      	ldr	r0, [r0, #76]	; 0x4c
    af8e:	000d      	movs	r5, r1
    af90:	2800      	cmp	r0, #0
    af92:	d00a      	beq.n	afaa <_Balloc+0x22>
    af94:	00ab      	lsls	r3, r5, #2
    af96:	18c3      	adds	r3, r0, r3
    af98:	6818      	ldr	r0, [r3, #0]
    af9a:	2800      	cmp	r0, #0
    af9c:	d00f      	beq.n	afbe <_Balloc+0x36>
    af9e:	6802      	ldr	r2, [r0, #0]
    afa0:	601a      	str	r2, [r3, #0]
    afa2:	2300      	movs	r3, #0
    afa4:	6103      	str	r3, [r0, #16]
    afa6:	60c3      	str	r3, [r0, #12]
    afa8:	bd70      	pop	{r4, r5, r6, pc}
    afaa:	2221      	movs	r2, #33	; 0x21
    afac:	2104      	movs	r1, #4
    afae:	0020      	movs	r0, r4
    afb0:	f000 fcca 	bl	b948 <_calloc_r>
    afb4:	64e0      	str	r0, [r4, #76]	; 0x4c
    afb6:	2800      	cmp	r0, #0
    afb8:	d1ec      	bne.n	af94 <_Balloc+0xc>
    afba:	2000      	movs	r0, #0
    afbc:	e7f4      	b.n	afa8 <_Balloc+0x20>
    afbe:	2601      	movs	r6, #1
    afc0:	40ae      	lsls	r6, r5
    afc2:	1d72      	adds	r2, r6, #5
    afc4:	0092      	lsls	r2, r2, #2
    afc6:	2101      	movs	r1, #1
    afc8:	0020      	movs	r0, r4
    afca:	f000 fcbd 	bl	b948 <_calloc_r>
    afce:	2800      	cmp	r0, #0
    afd0:	d0f3      	beq.n	afba <_Balloc+0x32>
    afd2:	6045      	str	r5, [r0, #4]
    afd4:	6086      	str	r6, [r0, #8]
    afd6:	e7e4      	b.n	afa2 <_Balloc+0x1a>

0000afd8 <_Bfree>:
    afd8:	2900      	cmp	r1, #0
    afda:	d006      	beq.n	afea <_Bfree+0x12>
    afdc:	684b      	ldr	r3, [r1, #4]
    afde:	009a      	lsls	r2, r3, #2
    afe0:	6cc3      	ldr	r3, [r0, #76]	; 0x4c
    afe2:	189b      	adds	r3, r3, r2
    afe4:	681a      	ldr	r2, [r3, #0]
    afe6:	600a      	str	r2, [r1, #0]
    afe8:	6019      	str	r1, [r3, #0]
    afea:	4770      	bx	lr

0000afec <__multadd>:
    afec:	b5f8      	push	{r3, r4, r5, r6, r7, lr}
    afee:	46ce      	mov	lr, r9
    aff0:	4647      	mov	r7, r8
    aff2:	4681      	mov	r9, r0
    aff4:	0008      	movs	r0, r1
    aff6:	b580      	push	{r7, lr}
    aff8:	000d      	movs	r5, r1
    affa:	690c      	ldr	r4, [r1, #16]
    affc:	001f      	movs	r7, r3
    affe:	2100      	movs	r1, #0
    b000:	3014      	adds	r0, #20
    b002:	6803      	ldr	r3, [r0, #0]
    b004:	3101      	adds	r1, #1
    b006:	041e      	lsls	r6, r3, #16
    b008:	0c36      	lsrs	r6, r6, #16
    b00a:	4356      	muls	r6, r2
    b00c:	0c1b      	lsrs	r3, r3, #16
    b00e:	4353      	muls	r3, r2
    b010:	19f6      	adds	r6, r6, r7
    b012:	0c37      	lsrs	r7, r6, #16
    b014:	19db      	adds	r3, r3, r7
    b016:	0436      	lsls	r6, r6, #16
    b018:	0c1f      	lsrs	r7, r3, #16
    b01a:	0c36      	lsrs	r6, r6, #16
    b01c:	041b      	lsls	r3, r3, #16
    b01e:	199b      	adds	r3, r3, r6
    b020:	c008      	stmia	r0!, {r3}
    b022:	428c      	cmp	r4, r1
    b024:	dced      	bgt.n	b002 <__multadd+0x16>
    b026:	2f00      	cmp	r7, #0
    b028:	d008      	beq.n	b03c <__multadd+0x50>
    b02a:	68ab      	ldr	r3, [r5, #8]
    b02c:	429c      	cmp	r4, r3
    b02e:	da0a      	bge.n	b046 <__multadd+0x5a>
    b030:	1d23      	adds	r3, r4, #4
    b032:	009b      	lsls	r3, r3, #2
    b034:	18eb      	adds	r3, r5, r3
    b036:	3401      	adds	r4, #1
    b038:	605f      	str	r7, [r3, #4]
    b03a:	612c      	str	r4, [r5, #16]
    b03c:	0028      	movs	r0, r5
    b03e:	bc0c      	pop	{r2, r3}
    b040:	4690      	mov	r8, r2
    b042:	4699      	mov	r9, r3
    b044:	bdf8      	pop	{r3, r4, r5, r6, r7, pc}
    b046:	686b      	ldr	r3, [r5, #4]
    b048:	4648      	mov	r0, r9
    b04a:	1c59      	adds	r1, r3, #1
    b04c:	f7ff ff9c 	bl	af88 <_Balloc>
    b050:	0029      	movs	r1, r5
    b052:	692b      	ldr	r3, [r5, #16]
    b054:	4680      	mov	r8, r0
    b056:	1c9a      	adds	r2, r3, #2
    b058:	0092      	lsls	r2, r2, #2
    b05a:	310c      	adds	r1, #12
    b05c:	300c      	adds	r0, #12
    b05e:	f7fc fc63 	bl	7928 <memcpy>
    b062:	686b      	ldr	r3, [r5, #4]
    b064:	009a      	lsls	r2, r3, #2
    b066:	464b      	mov	r3, r9
    b068:	6cdb      	ldr	r3, [r3, #76]	; 0x4c
    b06a:	189b      	adds	r3, r3, r2
    b06c:	681a      	ldr	r2, [r3, #0]
    b06e:	602a      	str	r2, [r5, #0]
    b070:	601d      	str	r5, [r3, #0]
    b072:	4645      	mov	r5, r8
    b074:	e7dc      	b.n	b030 <__multadd+0x44>
    b076:	46c0      	nop			; (mov r8, r8)

0000b078 <__hi0bits>:
    b078:	0003      	movs	r3, r0
    b07a:	0c02      	lsrs	r2, r0, #16
    b07c:	2000      	movs	r0, #0
    b07e:	2a00      	cmp	r2, #0
    b080:	d101      	bne.n	b086 <__hi0bits+0xe>
    b082:	041b      	lsls	r3, r3, #16
    b084:	3010      	adds	r0, #16
    b086:	0e1a      	lsrs	r2, r3, #24
    b088:	d101      	bne.n	b08e <__hi0bits+0x16>
    b08a:	3008      	adds	r0, #8
    b08c:	021b      	lsls	r3, r3, #8
    b08e:	0f1a      	lsrs	r2, r3, #28
    b090:	d101      	bne.n	b096 <__hi0bits+0x1e>
    b092:	3004      	adds	r0, #4
    b094:	011b      	lsls	r3, r3, #4
    b096:	0f9a      	lsrs	r2, r3, #30
    b098:	d101      	bne.n	b09e <__hi0bits+0x26>
    b09a:	3002      	adds	r0, #2
    b09c:	009b      	lsls	r3, r3, #2
    b09e:	2b00      	cmp	r3, #0
    b0a0:	db03      	blt.n	b0aa <__hi0bits+0x32>
    b0a2:	3001      	adds	r0, #1
    b0a4:	005b      	lsls	r3, r3, #1
    b0a6:	d400      	bmi.n	b0aa <__hi0bits+0x32>
    b0a8:	2020      	movs	r0, #32
    b0aa:	4770      	bx	lr

0000b0ac <__lo0bits>:
    b0ac:	6803      	ldr	r3, [r0, #0]
    b0ae:	075a      	lsls	r2, r3, #29
    b0b0:	d009      	beq.n	b0c6 <__lo0bits+0x1a>
    b0b2:	2200      	movs	r2, #0
    b0b4:	07d9      	lsls	r1, r3, #31
    b0b6:	d404      	bmi.n	b0c2 <__lo0bits+0x16>
    b0b8:	079a      	lsls	r2, r3, #30
    b0ba:	d420      	bmi.n	b0fe <__lo0bits+0x52>
    b0bc:	2202      	movs	r2, #2
    b0be:	089b      	lsrs	r3, r3, #2
    b0c0:	6003      	str	r3, [r0, #0]
    b0c2:	0010      	movs	r0, r2
    b0c4:	4770      	bx	lr
    b0c6:	0419      	lsls	r1, r3, #16
    b0c8:	2200      	movs	r2, #0
    b0ca:	2900      	cmp	r1, #0
    b0cc:	d101      	bne.n	b0d2 <__lo0bits+0x26>
    b0ce:	0c1b      	lsrs	r3, r3, #16
    b0d0:	3210      	adds	r2, #16
    b0d2:	21ff      	movs	r1, #255	; 0xff
    b0d4:	4219      	tst	r1, r3
    b0d6:	d101      	bne.n	b0dc <__lo0bits+0x30>
    b0d8:	3208      	adds	r2, #8
    b0da:	0a1b      	lsrs	r3, r3, #8
    b0dc:	0719      	lsls	r1, r3, #28
    b0de:	d101      	bne.n	b0e4 <__lo0bits+0x38>
    b0e0:	3204      	adds	r2, #4
    b0e2:	091b      	lsrs	r3, r3, #4
    b0e4:	0799      	lsls	r1, r3, #30
    b0e6:	d101      	bne.n	b0ec <__lo0bits+0x40>
    b0e8:	3202      	adds	r2, #2
    b0ea:	089b      	lsrs	r3, r3, #2
    b0ec:	07d9      	lsls	r1, r3, #31
    b0ee:	d404      	bmi.n	b0fa <__lo0bits+0x4e>
    b0f0:	085b      	lsrs	r3, r3, #1
    b0f2:	d101      	bne.n	b0f8 <__lo0bits+0x4c>
    b0f4:	2220      	movs	r2, #32
    b0f6:	e7e4      	b.n	b0c2 <__lo0bits+0x16>
    b0f8:	3201      	adds	r2, #1
    b0fa:	6003      	str	r3, [r0, #0]
    b0fc:	e7e1      	b.n	b0c2 <__lo0bits+0x16>
    b0fe:	085b      	lsrs	r3, r3, #1
    b100:	6003      	str	r3, [r0, #0]
    b102:	2201      	movs	r2, #1
    b104:	e7dd      	b.n	b0c2 <__lo0bits+0x16>
    b106:	46c0      	nop			; (mov r8, r8)

0000b108 <__i2b>:
    b108:	b510      	push	{r4, lr}
    b10a:	000c      	movs	r4, r1
    b10c:	2101      	movs	r1, #1
    b10e:	f7ff ff3b 	bl	af88 <_Balloc>
    b112:	2301      	movs	r3, #1
    b114:	6144      	str	r4, [r0, #20]
    b116:	6103      	str	r3, [r0, #16]
    b118:	bd10      	pop	{r4, pc}
    b11a:	46c0      	nop			; (mov r8, r8)

0000b11c <__multiply>:
    b11c:	b5f0      	push	{r4, r5, r6, r7, lr}
    b11e:	4657      	mov	r7, sl
    b120:	464e      	mov	r6, r9
    b122:	4645      	mov	r5, r8
    b124:	46de      	mov	lr, fp
    b126:	b5e0      	push	{r5, r6, r7, lr}
    b128:	6914      	ldr	r4, [r2, #16]
    b12a:	690e      	ldr	r6, [r1, #16]
    b12c:	b085      	sub	sp, #20
    b12e:	000f      	movs	r7, r1
    b130:	0015      	movs	r5, r2
    b132:	42a6      	cmp	r6, r4
    b134:	da04      	bge.n	b140 <__multiply+0x24>
    b136:	0033      	movs	r3, r6
    b138:	0017      	movs	r7, r2
    b13a:	0026      	movs	r6, r4
    b13c:	000d      	movs	r5, r1
    b13e:	001c      	movs	r4, r3
    b140:	1933      	adds	r3, r6, r4
    b142:	4698      	mov	r8, r3
    b144:	68bb      	ldr	r3, [r7, #8]
    b146:	6879      	ldr	r1, [r7, #4]
    b148:	4598      	cmp	r8, r3
    b14a:	dd00      	ble.n	b14e <__multiply+0x32>
    b14c:	3101      	adds	r1, #1
    b14e:	f7ff ff1b 	bl	af88 <_Balloc>
    b152:	2214      	movs	r2, #20
    b154:	0003      	movs	r3, r0
    b156:	4694      	mov	ip, r2
    b158:	4463      	add	r3, ip
    b15a:	469b      	mov	fp, r3
    b15c:	4643      	mov	r3, r8
    b15e:	009b      	lsls	r3, r3, #2
    b160:	445b      	add	r3, fp
    b162:	0019      	movs	r1, r3
    b164:	9302      	str	r3, [sp, #8]
    b166:	9003      	str	r0, [sp, #12]
    b168:	465b      	mov	r3, fp
    b16a:	2200      	movs	r2, #0
    b16c:	458b      	cmp	fp, r1
    b16e:	d203      	bcs.n	b178 <__multiply+0x5c>
    b170:	9902      	ldr	r1, [sp, #8]
    b172:	c304      	stmia	r3!, {r2}
    b174:	4299      	cmp	r1, r3
    b176:	d8fc      	bhi.n	b172 <__multiply+0x56>
    b178:	2314      	movs	r3, #20
    b17a:	00a4      	lsls	r4, r4, #2
    b17c:	469a      	mov	sl, r3
    b17e:	3714      	adds	r7, #20
    b180:	0023      	movs	r3, r4
    b182:	46bc      	mov	ip, r7
    b184:	44aa      	add	sl, r5
    b186:	00b6      	lsls	r6, r6, #2
    b188:	4453      	add	r3, sl
    b18a:	9700      	str	r7, [sp, #0]
    b18c:	44b4      	add	ip, r6
    b18e:	9301      	str	r3, [sp, #4]
    b190:	459a      	cmp	sl, r3
    b192:	d24f      	bcs.n	b234 <__multiply+0x118>
    b194:	4653      	mov	r3, sl
    b196:	681b      	ldr	r3, [r3, #0]
    b198:	041e      	lsls	r6, r3, #16
    b19a:	0c36      	lsrs	r6, r6, #16
    b19c:	d020      	beq.n	b1e0 <__multiply+0xc4>
    b19e:	465c      	mov	r4, fp
    b1a0:	2700      	movs	r7, #0
    b1a2:	9d00      	ldr	r5, [sp, #0]
    b1a4:	0021      	movs	r1, r4
    b1a6:	cc08      	ldmia	r4!, {r3}
    b1a8:	cd04      	ldmia	r5!, {r2}
    b1aa:	4699      	mov	r9, r3
    b1ac:	4648      	mov	r0, r9
    b1ae:	0413      	lsls	r3, r2, #16
    b1b0:	0c1b      	lsrs	r3, r3, #16
    b1b2:	4373      	muls	r3, r6
    b1b4:	0400      	lsls	r0, r0, #16
    b1b6:	0c00      	lsrs	r0, r0, #16
    b1b8:	181b      	adds	r3, r3, r0
    b1ba:	19d8      	adds	r0, r3, r7
    b1bc:	0c13      	lsrs	r3, r2, #16
    b1be:	464a      	mov	r2, r9
    b1c0:	4373      	muls	r3, r6
    b1c2:	0c12      	lsrs	r2, r2, #16
    b1c4:	189b      	adds	r3, r3, r2
    b1c6:	0c02      	lsrs	r2, r0, #16
    b1c8:	189b      	adds	r3, r3, r2
    b1ca:	0402      	lsls	r2, r0, #16
    b1cc:	0c1f      	lsrs	r7, r3, #16
    b1ce:	0c12      	lsrs	r2, r2, #16
    b1d0:	041b      	lsls	r3, r3, #16
    b1d2:	4313      	orrs	r3, r2
    b1d4:	600b      	str	r3, [r1, #0]
    b1d6:	45ac      	cmp	ip, r5
    b1d8:	d8e4      	bhi.n	b1a4 <__multiply+0x88>
    b1da:	4653      	mov	r3, sl
    b1dc:	6027      	str	r7, [r4, #0]
    b1de:	681b      	ldr	r3, [r3, #0]
    b1e0:	0c1e      	lsrs	r6, r3, #16
    b1e2:	d020      	beq.n	b226 <__multiply+0x10a>
    b1e4:	465b      	mov	r3, fp
    b1e6:	2100      	movs	r1, #0
    b1e8:	681b      	ldr	r3, [r3, #0]
    b1ea:	465c      	mov	r4, fp
    b1ec:	0018      	movs	r0, r3
    b1ee:	000f      	movs	r7, r1
    b1f0:	4662      	mov	r2, ip
    b1f2:	9d00      	ldr	r5, [sp, #0]
    b1f4:	8829      	ldrh	r1, [r5, #0]
    b1f6:	0c00      	lsrs	r0, r0, #16
    b1f8:	4371      	muls	r1, r6
    b1fa:	1809      	adds	r1, r1, r0
    b1fc:	19c9      	adds	r1, r1, r7
    b1fe:	041b      	lsls	r3, r3, #16
    b200:	0408      	lsls	r0, r1, #16
    b202:	0c1b      	lsrs	r3, r3, #16
    b204:	4303      	orrs	r3, r0
    b206:	6023      	str	r3, [r4, #0]
    b208:	cd08      	ldmia	r5!, {r3}
    b20a:	6860      	ldr	r0, [r4, #4]
    b20c:	0c1b      	lsrs	r3, r3, #16
    b20e:	4373      	muls	r3, r6
    b210:	0407      	lsls	r7, r0, #16
    b212:	0c3f      	lsrs	r7, r7, #16
    b214:	19db      	adds	r3, r3, r7
    b216:	0c09      	lsrs	r1, r1, #16
    b218:	185b      	adds	r3, r3, r1
    b21a:	0c1f      	lsrs	r7, r3, #16
    b21c:	3404      	adds	r4, #4
    b21e:	42aa      	cmp	r2, r5
    b220:	d8e8      	bhi.n	b1f4 <__multiply+0xd8>
    b222:	4694      	mov	ip, r2
    b224:	6023      	str	r3, [r4, #0]
    b226:	2304      	movs	r3, #4
    b228:	4699      	mov	r9, r3
    b22a:	9b01      	ldr	r3, [sp, #4]
    b22c:	44ca      	add	sl, r9
    b22e:	44cb      	add	fp, r9
    b230:	4553      	cmp	r3, sl
    b232:	d8af      	bhi.n	b194 <__multiply+0x78>
    b234:	4643      	mov	r3, r8
    b236:	2b00      	cmp	r3, #0
    b238:	dd0e      	ble.n	b258 <__multiply+0x13c>
    b23a:	9b02      	ldr	r3, [sp, #8]
    b23c:	3b04      	subs	r3, #4
    b23e:	681a      	ldr	r2, [r3, #0]
    b240:	2a00      	cmp	r2, #0
    b242:	d109      	bne.n	b258 <__multiply+0x13c>
    b244:	4642      	mov	r2, r8
    b246:	e003      	b.n	b250 <__multiply+0x134>
    b248:	3b04      	subs	r3, #4
    b24a:	6819      	ldr	r1, [r3, #0]
    b24c:	2900      	cmp	r1, #0
    b24e:	d102      	bne.n	b256 <__multiply+0x13a>
    b250:	3a01      	subs	r2, #1
    b252:	2a00      	cmp	r2, #0
    b254:	d1f8      	bne.n	b248 <__multiply+0x12c>
    b256:	4690      	mov	r8, r2
    b258:	9b03      	ldr	r3, [sp, #12]
    b25a:	4642      	mov	r2, r8
    b25c:	0018      	movs	r0, r3
    b25e:	611a      	str	r2, [r3, #16]
    b260:	b005      	add	sp, #20
    b262:	bc3c      	pop	{r2, r3, r4, r5}
    b264:	4690      	mov	r8, r2
    b266:	4699      	mov	r9, r3
    b268:	46a2      	mov	sl, r4
    b26a:	46ab      	mov	fp, r5
    b26c:	bdf0      	pop	{r4, r5, r6, r7, pc}
    b26e:	46c0      	nop			; (mov r8, r8)

0000b270 <__pow5mult>:
    b270:	b5f8      	push	{r3, r4, r5, r6, r7, lr}
    b272:	4647      	mov	r7, r8
    b274:	46ce      	mov	lr, r9
    b276:	2303      	movs	r3, #3
    b278:	b580      	push	{r7, lr}
    b27a:	4680      	mov	r8, r0
    b27c:	000f      	movs	r7, r1
    b27e:	0014      	movs	r4, r2
    b280:	4013      	ands	r3, r2
    b282:	d13a      	bne.n	b2fa <__pow5mult+0x8a>
    b284:	10a4      	asrs	r4, r4, #2
    b286:	003e      	movs	r6, r7
    b288:	2c00      	cmp	r4, #0
    b28a:	d025      	beq.n	b2d8 <__pow5mult+0x68>
    b28c:	4643      	mov	r3, r8
    b28e:	6c9d      	ldr	r5, [r3, #72]	; 0x48
    b290:	2d00      	cmp	r5, #0
    b292:	d03b      	beq.n	b30c <__pow5mult+0x9c>
    b294:	003e      	movs	r6, r7
    b296:	2300      	movs	r3, #0
    b298:	2701      	movs	r7, #1
    b29a:	4699      	mov	r9, r3
    b29c:	4227      	tst	r7, r4
    b29e:	d107      	bne.n	b2b0 <__pow5mult+0x40>
    b2a0:	1064      	asrs	r4, r4, #1
    b2a2:	d019      	beq.n	b2d8 <__pow5mult+0x68>
    b2a4:	6828      	ldr	r0, [r5, #0]
    b2a6:	2800      	cmp	r0, #0
    b2a8:	d01b      	beq.n	b2e2 <__pow5mult+0x72>
    b2aa:	0005      	movs	r5, r0
    b2ac:	4227      	tst	r7, r4
    b2ae:	d0f7      	beq.n	b2a0 <__pow5mult+0x30>
    b2b0:	002a      	movs	r2, r5
    b2b2:	0031      	movs	r1, r6
    b2b4:	4640      	mov	r0, r8
    b2b6:	f7ff ff31 	bl	b11c <__multiply>
    b2ba:	2e00      	cmp	r6, #0
    b2bc:	d01b      	beq.n	b2f6 <__pow5mult+0x86>
    b2be:	4642      	mov	r2, r8
    b2c0:	6cd2      	ldr	r2, [r2, #76]	; 0x4c
    b2c2:	6873      	ldr	r3, [r6, #4]
    b2c4:	4694      	mov	ip, r2
    b2c6:	009b      	lsls	r3, r3, #2
    b2c8:	4463      	add	r3, ip
    b2ca:	681a      	ldr	r2, [r3, #0]
    b2cc:	1064      	asrs	r4, r4, #1
    b2ce:	6032      	str	r2, [r6, #0]
    b2d0:	601e      	str	r6, [r3, #0]
    b2d2:	0006      	movs	r6, r0
    b2d4:	2c00      	cmp	r4, #0
    b2d6:	d1e5      	bne.n	b2a4 <__pow5mult+0x34>
    b2d8:	0030      	movs	r0, r6
    b2da:	bc0c      	pop	{r2, r3}
    b2dc:	4690      	mov	r8, r2
    b2de:	4699      	mov	r9, r3
    b2e0:	bdf8      	pop	{r3, r4, r5, r6, r7, pc}
    b2e2:	002a      	movs	r2, r5
    b2e4:	0029      	movs	r1, r5
    b2e6:	4640      	mov	r0, r8
    b2e8:	f7ff ff18 	bl	b11c <__multiply>
    b2ec:	464b      	mov	r3, r9
    b2ee:	6028      	str	r0, [r5, #0]
    b2f0:	6003      	str	r3, [r0, #0]
    b2f2:	0005      	movs	r5, r0
    b2f4:	e7da      	b.n	b2ac <__pow5mult+0x3c>
    b2f6:	0006      	movs	r6, r0
    b2f8:	e7d2      	b.n	b2a0 <__pow5mult+0x30>
    b2fa:	4a0b      	ldr	r2, [pc, #44]	; (b328 <__pow5mult+0xb8>)
    b2fc:	3b01      	subs	r3, #1
    b2fe:	009b      	lsls	r3, r3, #2
    b300:	589a      	ldr	r2, [r3, r2]
    b302:	2300      	movs	r3, #0
    b304:	f7ff fe72 	bl	afec <__multadd>
    b308:	0007      	movs	r7, r0
    b30a:	e7bb      	b.n	b284 <__pow5mult+0x14>
    b30c:	2101      	movs	r1, #1
    b30e:	4640      	mov	r0, r8
    b310:	f7ff fe3a 	bl	af88 <_Balloc>
    b314:	4b05      	ldr	r3, [pc, #20]	; (b32c <__pow5mult+0xbc>)
    b316:	0005      	movs	r5, r0
    b318:	6143      	str	r3, [r0, #20]
    b31a:	2301      	movs	r3, #1
    b31c:	6103      	str	r3, [r0, #16]
    b31e:	4643      	mov	r3, r8
    b320:	6498      	str	r0, [r3, #72]	; 0x48
    b322:	2300      	movs	r3, #0
    b324:	6003      	str	r3, [r0, #0]
    b326:	e7b5      	b.n	b294 <__pow5mult+0x24>
    b328:	0000d700 	.word	0x0000d700
    b32c:	00000271 	.word	0x00000271

0000b330 <__lshift>:
    b330:	b5f8      	push	{r3, r4, r5, r6, r7, lr}
    b332:	464e      	mov	r6, r9
    b334:	4645      	mov	r5, r8
    b336:	46de      	mov	lr, fp
    b338:	4657      	mov	r7, sl
    b33a:	b5e0      	push	{r5, r6, r7, lr}
    b33c:	000e      	movs	r6, r1
    b33e:	6933      	ldr	r3, [r6, #16]
    b340:	1154      	asrs	r4, r2, #5
    b342:	4698      	mov	r8, r3
    b344:	44a0      	add	r8, r4
    b346:	4643      	mov	r3, r8
    b348:	1c5d      	adds	r5, r3, #1
    b34a:	68b3      	ldr	r3, [r6, #8]
    b34c:	4683      	mov	fp, r0
    b34e:	4691      	mov	r9, r2
    b350:	6849      	ldr	r1, [r1, #4]
    b352:	429d      	cmp	r5, r3
    b354:	dd03      	ble.n	b35e <__lshift+0x2e>
    b356:	3101      	adds	r1, #1
    b358:	005b      	lsls	r3, r3, #1
    b35a:	429d      	cmp	r5, r3
    b35c:	dcfb      	bgt.n	b356 <__lshift+0x26>
    b35e:	4658      	mov	r0, fp
    b360:	f7ff fe12 	bl	af88 <_Balloc>
    b364:	0003      	movs	r3, r0
    b366:	4684      	mov	ip, r0
    b368:	3314      	adds	r3, #20
    b36a:	2c00      	cmp	r4, #0
    b36c:	dd06      	ble.n	b37c <__lshift+0x4c>
    b36e:	2100      	movs	r1, #0
    b370:	00a4      	lsls	r4, r4, #2
    b372:	001a      	movs	r2, r3
    b374:	191b      	adds	r3, r3, r4
    b376:	c202      	stmia	r2!, {r1}
    b378:	4293      	cmp	r3, r2
    b37a:	d1fc      	bne.n	b376 <__lshift+0x46>
    b37c:	6932      	ldr	r2, [r6, #16]
    b37e:	4648      	mov	r0, r9
    b380:	0097      	lsls	r7, r2, #2
    b382:	0031      	movs	r1, r6
    b384:	221f      	movs	r2, #31
    b386:	3114      	adds	r1, #20
    b388:	4010      	ands	r0, r2
    b38a:	19cf      	adds	r7, r1, r7
    b38c:	4681      	mov	r9, r0
    b38e:	2800      	cmp	r0, #0
    b390:	d025      	beq.n	b3de <__lshift+0xae>
    b392:	2220      	movs	r2, #32
    b394:	1a12      	subs	r2, r2, r0
    b396:	4692      	mov	sl, r2
    b398:	2200      	movs	r2, #0
    b39a:	4648      	mov	r0, r9
    b39c:	680c      	ldr	r4, [r1, #0]
    b39e:	4084      	lsls	r4, r0
    b3a0:	4650      	mov	r0, sl
    b3a2:	4314      	orrs	r4, r2
    b3a4:	601c      	str	r4, [r3, #0]
    b3a6:	c904      	ldmia	r1!, {r2}
    b3a8:	3304      	adds	r3, #4
    b3aa:	40c2      	lsrs	r2, r0
    b3ac:	428f      	cmp	r7, r1
    b3ae:	d8f4      	bhi.n	b39a <__lshift+0x6a>
    b3b0:	601a      	str	r2, [r3, #0]
    b3b2:	2a00      	cmp	r2, #0
    b3b4:	d001      	beq.n	b3ba <__lshift+0x8a>
    b3b6:	4645      	mov	r5, r8
    b3b8:	3502      	adds	r5, #2
    b3ba:	4663      	mov	r3, ip
    b3bc:	3d01      	subs	r5, #1
    b3be:	611d      	str	r5, [r3, #16]
    b3c0:	6873      	ldr	r3, [r6, #4]
    b3c2:	4660      	mov	r0, ip
    b3c4:	009a      	lsls	r2, r3, #2
    b3c6:	465b      	mov	r3, fp
    b3c8:	6cdb      	ldr	r3, [r3, #76]	; 0x4c
    b3ca:	189b      	adds	r3, r3, r2
    b3cc:	681a      	ldr	r2, [r3, #0]
    b3ce:	6032      	str	r2, [r6, #0]
    b3d0:	601e      	str	r6, [r3, #0]
    b3d2:	bc3c      	pop	{r2, r3, r4, r5}
    b3d4:	4690      	mov	r8, r2
    b3d6:	4699      	mov	r9, r3
    b3d8:	46a2      	mov	sl, r4
    b3da:	46ab      	mov	fp, r5
    b3dc:	bdf8      	pop	{r3, r4, r5, r6, r7, pc}
    b3de:	c904      	ldmia	r1!, {r2}
    b3e0:	c304      	stmia	r3!, {r2}
    b3e2:	428f      	cmp	r7, r1
    b3e4:	d9e9      	bls.n	b3ba <__lshift+0x8a>
    b3e6:	c904      	ldmia	r1!, {r2}
    b3e8:	c304      	stmia	r3!, {r2}
    b3ea:	428f      	cmp	r7, r1
    b3ec:	d8f7      	bhi.n	b3de <__lshift+0xae>
    b3ee:	e7e4      	b.n	b3ba <__lshift+0x8a>

0000b3f0 <__mcmp>:
    b3f0:	690a      	ldr	r2, [r1, #16]
    b3f2:	6903      	ldr	r3, [r0, #16]
    b3f4:	b530      	push	{r4, r5, lr}
    b3f6:	0005      	movs	r5, r0
    b3f8:	1a98      	subs	r0, r3, r2
    b3fa:	d111      	bne.n	b420 <__mcmp+0x30>
    b3fc:	0092      	lsls	r2, r2, #2
    b3fe:	3514      	adds	r5, #20
    b400:	3114      	adds	r1, #20
    b402:	18ab      	adds	r3, r5, r2
    b404:	1889      	adds	r1, r1, r2
    b406:	e001      	b.n	b40c <__mcmp+0x1c>
    b408:	429d      	cmp	r5, r3
    b40a:	d209      	bcs.n	b420 <__mcmp+0x30>
    b40c:	3b04      	subs	r3, #4
    b40e:	3904      	subs	r1, #4
    b410:	681c      	ldr	r4, [r3, #0]
    b412:	680a      	ldr	r2, [r1, #0]
    b414:	4294      	cmp	r4, r2
    b416:	d0f7      	beq.n	b408 <__mcmp+0x18>
    b418:	4294      	cmp	r4, r2
    b41a:	4180      	sbcs	r0, r0
    b41c:	2201      	movs	r2, #1
    b41e:	4310      	orrs	r0, r2
    b420:	bd30      	pop	{r4, r5, pc}
    b422:	46c0      	nop			; (mov r8, r8)

0000b424 <__mdiff>:
    b424:	b5f8      	push	{r3, r4, r5, r6, r7, lr}
    b426:	4645      	mov	r5, r8
    b428:	46de      	mov	lr, fp
    b42a:	4657      	mov	r7, sl
    b42c:	464e      	mov	r6, r9
    b42e:	0014      	movs	r4, r2
    b430:	690b      	ldr	r3, [r1, #16]
    b432:	6912      	ldr	r2, [r2, #16]
    b434:	b5e0      	push	{r5, r6, r7, lr}
    b436:	4688      	mov	r8, r1
    b438:	1a9d      	subs	r5, r3, r2
    b43a:	d11a      	bne.n	b472 <__mdiff+0x4e>
    b43c:	000f      	movs	r7, r1
    b43e:	2114      	movs	r1, #20
    b440:	468c      	mov	ip, r1
    b442:	0092      	lsls	r2, r2, #2
    b444:	3714      	adds	r7, #20
    b446:	44a4      	add	ip, r4
    b448:	18bb      	adds	r3, r7, r2
    b44a:	4462      	add	r2, ip
    b44c:	e002      	b.n	b454 <__mdiff+0x30>
    b44e:	429f      	cmp	r7, r3
    b450:	d300      	bcc.n	b454 <__mdiff+0x30>
    b452:	e070      	b.n	b536 <__mdiff+0x112>
    b454:	3b04      	subs	r3, #4
    b456:	3a04      	subs	r2, #4
    b458:	681e      	ldr	r6, [r3, #0]
    b45a:	6811      	ldr	r1, [r2, #0]
    b45c:	428e      	cmp	r6, r1
    b45e:	d0f6      	beq.n	b44e <__mdiff+0x2a>
    b460:	d300      	bcc.n	b464 <__mdiff+0x40>
    b462:	e071      	b.n	b548 <__mdiff+0x124>
    b464:	4643      	mov	r3, r8
    b466:	003e      	movs	r6, r7
    b468:	46a0      	mov	r8, r4
    b46a:	4667      	mov	r7, ip
    b46c:	001c      	movs	r4, r3
    b46e:	2501      	movs	r5, #1
    b470:	e006      	b.n	b480 <__mdiff+0x5c>
    b472:	2d00      	cmp	r5, #0
    b474:	db6a      	blt.n	b54c <__mdiff+0x128>
    b476:	4647      	mov	r7, r8
    b478:	0026      	movs	r6, r4
    b47a:	2500      	movs	r5, #0
    b47c:	3714      	adds	r7, #20
    b47e:	3614      	adds	r6, #20
    b480:	4643      	mov	r3, r8
    b482:	6859      	ldr	r1, [r3, #4]
    b484:	f7ff fd80 	bl	af88 <_Balloc>
    b488:	4643      	mov	r3, r8
    b48a:	4681      	mov	r9, r0
    b48c:	60c5      	str	r5, [r0, #12]
    b48e:	6918      	ldr	r0, [r3, #16]
    b490:	464d      	mov	r5, r9
    b492:	0083      	lsls	r3, r0, #2
    b494:	469c      	mov	ip, r3
    b496:	6923      	ldr	r3, [r4, #16]
    b498:	44bc      	add	ip, r7
    b49a:	009b      	lsls	r3, r3, #2
    b49c:	4698      	mov	r8, r3
    b49e:	2300      	movs	r3, #0
    b4a0:	44b0      	add	r8, r6
    b4a2:	3514      	adds	r5, #20
    b4a4:	469a      	mov	sl, r3
    b4a6:	e000      	b.n	b4aa <__mdiff+0x86>
    b4a8:	0027      	movs	r7, r4
    b4aa:	ce04      	ldmia	r6!, {r2}
    b4ac:	003c      	movs	r4, r7
    b4ae:	4693      	mov	fp, r2
    b4b0:	4659      	mov	r1, fp
    b4b2:	cc08      	ldmia	r4!, {r3}
    b4b4:	0409      	lsls	r1, r1, #16
    b4b6:	041a      	lsls	r2, r3, #16
    b4b8:	0c12      	lsrs	r2, r2, #16
    b4ba:	4452      	add	r2, sl
    b4bc:	0c09      	lsrs	r1, r1, #16
    b4be:	1a52      	subs	r2, r2, r1
    b4c0:	0c19      	lsrs	r1, r3, #16
    b4c2:	465b      	mov	r3, fp
    b4c4:	0c1b      	lsrs	r3, r3, #16
    b4c6:	1acb      	subs	r3, r1, r3
    b4c8:	1411      	asrs	r1, r2, #16
    b4ca:	185b      	adds	r3, r3, r1
    b4cc:	0412      	lsls	r2, r2, #16
    b4ce:	1419      	asrs	r1, r3, #16
    b4d0:	0c12      	lsrs	r2, r2, #16
    b4d2:	041b      	lsls	r3, r3, #16
    b4d4:	468a      	mov	sl, r1
    b4d6:	4313      	orrs	r3, r2
    b4d8:	1d29      	adds	r1, r5, #4
    b4da:	602b      	str	r3, [r5, #0]
    b4dc:	000d      	movs	r5, r1
    b4de:	45b0      	cmp	r8, r6
    b4e0:	d8e2      	bhi.n	b4a8 <__mdiff+0x84>
    b4e2:	45a4      	cmp	ip, r4
    b4e4:	d916      	bls.n	b514 <__mdiff+0xf0>
    b4e6:	cc08      	ldmia	r4!, {r3}
    b4e8:	041a      	lsls	r2, r3, #16
    b4ea:	0c12      	lsrs	r2, r2, #16
    b4ec:	4452      	add	r2, sl
    b4ee:	1416      	asrs	r6, r2, #16
    b4f0:	0c1b      	lsrs	r3, r3, #16
    b4f2:	199b      	adds	r3, r3, r6
    b4f4:	0412      	lsls	r2, r2, #16
    b4f6:	141e      	asrs	r6, r3, #16
    b4f8:	0c12      	lsrs	r2, r2, #16
    b4fa:	041b      	lsls	r3, r3, #16
    b4fc:	4313      	orrs	r3, r2
    b4fe:	46b2      	mov	sl, r6
    b500:	c508      	stmia	r5!, {r3}
    b502:	45a4      	cmp	ip, r4
    b504:	d8ef      	bhi.n	b4e6 <__mdiff+0xc2>
    b506:	4662      	mov	r2, ip
    b508:	2403      	movs	r4, #3
    b50a:	1bd2      	subs	r2, r2, r7
    b50c:	3a05      	subs	r2, #5
    b50e:	43a2      	bics	r2, r4
    b510:	3204      	adds	r2, #4
    b512:	1889      	adds	r1, r1, r2
    b514:	3904      	subs	r1, #4
    b516:	2b00      	cmp	r3, #0
    b518:	d104      	bne.n	b524 <__mdiff+0x100>
    b51a:	3904      	subs	r1, #4
    b51c:	680b      	ldr	r3, [r1, #0]
    b51e:	3801      	subs	r0, #1
    b520:	2b00      	cmp	r3, #0
    b522:	d0fa      	beq.n	b51a <__mdiff+0xf6>
    b524:	464b      	mov	r3, r9
    b526:	6118      	str	r0, [r3, #16]
    b528:	4648      	mov	r0, r9
    b52a:	bc3c      	pop	{r2, r3, r4, r5}
    b52c:	4690      	mov	r8, r2
    b52e:	4699      	mov	r9, r3
    b530:	46a2      	mov	sl, r4
    b532:	46ab      	mov	fp, r5
    b534:	bdf8      	pop	{r3, r4, r5, r6, r7, pc}
    b536:	2100      	movs	r1, #0
    b538:	f7ff fd26 	bl	af88 <_Balloc>
    b53c:	2301      	movs	r3, #1
    b53e:	6103      	str	r3, [r0, #16]
    b540:	2300      	movs	r3, #0
    b542:	4681      	mov	r9, r0
    b544:	6143      	str	r3, [r0, #20]
    b546:	e7ef      	b.n	b528 <__mdiff+0x104>
    b548:	4666      	mov	r6, ip
    b54a:	e799      	b.n	b480 <__mdiff+0x5c>
    b54c:	0027      	movs	r7, r4
    b54e:	000e      	movs	r6, r1
    b550:	46a0      	mov	r8, r4
    b552:	3714      	adds	r7, #20
    b554:	3614      	adds	r6, #20
    b556:	000c      	movs	r4, r1
    b558:	2501      	movs	r5, #1
    b55a:	e791      	b.n	b480 <__mdiff+0x5c>

0000b55c <__d2b>:
    b55c:	b5f0      	push	{r4, r5, r6, r7, lr}
    b55e:	2101      	movs	r1, #1
    b560:	001c      	movs	r4, r3
    b562:	b083      	sub	sp, #12
    b564:	9e08      	ldr	r6, [sp, #32]
    b566:	0015      	movs	r5, r2
    b568:	f7ff fd0e 	bl	af88 <_Balloc>
    b56c:	0323      	lsls	r3, r4, #12
    b56e:	0064      	lsls	r4, r4, #1
    b570:	0007      	movs	r7, r0
    b572:	0b1b      	lsrs	r3, r3, #12
    b574:	0d64      	lsrs	r4, r4, #21
    b576:	d002      	beq.n	b57e <__d2b+0x22>
    b578:	2280      	movs	r2, #128	; 0x80
    b57a:	0352      	lsls	r2, r2, #13
    b57c:	4313      	orrs	r3, r2
    b57e:	9301      	str	r3, [sp, #4]
    b580:	2d00      	cmp	r5, #0
    b582:	d019      	beq.n	b5b8 <__d2b+0x5c>
    b584:	4668      	mov	r0, sp
    b586:	9500      	str	r5, [sp, #0]
    b588:	f7ff fd90 	bl	b0ac <__lo0bits>
    b58c:	2800      	cmp	r0, #0
    b58e:	d130      	bne.n	b5f2 <__d2b+0x96>
    b590:	9b00      	ldr	r3, [sp, #0]
    b592:	617b      	str	r3, [r7, #20]
    b594:	9b01      	ldr	r3, [sp, #4]
    b596:	61bb      	str	r3, [r7, #24]
    b598:	1e5a      	subs	r2, r3, #1
    b59a:	4193      	sbcs	r3, r2
    b59c:	1c5d      	adds	r5, r3, #1
    b59e:	613d      	str	r5, [r7, #16]
    b5a0:	2c00      	cmp	r4, #0
    b5a2:	d014      	beq.n	b5ce <__d2b+0x72>
    b5a4:	4b19      	ldr	r3, [pc, #100]	; (b60c <__d2b+0xb0>)
    b5a6:	469c      	mov	ip, r3
    b5a8:	2335      	movs	r3, #53	; 0x35
    b5aa:	4464      	add	r4, ip
    b5ac:	1824      	adds	r4, r4, r0
    b5ae:	1a18      	subs	r0, r3, r0
    b5b0:	9b09      	ldr	r3, [sp, #36]	; 0x24
    b5b2:	6034      	str	r4, [r6, #0]
    b5b4:	6018      	str	r0, [r3, #0]
    b5b6:	e019      	b.n	b5ec <__d2b+0x90>
    b5b8:	a801      	add	r0, sp, #4
    b5ba:	f7ff fd77 	bl	b0ac <__lo0bits>
    b5be:	9b01      	ldr	r3, [sp, #4]
    b5c0:	3020      	adds	r0, #32
    b5c2:	617b      	str	r3, [r7, #20]
    b5c4:	2301      	movs	r3, #1
    b5c6:	2501      	movs	r5, #1
    b5c8:	613b      	str	r3, [r7, #16]
    b5ca:	2c00      	cmp	r4, #0
    b5cc:	d1ea      	bne.n	b5a4 <__d2b+0x48>
    b5ce:	4b10      	ldr	r3, [pc, #64]	; (b610 <__d2b+0xb4>)
    b5d0:	469c      	mov	ip, r3
    b5d2:	4b10      	ldr	r3, [pc, #64]	; (b614 <__d2b+0xb8>)
    b5d4:	4460      	add	r0, ip
    b5d6:	18eb      	adds	r3, r5, r3
    b5d8:	009b      	lsls	r3, r3, #2
    b5da:	18fb      	adds	r3, r7, r3
    b5dc:	6030      	str	r0, [r6, #0]
    b5de:	6958      	ldr	r0, [r3, #20]
    b5e0:	f7ff fd4a 	bl	b078 <__hi0bits>
    b5e4:	016b      	lsls	r3, r5, #5
    b5e6:	1a18      	subs	r0, r3, r0
    b5e8:	9b09      	ldr	r3, [sp, #36]	; 0x24
    b5ea:	6018      	str	r0, [r3, #0]
    b5ec:	0038      	movs	r0, r7
    b5ee:	b003      	add	sp, #12
    b5f0:	bdf0      	pop	{r4, r5, r6, r7, pc}
    b5f2:	9b01      	ldr	r3, [sp, #4]
    b5f4:	2220      	movs	r2, #32
    b5f6:	0019      	movs	r1, r3
    b5f8:	1a12      	subs	r2, r2, r0
    b5fa:	4091      	lsls	r1, r2
    b5fc:	000a      	movs	r2, r1
    b5fe:	40c3      	lsrs	r3, r0
    b600:	9900      	ldr	r1, [sp, #0]
    b602:	9301      	str	r3, [sp, #4]
    b604:	430a      	orrs	r2, r1
    b606:	617a      	str	r2, [r7, #20]
    b608:	e7c5      	b.n	b596 <__d2b+0x3a>
    b60a:	46c0      	nop			; (mov r8, r8)
    b60c:	fffffbcd 	.word	0xfffffbcd
    b610:	fffffbce 	.word	0xfffffbce
    b614:	3fffffff 	.word	0x3fffffff

0000b618 <_sbrk_r>:
    b618:	2300      	movs	r3, #0
    b61a:	b570      	push	{r4, r5, r6, lr}
    b61c:	4c06      	ldr	r4, [pc, #24]	; (b638 <_sbrk_r+0x20>)
    b61e:	0005      	movs	r5, r0
    b620:	0008      	movs	r0, r1
    b622:	6023      	str	r3, [r4, #0]
    b624:	f7f9 fdac 	bl	5180 <_sbrk>
    b628:	1c43      	adds	r3, r0, #1
    b62a:	d000      	beq.n	b62e <_sbrk_r+0x16>
    b62c:	bd70      	pop	{r4, r5, r6, pc}
    b62e:	6823      	ldr	r3, [r4, #0]
    b630:	2b00      	cmp	r3, #0
    b632:	d0fb      	beq.n	b62c <_sbrk_r+0x14>
    b634:	602b      	str	r3, [r5, #0]
    b636:	e7f9      	b.n	b62c <_sbrk_r+0x14>
    b638:	20000d14 	.word	0x20000d14

0000b63c <strchr>:
    b63c:	b570      	push	{r4, r5, r6, lr}
    b63e:	b2cc      	uxtb	r4, r1
    b640:	2c00      	cmp	r4, #0
    b642:	d03b      	beq.n	b6bc <strchr+0x80>
    b644:	0783      	lsls	r3, r0, #30
    b646:	d00e      	beq.n	b666 <strchr+0x2a>
    b648:	7803      	ldrb	r3, [r0, #0]
    b64a:	2b00      	cmp	r3, #0
    b64c:	d05b      	beq.n	b706 <strchr+0xca>
    b64e:	429c      	cmp	r4, r3
    b650:	d033      	beq.n	b6ba <strchr+0x7e>
    b652:	2203      	movs	r2, #3
    b654:	e004      	b.n	b660 <strchr+0x24>
    b656:	7803      	ldrb	r3, [r0, #0]
    b658:	2b00      	cmp	r3, #0
    b65a:	d054      	beq.n	b706 <strchr+0xca>
    b65c:	429c      	cmp	r4, r3
    b65e:	d02c      	beq.n	b6ba <strchr+0x7e>
    b660:	3001      	adds	r0, #1
    b662:	4210      	tst	r0, r2
    b664:	d1f7      	bne.n	b656 <strchr+0x1a>
    b666:	25ff      	movs	r5, #255	; 0xff
    b668:	4029      	ands	r1, r5
    b66a:	020d      	lsls	r5, r1, #8
    b66c:	4329      	orrs	r1, r5
    b66e:	040d      	lsls	r5, r1, #16
    b670:	430d      	orrs	r5, r1
    b672:	0029      	movs	r1, r5
    b674:	6802      	ldr	r2, [r0, #0]
    b676:	4b26      	ldr	r3, [pc, #152]	; (b710 <strchr+0xd4>)
    b678:	4051      	eors	r1, r2
    b67a:	18d3      	adds	r3, r2, r3
    b67c:	4393      	bics	r3, r2
    b67e:	4a24      	ldr	r2, [pc, #144]	; (b710 <strchr+0xd4>)
    b680:	4e24      	ldr	r6, [pc, #144]	; (b714 <strchr+0xd8>)
    b682:	188a      	adds	r2, r1, r2
    b684:	438a      	bics	r2, r1
    b686:	4313      	orrs	r3, r2
    b688:	4233      	tst	r3, r6
    b68a:	d10c      	bne.n	b6a6 <strchr+0x6a>
    b68c:	0029      	movs	r1, r5
    b68e:	3004      	adds	r0, #4
    b690:	6802      	ldr	r2, [r0, #0]
    b692:	4b1f      	ldr	r3, [pc, #124]	; (b710 <strchr+0xd4>)
    b694:	4051      	eors	r1, r2
    b696:	18d3      	adds	r3, r2, r3
    b698:	4393      	bics	r3, r2
    b69a:	4a1d      	ldr	r2, [pc, #116]	; (b710 <strchr+0xd4>)
    b69c:	188a      	adds	r2, r1, r2
    b69e:	438a      	bics	r2, r1
    b6a0:	4313      	orrs	r3, r2
    b6a2:	4233      	tst	r3, r6
    b6a4:	d0f2      	beq.n	b68c <strchr+0x50>
    b6a6:	7803      	ldrb	r3, [r0, #0]
    b6a8:	2b00      	cmp	r3, #0
    b6aa:	d104      	bne.n	b6b6 <strchr+0x7a>
    b6ac:	e02b      	b.n	b706 <strchr+0xca>
    b6ae:	3001      	adds	r0, #1
    b6b0:	7803      	ldrb	r3, [r0, #0]
    b6b2:	2b00      	cmp	r3, #0
    b6b4:	d027      	beq.n	b706 <strchr+0xca>
    b6b6:	429c      	cmp	r4, r3
    b6b8:	d1f9      	bne.n	b6ae <strchr+0x72>
    b6ba:	bd70      	pop	{r4, r5, r6, pc}
    b6bc:	0783      	lsls	r3, r0, #30
    b6be:	d00a      	beq.n	b6d6 <strchr+0x9a>
    b6c0:	7803      	ldrb	r3, [r0, #0]
    b6c2:	2b00      	cmp	r3, #0
    b6c4:	d0f9      	beq.n	b6ba <strchr+0x7e>
    b6c6:	2203      	movs	r2, #3
    b6c8:	e002      	b.n	b6d0 <strchr+0x94>
    b6ca:	7803      	ldrb	r3, [r0, #0]
    b6cc:	2b00      	cmp	r3, #0
    b6ce:	d0f4      	beq.n	b6ba <strchr+0x7e>
    b6d0:	3001      	adds	r0, #1
    b6d2:	4210      	tst	r0, r2
    b6d4:	d1f9      	bne.n	b6ca <strchr+0x8e>
    b6d6:	6801      	ldr	r1, [r0, #0]
    b6d8:	4a0d      	ldr	r2, [pc, #52]	; (b710 <strchr+0xd4>)
    b6da:	0003      	movs	r3, r0
    b6dc:	188a      	adds	r2, r1, r2
    b6de:	480d      	ldr	r0, [pc, #52]	; (b714 <strchr+0xd8>)
    b6e0:	438a      	bics	r2, r1
    b6e2:	4202      	tst	r2, r0
    b6e4:	d106      	bne.n	b6f4 <strchr+0xb8>
    b6e6:	3304      	adds	r3, #4
    b6e8:	6819      	ldr	r1, [r3, #0]
    b6ea:	4a09      	ldr	r2, [pc, #36]	; (b710 <strchr+0xd4>)
    b6ec:	188a      	adds	r2, r1, r2
    b6ee:	438a      	bics	r2, r1
    b6f0:	4202      	tst	r2, r0
    b6f2:	d0f8      	beq.n	b6e6 <strchr+0xaa>
    b6f4:	781a      	ldrb	r2, [r3, #0]
    b6f6:	0018      	movs	r0, r3
    b6f8:	2a00      	cmp	r2, #0
    b6fa:	d006      	beq.n	b70a <strchr+0xce>
    b6fc:	3001      	adds	r0, #1
    b6fe:	7803      	ldrb	r3, [r0, #0]
    b700:	2b00      	cmp	r3, #0
    b702:	d1fb      	bne.n	b6fc <strchr+0xc0>
    b704:	e7d9      	b.n	b6ba <strchr+0x7e>
    b706:	2000      	movs	r0, #0
    b708:	e7d7      	b.n	b6ba <strchr+0x7e>
    b70a:	0018      	movs	r0, r3
    b70c:	e7d5      	b.n	b6ba <strchr+0x7e>
    b70e:	46c0      	nop			; (mov r8, r8)
    b710:	fefefeff 	.word	0xfefefeff
    b714:	80808080 	.word	0x80808080

0000b718 <__ssprint_r>:
    b718:	b5f0      	push	{r4, r5, r6, r7, lr}
    b71a:	4657      	mov	r7, sl
    b71c:	464e      	mov	r6, r9
    b71e:	46de      	mov	lr, fp
    b720:	4645      	mov	r5, r8
    b722:	b5e0      	push	{r5, r6, r7, lr}
    b724:	6893      	ldr	r3, [r2, #8]
    b726:	b083      	sub	sp, #12
    b728:	9001      	str	r0, [sp, #4]
    b72a:	000e      	movs	r6, r1
    b72c:	4692      	mov	sl, r2
    b72e:	2b00      	cmp	r3, #0
    b730:	d070      	beq.n	b814 <__ssprint_r+0xfc>
    b732:	688d      	ldr	r5, [r1, #8]
    b734:	6813      	ldr	r3, [r2, #0]
    b736:	002c      	movs	r4, r5
    b738:	6808      	ldr	r0, [r1, #0]
    b73a:	001d      	movs	r5, r3
    b73c:	e046      	b.n	b7cc <__ssprint_r+0xb4>
    b73e:	2290      	movs	r2, #144	; 0x90
    b740:	89b3      	ldrh	r3, [r6, #12]
    b742:	00d2      	lsls	r2, r2, #3
    b744:	4213      	tst	r3, r2
    b746:	d030      	beq.n	b7aa <__ssprint_r+0x92>
    b748:	6931      	ldr	r1, [r6, #16]
    b74a:	1a42      	subs	r2, r0, r1
    b74c:	4693      	mov	fp, r2
    b74e:	6970      	ldr	r0, [r6, #20]
    b750:	0042      	lsls	r2, r0, #1
    b752:	1812      	adds	r2, r2, r0
    b754:	0fd0      	lsrs	r0, r2, #31
    b756:	1882      	adds	r2, r0, r2
    b758:	1052      	asrs	r2, r2, #1
    b75a:	4690      	mov	r8, r2
    b75c:	465a      	mov	r2, fp
    b75e:	1c50      	adds	r0, r2, #1
    b760:	19c0      	adds	r0, r0, r7
    b762:	4642      	mov	r2, r8
    b764:	4540      	cmp	r0, r8
    b766:	d901      	bls.n	b76c <__ssprint_r+0x54>
    b768:	4680      	mov	r8, r0
    b76a:	0002      	movs	r2, r0
    b76c:	2080      	movs	r0, #128	; 0x80
    b76e:	00c0      	lsls	r0, r0, #3
    b770:	4203      	tst	r3, r0
    b772:	d038      	beq.n	b7e6 <__ssprint_r+0xce>
    b774:	0011      	movs	r1, r2
    b776:	9801      	ldr	r0, [sp, #4]
    b778:	f7ff f8c6 	bl	a908 <_malloc_r>
    b77c:	1e04      	subs	r4, r0, #0
    b77e:	d054      	beq.n	b82a <__ssprint_r+0x112>
    b780:	465a      	mov	r2, fp
    b782:	6931      	ldr	r1, [r6, #16]
    b784:	f7fc f8d0 	bl	7928 <memcpy>
    b788:	89b3      	ldrh	r3, [r6, #12]
    b78a:	4a2a      	ldr	r2, [pc, #168]	; (b834 <__ssprint_r+0x11c>)
    b78c:	4013      	ands	r3, r2
    b78e:	2280      	movs	r2, #128	; 0x80
    b790:	4313      	orrs	r3, r2
    b792:	81b3      	strh	r3, [r6, #12]
    b794:	4643      	mov	r3, r8
    b796:	0020      	movs	r0, r4
    b798:	465a      	mov	r2, fp
    b79a:	6134      	str	r4, [r6, #16]
    b79c:	46b8      	mov	r8, r7
    b79e:	003c      	movs	r4, r7
    b7a0:	4458      	add	r0, fp
    b7a2:	6173      	str	r3, [r6, #20]
    b7a4:	1a9b      	subs	r3, r3, r2
    b7a6:	6030      	str	r0, [r6, #0]
    b7a8:	60b3      	str	r3, [r6, #8]
    b7aa:	4642      	mov	r2, r8
    b7ac:	4649      	mov	r1, r9
    b7ae:	f000 fa25 	bl	bbfc <memmove>
    b7b2:	68b3      	ldr	r3, [r6, #8]
    b7b4:	1b1c      	subs	r4, r3, r4
    b7b6:	6833      	ldr	r3, [r6, #0]
    b7b8:	60b4      	str	r4, [r6, #8]
    b7ba:	4443      	add	r3, r8
    b7bc:	6033      	str	r3, [r6, #0]
    b7be:	0018      	movs	r0, r3
    b7c0:	4653      	mov	r3, sl
    b7c2:	689b      	ldr	r3, [r3, #8]
    b7c4:	1bdf      	subs	r7, r3, r7
    b7c6:	4653      	mov	r3, sl
    b7c8:	609f      	str	r7, [r3, #8]
    b7ca:	d023      	beq.n	b814 <__ssprint_r+0xfc>
    b7cc:	686f      	ldr	r7, [r5, #4]
    b7ce:	002b      	movs	r3, r5
    b7d0:	3508      	adds	r5, #8
    b7d2:	2f00      	cmp	r7, #0
    b7d4:	d0fa      	beq.n	b7cc <__ssprint_r+0xb4>
    b7d6:	681b      	ldr	r3, [r3, #0]
    b7d8:	46a0      	mov	r8, r4
    b7da:	4699      	mov	r9, r3
    b7dc:	42a7      	cmp	r7, r4
    b7de:	d2ae      	bcs.n	b73e <__ssprint_r+0x26>
    b7e0:	003c      	movs	r4, r7
    b7e2:	46b8      	mov	r8, r7
    b7e4:	e7e1      	b.n	b7aa <__ssprint_r+0x92>
    b7e6:	9801      	ldr	r0, [sp, #4]
    b7e8:	f000 fa58 	bl	bc9c <_realloc_r>
    b7ec:	1e04      	subs	r4, r0, #0
    b7ee:	d1d1      	bne.n	b794 <__ssprint_r+0x7c>
    b7f0:	9c01      	ldr	r4, [sp, #4]
    b7f2:	6931      	ldr	r1, [r6, #16]
    b7f4:	0020      	movs	r0, r4
    b7f6:	f000 f923 	bl	ba40 <_free_r>
    b7fa:	230c      	movs	r3, #12
    b7fc:	6023      	str	r3, [r4, #0]
    b7fe:	2240      	movs	r2, #64	; 0x40
    b800:	89b3      	ldrh	r3, [r6, #12]
    b802:	2001      	movs	r0, #1
    b804:	4313      	orrs	r3, r2
    b806:	81b3      	strh	r3, [r6, #12]
    b808:	4652      	mov	r2, sl
    b80a:	2300      	movs	r3, #0
    b80c:	4240      	negs	r0, r0
    b80e:	6093      	str	r3, [r2, #8]
    b810:	6053      	str	r3, [r2, #4]
    b812:	e003      	b.n	b81c <__ssprint_r+0x104>
    b814:	2300      	movs	r3, #0
    b816:	4652      	mov	r2, sl
    b818:	2000      	movs	r0, #0
    b81a:	6053      	str	r3, [r2, #4]
    b81c:	b003      	add	sp, #12
    b81e:	bc3c      	pop	{r2, r3, r4, r5}
    b820:	4690      	mov	r8, r2
    b822:	4699      	mov	r9, r3
    b824:	46a2      	mov	sl, r4
    b826:	46ab      	mov	fp, r5
    b828:	bdf0      	pop	{r4, r5, r6, r7, pc}
    b82a:	230c      	movs	r3, #12
    b82c:	9a01      	ldr	r2, [sp, #4]
    b82e:	6013      	str	r3, [r2, #0]
    b830:	e7e5      	b.n	b7fe <__ssprint_r+0xe6>
    b832:	46c0      	nop			; (mov r8, r8)
    b834:	fffffb7f 	.word	0xfffffb7f

0000b838 <__ascii_wctomb>:
    b838:	2900      	cmp	r1, #0
    b83a:	d004      	beq.n	b846 <__ascii_wctomb+0xe>
    b83c:	2aff      	cmp	r2, #255	; 0xff
    b83e:	d804      	bhi.n	b84a <__ascii_wctomb+0x12>
    b840:	2001      	movs	r0, #1
    b842:	700a      	strb	r2, [r1, #0]
    b844:	4770      	bx	lr
    b846:	2000      	movs	r0, #0
    b848:	e7fc      	b.n	b844 <__ascii_wctomb+0xc>
    b84a:	238a      	movs	r3, #138	; 0x8a
    b84c:	6003      	str	r3, [r0, #0]
    b84e:	2001      	movs	r0, #1
    b850:	4240      	negs	r0, r0
    b852:	e7f7      	b.n	b844 <__ascii_wctomb+0xc>

0000b854 <__register_exitproc>:
    b854:	b5f0      	push	{r4, r5, r6, r7, lr}
    b856:	464e      	mov	r6, r9
    b858:	4645      	mov	r5, r8
    b85a:	46de      	mov	lr, fp
    b85c:	4657      	mov	r7, sl
    b85e:	b5e0      	push	{r5, r6, r7, lr}
    b860:	4d36      	ldr	r5, [pc, #216]	; (b93c <__register_exitproc+0xe8>)
    b862:	b083      	sub	sp, #12
    b864:	0006      	movs	r6, r0
    b866:	6828      	ldr	r0, [r5, #0]
    b868:	4698      	mov	r8, r3
    b86a:	000f      	movs	r7, r1
    b86c:	4691      	mov	r9, r2
    b86e:	f7ff f847 	bl	a900 <__retarget_lock_acquire_recursive>
    b872:	4b33      	ldr	r3, [pc, #204]	; (b940 <__register_exitproc+0xec>)
    b874:	681c      	ldr	r4, [r3, #0]
    b876:	23a4      	movs	r3, #164	; 0xa4
    b878:	005b      	lsls	r3, r3, #1
    b87a:	58e0      	ldr	r0, [r4, r3]
    b87c:	2800      	cmp	r0, #0
    b87e:	d052      	beq.n	b926 <__register_exitproc+0xd2>
    b880:	6843      	ldr	r3, [r0, #4]
    b882:	2b1f      	cmp	r3, #31
    b884:	dc13      	bgt.n	b8ae <__register_exitproc+0x5a>
    b886:	1c5a      	adds	r2, r3, #1
    b888:	9201      	str	r2, [sp, #4]
    b88a:	2e00      	cmp	r6, #0
    b88c:	d128      	bne.n	b8e0 <__register_exitproc+0x8c>
    b88e:	9a01      	ldr	r2, [sp, #4]
    b890:	3302      	adds	r3, #2
    b892:	009b      	lsls	r3, r3, #2
    b894:	6042      	str	r2, [r0, #4]
    b896:	501f      	str	r7, [r3, r0]
    b898:	6828      	ldr	r0, [r5, #0]
    b89a:	f7ff f833 	bl	a904 <__retarget_lock_release_recursive>
    b89e:	2000      	movs	r0, #0
    b8a0:	b003      	add	sp, #12
    b8a2:	bc3c      	pop	{r2, r3, r4, r5}
    b8a4:	4690      	mov	r8, r2
    b8a6:	4699      	mov	r9, r3
    b8a8:	46a2      	mov	sl, r4
    b8aa:	46ab      	mov	fp, r5
    b8ac:	bdf0      	pop	{r4, r5, r6, r7, pc}
    b8ae:	4b25      	ldr	r3, [pc, #148]	; (b944 <__register_exitproc+0xf0>)
    b8b0:	2b00      	cmp	r3, #0
    b8b2:	d03d      	beq.n	b930 <__register_exitproc+0xdc>
    b8b4:	20c8      	movs	r0, #200	; 0xc8
    b8b6:	0040      	lsls	r0, r0, #1
    b8b8:	e000      	b.n	b8bc <__register_exitproc+0x68>
    b8ba:	bf00      	nop
    b8bc:	2800      	cmp	r0, #0
    b8be:	d037      	beq.n	b930 <__register_exitproc+0xdc>
    b8c0:	22a4      	movs	r2, #164	; 0xa4
    b8c2:	2300      	movs	r3, #0
    b8c4:	0052      	lsls	r2, r2, #1
    b8c6:	58a1      	ldr	r1, [r4, r2]
    b8c8:	6043      	str	r3, [r0, #4]
    b8ca:	6001      	str	r1, [r0, #0]
    b8cc:	50a0      	str	r0, [r4, r2]
    b8ce:	3240      	adds	r2, #64	; 0x40
    b8d0:	5083      	str	r3, [r0, r2]
    b8d2:	3204      	adds	r2, #4
    b8d4:	5083      	str	r3, [r0, r2]
    b8d6:	3301      	adds	r3, #1
    b8d8:	9301      	str	r3, [sp, #4]
    b8da:	2300      	movs	r3, #0
    b8dc:	2e00      	cmp	r6, #0
    b8de:	d0d6      	beq.n	b88e <__register_exitproc+0x3a>
    b8e0:	009a      	lsls	r2, r3, #2
    b8e2:	4692      	mov	sl, r2
    b8e4:	4482      	add	sl, r0
    b8e6:	464a      	mov	r2, r9
    b8e8:	2188      	movs	r1, #136	; 0x88
    b8ea:	4654      	mov	r4, sl
    b8ec:	5062      	str	r2, [r4, r1]
    b8ee:	22c4      	movs	r2, #196	; 0xc4
    b8f0:	0052      	lsls	r2, r2, #1
    b8f2:	4691      	mov	r9, r2
    b8f4:	4481      	add	r9, r0
    b8f6:	464a      	mov	r2, r9
    b8f8:	3987      	subs	r1, #135	; 0x87
    b8fa:	4099      	lsls	r1, r3
    b8fc:	6812      	ldr	r2, [r2, #0]
    b8fe:	468b      	mov	fp, r1
    b900:	430a      	orrs	r2, r1
    b902:	4694      	mov	ip, r2
    b904:	464a      	mov	r2, r9
    b906:	4661      	mov	r1, ip
    b908:	6011      	str	r1, [r2, #0]
    b90a:	2284      	movs	r2, #132	; 0x84
    b90c:	4641      	mov	r1, r8
    b90e:	0052      	lsls	r2, r2, #1
    b910:	50a1      	str	r1, [r4, r2]
    b912:	2e02      	cmp	r6, #2
    b914:	d1bb      	bne.n	b88e <__register_exitproc+0x3a>
    b916:	0002      	movs	r2, r0
    b918:	465c      	mov	r4, fp
    b91a:	328d      	adds	r2, #141	; 0x8d
    b91c:	32ff      	adds	r2, #255	; 0xff
    b91e:	6811      	ldr	r1, [r2, #0]
    b920:	430c      	orrs	r4, r1
    b922:	6014      	str	r4, [r2, #0]
    b924:	e7b3      	b.n	b88e <__register_exitproc+0x3a>
    b926:	0020      	movs	r0, r4
    b928:	304d      	adds	r0, #77	; 0x4d
    b92a:	30ff      	adds	r0, #255	; 0xff
    b92c:	50e0      	str	r0, [r4, r3]
    b92e:	e7a7      	b.n	b880 <__register_exitproc+0x2c>
    b930:	6828      	ldr	r0, [r5, #0]
    b932:	f7fe ffe7 	bl	a904 <__retarget_lock_release_recursive>
    b936:	2001      	movs	r0, #1
    b938:	4240      	negs	r0, r0
    b93a:	e7b1      	b.n	b8a0 <__register_exitproc+0x4c>
    b93c:	20000440 	.word	0x20000440
    b940:	0000d420 	.word	0x0000d420
    b944:	00000000 	.word	0x00000000

0000b948 <_calloc_r>:
    b948:	b510      	push	{r4, lr}
    b94a:	4351      	muls	r1, r2
    b94c:	f7fe ffdc 	bl	a908 <_malloc_r>
    b950:	1e04      	subs	r4, r0, #0
    b952:	d01c      	beq.n	b98e <_calloc_r+0x46>
    b954:	0003      	movs	r3, r0
    b956:	3b08      	subs	r3, #8
    b958:	685a      	ldr	r2, [r3, #4]
    b95a:	2303      	movs	r3, #3
    b95c:	439a      	bics	r2, r3
    b95e:	3a04      	subs	r2, #4
    b960:	2a24      	cmp	r2, #36	; 0x24
    b962:	d816      	bhi.n	b992 <_calloc_r+0x4a>
    b964:	0003      	movs	r3, r0
    b966:	2a13      	cmp	r2, #19
    b968:	d90d      	bls.n	b986 <_calloc_r+0x3e>
    b96a:	2100      	movs	r1, #0
    b96c:	3308      	adds	r3, #8
    b96e:	6001      	str	r1, [r0, #0]
    b970:	6041      	str	r1, [r0, #4]
    b972:	2a1b      	cmp	r2, #27
    b974:	d907      	bls.n	b986 <_calloc_r+0x3e>
    b976:	6081      	str	r1, [r0, #8]
    b978:	60c1      	str	r1, [r0, #12]
    b97a:	2a24      	cmp	r2, #36	; 0x24
    b97c:	d10d      	bne.n	b99a <_calloc_r+0x52>
    b97e:	0003      	movs	r3, r0
    b980:	6101      	str	r1, [r0, #16]
    b982:	3318      	adds	r3, #24
    b984:	6141      	str	r1, [r0, #20]
    b986:	2200      	movs	r2, #0
    b988:	601a      	str	r2, [r3, #0]
    b98a:	605a      	str	r2, [r3, #4]
    b98c:	609a      	str	r2, [r3, #8]
    b98e:	0020      	movs	r0, r4
    b990:	bd10      	pop	{r4, pc}
    b992:	2100      	movs	r1, #0
    b994:	f7fc f80a 	bl	79ac <memset>
    b998:	e7f9      	b.n	b98e <_calloc_r+0x46>
    b99a:	0003      	movs	r3, r0
    b99c:	3310      	adds	r3, #16
    b99e:	e7f2      	b.n	b986 <_calloc_r+0x3e>

0000b9a0 <_malloc_trim_r>:
    b9a0:	b5f8      	push	{r3, r4, r5, r6, r7, lr}
    b9a2:	000c      	movs	r4, r1
    b9a4:	0006      	movs	r6, r0
    b9a6:	f7ff fadf 	bl	af68 <__malloc_lock>
    b9aa:	4f20      	ldr	r7, [pc, #128]	; (ba2c <_malloc_trim_r+0x8c>)
    b9ac:	68bb      	ldr	r3, [r7, #8]
    b9ae:	685d      	ldr	r5, [r3, #4]
    b9b0:	2303      	movs	r3, #3
    b9b2:	439d      	bics	r5, r3
    b9b4:	4b1e      	ldr	r3, [pc, #120]	; (ba30 <_malloc_trim_r+0x90>)
    b9b6:	1b2c      	subs	r4, r5, r4
    b9b8:	469c      	mov	ip, r3
    b9ba:	4464      	add	r4, ip
    b9bc:	0b24      	lsrs	r4, r4, #12
    b9be:	4b1d      	ldr	r3, [pc, #116]	; (ba34 <_malloc_trim_r+0x94>)
    b9c0:	3c01      	subs	r4, #1
    b9c2:	0324      	lsls	r4, r4, #12
    b9c4:	429c      	cmp	r4, r3
    b9c6:	dd07      	ble.n	b9d8 <_malloc_trim_r+0x38>
    b9c8:	2100      	movs	r1, #0
    b9ca:	0030      	movs	r0, r6
    b9cc:	f7ff fe24 	bl	b618 <_sbrk_r>
    b9d0:	68bb      	ldr	r3, [r7, #8]
    b9d2:	195b      	adds	r3, r3, r5
    b9d4:	4298      	cmp	r0, r3
    b9d6:	d004      	beq.n	b9e2 <_malloc_trim_r+0x42>
    b9d8:	0030      	movs	r0, r6
    b9da:	f7ff facd 	bl	af78 <__malloc_unlock>
    b9de:	2000      	movs	r0, #0
    b9e0:	bdf8      	pop	{r3, r4, r5, r6, r7, pc}
    b9e2:	4261      	negs	r1, r4
    b9e4:	0030      	movs	r0, r6
    b9e6:	f7ff fe17 	bl	b618 <_sbrk_r>
    b9ea:	1c43      	adds	r3, r0, #1
    b9ec:	d00d      	beq.n	ba0a <_malloc_trim_r+0x6a>
    b9ee:	2201      	movs	r2, #1
    b9f0:	68bb      	ldr	r3, [r7, #8]
    b9f2:	1b2d      	subs	r5, r5, r4
    b9f4:	4315      	orrs	r5, r2
    b9f6:	605d      	str	r5, [r3, #4]
    b9f8:	4b0f      	ldr	r3, [pc, #60]	; (ba38 <_malloc_trim_r+0x98>)
    b9fa:	0030      	movs	r0, r6
    b9fc:	681a      	ldr	r2, [r3, #0]
    b9fe:	1b14      	subs	r4, r2, r4
    ba00:	601c      	str	r4, [r3, #0]
    ba02:	f7ff fab9 	bl	af78 <__malloc_unlock>
    ba06:	2001      	movs	r0, #1
    ba08:	e7ea      	b.n	b9e0 <_malloc_trim_r+0x40>
    ba0a:	2100      	movs	r1, #0
    ba0c:	0030      	movs	r0, r6
    ba0e:	f7ff fe03 	bl	b618 <_sbrk_r>
    ba12:	68ba      	ldr	r2, [r7, #8]
    ba14:	1a83      	subs	r3, r0, r2
    ba16:	2b0f      	cmp	r3, #15
    ba18:	ddde      	ble.n	b9d8 <_malloc_trim_r+0x38>
    ba1a:	4908      	ldr	r1, [pc, #32]	; (ba3c <_malloc_trim_r+0x9c>)
    ba1c:	6809      	ldr	r1, [r1, #0]
    ba1e:	1a40      	subs	r0, r0, r1
    ba20:	4905      	ldr	r1, [pc, #20]	; (ba38 <_malloc_trim_r+0x98>)
    ba22:	6008      	str	r0, [r1, #0]
    ba24:	2101      	movs	r1, #1
    ba26:	430b      	orrs	r3, r1
    ba28:	6053      	str	r3, [r2, #4]
    ba2a:	e7d5      	b.n	b9d8 <_malloc_trim_r+0x38>
    ba2c:	200005b0 	.word	0x200005b0
    ba30:	00000fef 	.word	0x00000fef
    ba34:	00000fff 	.word	0x00000fff
    ba38:	20000c34 	.word	0x20000c34
    ba3c:	200009b8 	.word	0x200009b8

0000ba40 <_free_r>:
    ba40:	b5f8      	push	{r3, r4, r5, r6, r7, lr}
    ba42:	0004      	movs	r4, r0
    ba44:	1e0d      	subs	r5, r1, #0
    ba46:	d03c      	beq.n	bac2 <_free_r+0x82>
    ba48:	f7ff fa8e 	bl	af68 <__malloc_lock>
    ba4c:	0029      	movs	r1, r5
    ba4e:	3908      	subs	r1, #8
    ba50:	6848      	ldr	r0, [r1, #4]
    ba52:	2301      	movs	r3, #1
    ba54:	0005      	movs	r5, r0
    ba56:	2603      	movs	r6, #3
    ba58:	439d      	bics	r5, r3
    ba5a:	194a      	adds	r2, r1, r5
    ba5c:	469c      	mov	ip, r3
    ba5e:	4f61      	ldr	r7, [pc, #388]	; (bbe4 <_free_r+0x1a4>)
    ba60:	6853      	ldr	r3, [r2, #4]
    ba62:	43b3      	bics	r3, r6
    ba64:	68be      	ldr	r6, [r7, #8]
    ba66:	42b2      	cmp	r2, r6
    ba68:	d056      	beq.n	bb18 <_free_r+0xd8>
    ba6a:	4666      	mov	r6, ip
    ba6c:	6053      	str	r3, [r2, #4]
    ba6e:	4206      	tst	r6, r0
    ba70:	d10a      	bne.n	ba88 <_free_r+0x48>
    ba72:	003e      	movs	r6, r7
    ba74:	6808      	ldr	r0, [r1, #0]
    ba76:	3608      	adds	r6, #8
    ba78:	1a09      	subs	r1, r1, r0
    ba7a:	182d      	adds	r5, r5, r0
    ba7c:	6888      	ldr	r0, [r1, #8]
    ba7e:	42b0      	cmp	r0, r6
    ba80:	d065      	beq.n	bb4e <_free_r+0x10e>
    ba82:	68ce      	ldr	r6, [r1, #12]
    ba84:	60c6      	str	r6, [r0, #12]
    ba86:	60b0      	str	r0, [r6, #8]
    ba88:	2001      	movs	r0, #1
    ba8a:	18d6      	adds	r6, r2, r3
    ba8c:	6876      	ldr	r6, [r6, #4]
    ba8e:	4206      	tst	r6, r0
    ba90:	d033      	beq.n	bafa <_free_r+0xba>
    ba92:	4b55      	ldr	r3, [pc, #340]	; (bbe8 <_free_r+0x1a8>)
    ba94:	4328      	orrs	r0, r5
    ba96:	6048      	str	r0, [r1, #4]
    ba98:	514d      	str	r5, [r1, r5]
    ba9a:	429d      	cmp	r5, r3
    ba9c:	d812      	bhi.n	bac4 <_free_r+0x84>
    ba9e:	08ed      	lsrs	r5, r5, #3
    baa0:	3bff      	subs	r3, #255	; 0xff
    baa2:	10aa      	asrs	r2, r5, #2
    baa4:	3bff      	subs	r3, #255	; 0xff
    baa6:	4093      	lsls	r3, r2
    baa8:	687a      	ldr	r2, [r7, #4]
    baaa:	00ed      	lsls	r5, r5, #3
    baac:	4313      	orrs	r3, r2
    baae:	607b      	str	r3, [r7, #4]
    bab0:	19ef      	adds	r7, r5, r7
    bab2:	68bb      	ldr	r3, [r7, #8]
    bab4:	60cf      	str	r7, [r1, #12]
    bab6:	608b      	str	r3, [r1, #8]
    bab8:	60b9      	str	r1, [r7, #8]
    baba:	60d9      	str	r1, [r3, #12]
    babc:	0020      	movs	r0, r4
    babe:	f7ff fa5b 	bl	af78 <__malloc_unlock>
    bac2:	bdf8      	pop	{r3, r4, r5, r6, r7, pc}
    bac4:	0a68      	lsrs	r0, r5, #9
    bac6:	2804      	cmp	r0, #4
    bac8:	d850      	bhi.n	bb6c <_free_r+0x12c>
    baca:	09a8      	lsrs	r0, r5, #6
    bacc:	0002      	movs	r2, r0
    bace:	3039      	adds	r0, #57	; 0x39
    bad0:	3238      	adds	r2, #56	; 0x38
    bad2:	00c0      	lsls	r0, r0, #3
    bad4:	1838      	adds	r0, r7, r0
    bad6:	3808      	subs	r0, #8
    bad8:	6883      	ldr	r3, [r0, #8]
    bada:	2603      	movs	r6, #3
    badc:	4298      	cmp	r0, r3
    bade:	d04c      	beq.n	bb7a <_free_r+0x13a>
    bae0:	685a      	ldr	r2, [r3, #4]
    bae2:	43b2      	bics	r2, r6
    bae4:	4295      	cmp	r5, r2
    bae6:	d230      	bcs.n	bb4a <_free_r+0x10a>
    bae8:	689b      	ldr	r3, [r3, #8]
    baea:	4298      	cmp	r0, r3
    baec:	d1f8      	bne.n	bae0 <_free_r+0xa0>
    baee:	68c3      	ldr	r3, [r0, #12]
    baf0:	60cb      	str	r3, [r1, #12]
    baf2:	6088      	str	r0, [r1, #8]
    baf4:	6099      	str	r1, [r3, #8]
    baf6:	60c1      	str	r1, [r0, #12]
    baf8:	e7e0      	b.n	babc <_free_r+0x7c>
    bafa:	18ed      	adds	r5, r5, r3
    bafc:	4e3b      	ldr	r6, [pc, #236]	; (bbec <_free_r+0x1ac>)
    bafe:	6893      	ldr	r3, [r2, #8]
    bb00:	42b3      	cmp	r3, r6
    bb02:	d042      	beq.n	bb8a <_free_r+0x14a>
    bb04:	68d2      	ldr	r2, [r2, #12]
    bb06:	4328      	orrs	r0, r5
    bb08:	60da      	str	r2, [r3, #12]
    bb0a:	6093      	str	r3, [r2, #8]
    bb0c:	4b36      	ldr	r3, [pc, #216]	; (bbe8 <_free_r+0x1a8>)
    bb0e:	6048      	str	r0, [r1, #4]
    bb10:	514d      	str	r5, [r1, r5]
    bb12:	429d      	cmp	r5, r3
    bb14:	d8d6      	bhi.n	bac4 <_free_r+0x84>
    bb16:	e7c2      	b.n	ba9e <_free_r+0x5e>
    bb18:	4662      	mov	r2, ip
    bb1a:	18eb      	adds	r3, r5, r3
    bb1c:	4202      	tst	r2, r0
    bb1e:	d106      	bne.n	bb2e <_free_r+0xee>
    bb20:	680a      	ldr	r2, [r1, #0]
    bb22:	1a89      	subs	r1, r1, r2
    bb24:	6888      	ldr	r0, [r1, #8]
    bb26:	189b      	adds	r3, r3, r2
    bb28:	68ca      	ldr	r2, [r1, #12]
    bb2a:	60c2      	str	r2, [r0, #12]
    bb2c:	6090      	str	r0, [r2, #8]
    bb2e:	2201      	movs	r2, #1
    bb30:	431a      	orrs	r2, r3
    bb32:	604a      	str	r2, [r1, #4]
    bb34:	4a2e      	ldr	r2, [pc, #184]	; (bbf0 <_free_r+0x1b0>)
    bb36:	60b9      	str	r1, [r7, #8]
    bb38:	6812      	ldr	r2, [r2, #0]
    bb3a:	4293      	cmp	r3, r2
    bb3c:	d3be      	bcc.n	babc <_free_r+0x7c>
    bb3e:	4b2d      	ldr	r3, [pc, #180]	; (bbf4 <_free_r+0x1b4>)
    bb40:	0020      	movs	r0, r4
    bb42:	6819      	ldr	r1, [r3, #0]
    bb44:	f7ff ff2c 	bl	b9a0 <_malloc_trim_r>
    bb48:	e7b8      	b.n	babc <_free_r+0x7c>
    bb4a:	0018      	movs	r0, r3
    bb4c:	e7cf      	b.n	baee <_free_r+0xae>
    bb4e:	4666      	mov	r6, ip
    bb50:	18d0      	adds	r0, r2, r3
    bb52:	6840      	ldr	r0, [r0, #4]
    bb54:	4230      	tst	r0, r6
    bb56:	d13f      	bne.n	bbd8 <_free_r+0x198>
    bb58:	6890      	ldr	r0, [r2, #8]
    bb5a:	195d      	adds	r5, r3, r5
    bb5c:	68d3      	ldr	r3, [r2, #12]
    bb5e:	60c3      	str	r3, [r0, #12]
    bb60:	6098      	str	r0, [r3, #8]
    bb62:	4663      	mov	r3, ip
    bb64:	432b      	orrs	r3, r5
    bb66:	604b      	str	r3, [r1, #4]
    bb68:	514d      	str	r5, [r1, r5]
    bb6a:	e7a7      	b.n	babc <_free_r+0x7c>
    bb6c:	2814      	cmp	r0, #20
    bb6e:	d814      	bhi.n	bb9a <_free_r+0x15a>
    bb70:	0002      	movs	r2, r0
    bb72:	305c      	adds	r0, #92	; 0x5c
    bb74:	325b      	adds	r2, #91	; 0x5b
    bb76:	00c0      	lsls	r0, r0, #3
    bb78:	e7ac      	b.n	bad4 <_free_r+0x94>
    bb7a:	2301      	movs	r3, #1
    bb7c:	1092      	asrs	r2, r2, #2
    bb7e:	4093      	lsls	r3, r2
    bb80:	687a      	ldr	r2, [r7, #4]
    bb82:	4313      	orrs	r3, r2
    bb84:	607b      	str	r3, [r7, #4]
    bb86:	0003      	movs	r3, r0
    bb88:	e7b2      	b.n	baf0 <_free_r+0xb0>
    bb8a:	4328      	orrs	r0, r5
    bb8c:	60d9      	str	r1, [r3, #12]
    bb8e:	6099      	str	r1, [r3, #8]
    bb90:	60cb      	str	r3, [r1, #12]
    bb92:	608b      	str	r3, [r1, #8]
    bb94:	6048      	str	r0, [r1, #4]
    bb96:	514d      	str	r5, [r1, r5]
    bb98:	e790      	b.n	babc <_free_r+0x7c>
    bb9a:	2854      	cmp	r0, #84	; 0x54
    bb9c:	d805      	bhi.n	bbaa <_free_r+0x16a>
    bb9e:	0b28      	lsrs	r0, r5, #12
    bba0:	0002      	movs	r2, r0
    bba2:	306f      	adds	r0, #111	; 0x6f
    bba4:	326e      	adds	r2, #110	; 0x6e
    bba6:	00c0      	lsls	r0, r0, #3
    bba8:	e794      	b.n	bad4 <_free_r+0x94>
    bbaa:	22aa      	movs	r2, #170	; 0xaa
    bbac:	0052      	lsls	r2, r2, #1
    bbae:	4290      	cmp	r0, r2
    bbb0:	d805      	bhi.n	bbbe <_free_r+0x17e>
    bbb2:	0be8      	lsrs	r0, r5, #15
    bbb4:	0002      	movs	r2, r0
    bbb6:	3078      	adds	r0, #120	; 0x78
    bbb8:	3277      	adds	r2, #119	; 0x77
    bbba:	00c0      	lsls	r0, r0, #3
    bbbc:	e78a      	b.n	bad4 <_free_r+0x94>
    bbbe:	4a0e      	ldr	r2, [pc, #56]	; (bbf8 <_free_r+0x1b8>)
    bbc0:	4290      	cmp	r0, r2
    bbc2:	d805      	bhi.n	bbd0 <_free_r+0x190>
    bbc4:	0ca8      	lsrs	r0, r5, #18
    bbc6:	0002      	movs	r2, r0
    bbc8:	307d      	adds	r0, #125	; 0x7d
    bbca:	327c      	adds	r2, #124	; 0x7c
    bbcc:	00c0      	lsls	r0, r0, #3
    bbce:	e781      	b.n	bad4 <_free_r+0x94>
    bbd0:	20fe      	movs	r0, #254	; 0xfe
    bbd2:	227e      	movs	r2, #126	; 0x7e
    bbd4:	0080      	lsls	r0, r0, #2
    bbd6:	e77d      	b.n	bad4 <_free_r+0x94>
    bbd8:	4663      	mov	r3, ip
    bbda:	432b      	orrs	r3, r5
    bbdc:	604b      	str	r3, [r1, #4]
    bbde:	6015      	str	r5, [r2, #0]
    bbe0:	e76c      	b.n	babc <_free_r+0x7c>
    bbe2:	46c0      	nop			; (mov r8, r8)
    bbe4:	200005b0 	.word	0x200005b0
    bbe8:	000001ff 	.word	0x000001ff
    bbec:	200005b8 	.word	0x200005b8
    bbf0:	200009bc 	.word	0x200009bc
    bbf4:	20000c64 	.word	0x20000c64
    bbf8:	00000554 	.word	0x00000554

0000bbfc <memmove>:
    bbfc:	b5f0      	push	{r4, r5, r6, r7, lr}
    bbfe:	4288      	cmp	r0, r1
    bc00:	d90a      	bls.n	bc18 <memmove+0x1c>
    bc02:	188b      	adds	r3, r1, r2
    bc04:	4298      	cmp	r0, r3
    bc06:	d207      	bcs.n	bc18 <memmove+0x1c>
    bc08:	1e53      	subs	r3, r2, #1
    bc0a:	2a00      	cmp	r2, #0
    bc0c:	d003      	beq.n	bc16 <memmove+0x1a>
    bc0e:	5cca      	ldrb	r2, [r1, r3]
    bc10:	54c2      	strb	r2, [r0, r3]
    bc12:	3b01      	subs	r3, #1
    bc14:	d2fb      	bcs.n	bc0e <memmove+0x12>
    bc16:	bdf0      	pop	{r4, r5, r6, r7, pc}
    bc18:	0005      	movs	r5, r0
    bc1a:	2a0f      	cmp	r2, #15
    bc1c:	d808      	bhi.n	bc30 <memmove+0x34>
    bc1e:	2a00      	cmp	r2, #0
    bc20:	d0f9      	beq.n	bc16 <memmove+0x1a>
    bc22:	2300      	movs	r3, #0
    bc24:	5ccc      	ldrb	r4, [r1, r3]
    bc26:	54ec      	strb	r4, [r5, r3]
    bc28:	3301      	adds	r3, #1
    bc2a:	4293      	cmp	r3, r2
    bc2c:	d1fa      	bne.n	bc24 <memmove+0x28>
    bc2e:	e7f2      	b.n	bc16 <memmove+0x1a>
    bc30:	000b      	movs	r3, r1
    bc32:	4303      	orrs	r3, r0
    bc34:	079b      	lsls	r3, r3, #30
    bc36:	d12d      	bne.n	bc94 <memmove+0x98>
    bc38:	0015      	movs	r5, r2
    bc3a:	000c      	movs	r4, r1
    bc3c:	0003      	movs	r3, r0
    bc3e:	3d10      	subs	r5, #16
    bc40:	092f      	lsrs	r7, r5, #4
    bc42:	3701      	adds	r7, #1
    bc44:	013f      	lsls	r7, r7, #4
    bc46:	19c7      	adds	r7, r0, r7
    bc48:	6826      	ldr	r6, [r4, #0]
    bc4a:	601e      	str	r6, [r3, #0]
    bc4c:	6866      	ldr	r6, [r4, #4]
    bc4e:	605e      	str	r6, [r3, #4]
    bc50:	68a6      	ldr	r6, [r4, #8]
    bc52:	609e      	str	r6, [r3, #8]
    bc54:	68e6      	ldr	r6, [r4, #12]
    bc56:	3410      	adds	r4, #16
    bc58:	60de      	str	r6, [r3, #12]
    bc5a:	3310      	adds	r3, #16
    bc5c:	429f      	cmp	r7, r3
    bc5e:	d1f3      	bne.n	bc48 <memmove+0x4c>
    bc60:	240f      	movs	r4, #15
    bc62:	43a5      	bics	r5, r4
    bc64:	3510      	adds	r5, #16
    bc66:	1949      	adds	r1, r1, r5
    bc68:	4014      	ands	r4, r2
    bc6a:	1945      	adds	r5, r0, r5
    bc6c:	2c03      	cmp	r4, #3
    bc6e:	d913      	bls.n	bc98 <memmove+0x9c>
    bc70:	2300      	movs	r3, #0
    bc72:	1f27      	subs	r7, r4, #4
    bc74:	08be      	lsrs	r6, r7, #2
    bc76:	3601      	adds	r6, #1
    bc78:	00b6      	lsls	r6, r6, #2
    bc7a:	58cc      	ldr	r4, [r1, r3]
    bc7c:	50ec      	str	r4, [r5, r3]
    bc7e:	3304      	adds	r3, #4
    bc80:	42b3      	cmp	r3, r6
    bc82:	d1fa      	bne.n	bc7a <memmove+0x7e>
    bc84:	2603      	movs	r6, #3
    bc86:	43b7      	bics	r7, r6
    bc88:	1d3c      	adds	r4, r7, #4
    bc8a:	1909      	adds	r1, r1, r4
    bc8c:	192d      	adds	r5, r5, r4
    bc8e:	4032      	ands	r2, r6
    bc90:	d1c7      	bne.n	bc22 <memmove+0x26>
    bc92:	e7c0      	b.n	bc16 <memmove+0x1a>
    bc94:	0005      	movs	r5, r0
    bc96:	e7c4      	b.n	bc22 <memmove+0x26>
    bc98:	0022      	movs	r2, r4
    bc9a:	e7c0      	b.n	bc1e <memmove+0x22>

0000bc9c <_realloc_r>:
    bc9c:	b5f0      	push	{r4, r5, r6, r7, lr}
    bc9e:	464e      	mov	r6, r9
    bca0:	4645      	mov	r5, r8
    bca2:	46de      	mov	lr, fp
    bca4:	4657      	mov	r7, sl
    bca6:	b5e0      	push	{r5, r6, r7, lr}
    bca8:	b085      	sub	sp, #20
    bcaa:	9001      	str	r0, [sp, #4]
    bcac:	000e      	movs	r6, r1
    bcae:	0015      	movs	r5, r2
    bcb0:	2900      	cmp	r1, #0
    bcb2:	d100      	bne.n	bcb6 <_realloc_r+0x1a>
    bcb4:	e09e      	b.n	bdf4 <_realloc_r+0x158>
    bcb6:	0037      	movs	r7, r6
    bcb8:	9801      	ldr	r0, [sp, #4]
    bcba:	3f08      	subs	r7, #8
    bcbc:	f7ff f954 	bl	af68 <__malloc_lock>
    bcc0:	687a      	ldr	r2, [r7, #4]
    bcc2:	2303      	movs	r3, #3
    bcc4:	0014      	movs	r4, r2
    bcc6:	439c      	bics	r4, r3
    bcc8:	002b      	movs	r3, r5
    bcca:	330b      	adds	r3, #11
    bccc:	46b9      	mov	r9, r7
    bcce:	2b16      	cmp	r3, #22
    bcd0:	d847      	bhi.n	bd62 <_realloc_r+0xc6>
    bcd2:	2110      	movs	r1, #16
    bcd4:	2310      	movs	r3, #16
    bcd6:	4688      	mov	r8, r1
    bcd8:	4545      	cmp	r5, r8
    bcda:	d846      	bhi.n	bd6a <_realloc_r+0xce>
    bcdc:	429c      	cmp	r4, r3
    bcde:	da49      	bge.n	bd74 <_realloc_r+0xd8>
    bce0:	49cc      	ldr	r1, [pc, #816]	; (c014 <_realloc_r+0x378>)
    bce2:	1938      	adds	r0, r7, r4
    bce4:	468b      	mov	fp, r1
    bce6:	6889      	ldr	r1, [r1, #8]
    bce8:	9002      	str	r0, [sp, #8]
    bcea:	4288      	cmp	r0, r1
    bcec:	d100      	bne.n	bcf0 <_realloc_r+0x54>
    bcee:	e0c2      	b.n	be76 <_realloc_r+0x1da>
    bcf0:	2101      	movs	r1, #1
    bcf2:	468a      	mov	sl, r1
    bcf4:	6840      	ldr	r0, [r0, #4]
    bcf6:	0001      	movs	r1, r0
    bcf8:	9003      	str	r0, [sp, #12]
    bcfa:	4650      	mov	r0, sl
    bcfc:	4381      	bics	r1, r0
    bcfe:	468c      	mov	ip, r1
    bd00:	9902      	ldr	r1, [sp, #8]
    bd02:	468b      	mov	fp, r1
    bd04:	44dc      	add	ip, fp
    bd06:	4661      	mov	r1, ip
    bd08:	6849      	ldr	r1, [r1, #4]
    bd0a:	4201      	tst	r1, r0
    bd0c:	d04d      	beq.n	bdaa <_realloc_r+0x10e>
    bd0e:	4210      	tst	r0, r2
    bd10:	d100      	bne.n	bd14 <_realloc_r+0x78>
    bd12:	e0a2      	b.n	be5a <_realloc_r+0x1be>
    bd14:	0029      	movs	r1, r5
    bd16:	9801      	ldr	r0, [sp, #4]
    bd18:	f7fe fdf6 	bl	a908 <_malloc_r>
    bd1c:	1e05      	subs	r5, r0, #0
    bd1e:	d039      	beq.n	bd94 <_realloc_r+0xf8>
    bd20:	2301      	movs	r3, #1
    bd22:	0002      	movs	r2, r0
    bd24:	6879      	ldr	r1, [r7, #4]
    bd26:	3a08      	subs	r2, #8
    bd28:	4399      	bics	r1, r3
    bd2a:	187f      	adds	r7, r7, r1
    bd2c:	42ba      	cmp	r2, r7
    bd2e:	d100      	bne.n	bd32 <_realloc_r+0x96>
    bd30:	e12e      	b.n	bf90 <_realloc_r+0x2f4>
    bd32:	1f22      	subs	r2, r4, #4
    bd34:	2a24      	cmp	r2, #36	; 0x24
    bd36:	d900      	bls.n	bd3a <_realloc_r+0x9e>
    bd38:	e114      	b.n	bf64 <_realloc_r+0x2c8>
    bd3a:	2a13      	cmp	r2, #19
    bd3c:	d900      	bls.n	bd40 <_realloc_r+0xa4>
    bd3e:	e0e8      	b.n	bf12 <_realloc_r+0x276>
    bd40:	0003      	movs	r3, r0
    bd42:	0032      	movs	r2, r6
    bd44:	6811      	ldr	r1, [r2, #0]
    bd46:	6019      	str	r1, [r3, #0]
    bd48:	6851      	ldr	r1, [r2, #4]
    bd4a:	6059      	str	r1, [r3, #4]
    bd4c:	6892      	ldr	r2, [r2, #8]
    bd4e:	609a      	str	r2, [r3, #8]
    bd50:	9c01      	ldr	r4, [sp, #4]
    bd52:	0031      	movs	r1, r6
    bd54:	0020      	movs	r0, r4
    bd56:	f7ff fe73 	bl	ba40 <_free_r>
    bd5a:	0020      	movs	r0, r4
    bd5c:	f7ff f90c 	bl	af78 <__malloc_unlock>
    bd60:	e01b      	b.n	bd9a <_realloc_r+0xfe>
    bd62:	2107      	movs	r1, #7
    bd64:	438b      	bics	r3, r1
    bd66:	4698      	mov	r8, r3
    bd68:	d5b6      	bpl.n	bcd8 <_realloc_r+0x3c>
    bd6a:	230c      	movs	r3, #12
    bd6c:	9a01      	ldr	r2, [sp, #4]
    bd6e:	2500      	movs	r5, #0
    bd70:	6013      	str	r3, [r2, #0]
    bd72:	e012      	b.n	bd9a <_realloc_r+0xfe>
    bd74:	0035      	movs	r5, r6
    bd76:	4643      	mov	r3, r8
    bd78:	1ae3      	subs	r3, r4, r3
    bd7a:	2b0f      	cmp	r3, #15
    bd7c:	d825      	bhi.n	bdca <_realloc_r+0x12e>
    bd7e:	464b      	mov	r3, r9
    bd80:	2201      	movs	r2, #1
    bd82:	4649      	mov	r1, r9
    bd84:	685b      	ldr	r3, [r3, #4]
    bd86:	4013      	ands	r3, r2
    bd88:	4323      	orrs	r3, r4
    bd8a:	604b      	str	r3, [r1, #4]
    bd8c:	444c      	add	r4, r9
    bd8e:	6863      	ldr	r3, [r4, #4]
    bd90:	431a      	orrs	r2, r3
    bd92:	6062      	str	r2, [r4, #4]
    bd94:	9801      	ldr	r0, [sp, #4]
    bd96:	f7ff f8ef 	bl	af78 <__malloc_unlock>
    bd9a:	0028      	movs	r0, r5
    bd9c:	b005      	add	sp, #20
    bd9e:	bc3c      	pop	{r2, r3, r4, r5}
    bda0:	4690      	mov	r8, r2
    bda2:	4699      	mov	r9, r3
    bda4:	46a2      	mov	sl, r4
    bda6:	46ab      	mov	fp, r5
    bda8:	bdf0      	pop	{r4, r5, r6, r7, pc}
    bdaa:	2103      	movs	r1, #3
    bdac:	9803      	ldr	r0, [sp, #12]
    bdae:	468c      	mov	ip, r1
    bdb0:	4388      	bics	r0, r1
    bdb2:	1821      	adds	r1, r4, r0
    bdb4:	468b      	mov	fp, r1
    bdb6:	4299      	cmp	r1, r3
    bdb8:	db21      	blt.n	bdfe <_realloc_r+0x162>
    bdba:	9a02      	ldr	r2, [sp, #8]
    bdbc:	0035      	movs	r5, r6
    bdbe:	68d3      	ldr	r3, [r2, #12]
    bdc0:	6892      	ldr	r2, [r2, #8]
    bdc2:	465c      	mov	r4, fp
    bdc4:	60d3      	str	r3, [r2, #12]
    bdc6:	609a      	str	r2, [r3, #8]
    bdc8:	e7d5      	b.n	bd76 <_realloc_r+0xda>
    bdca:	464a      	mov	r2, r9
    bdcc:	2001      	movs	r0, #1
    bdce:	4646      	mov	r6, r8
    bdd0:	6852      	ldr	r2, [r2, #4]
    bdd2:	4649      	mov	r1, r9
    bdd4:	4002      	ands	r2, r0
    bdd6:	4332      	orrs	r2, r6
    bdd8:	464e      	mov	r6, r9
    bdda:	4441      	add	r1, r8
    bddc:	4303      	orrs	r3, r0
    bdde:	6072      	str	r2, [r6, #4]
    bde0:	444c      	add	r4, r9
    bde2:	604b      	str	r3, [r1, #4]
    bde4:	6863      	ldr	r3, [r4, #4]
    bde6:	3108      	adds	r1, #8
    bde8:	4318      	orrs	r0, r3
    bdea:	6060      	str	r0, [r4, #4]
    bdec:	9801      	ldr	r0, [sp, #4]
    bdee:	f7ff fe27 	bl	ba40 <_free_r>
    bdf2:	e7cf      	b.n	bd94 <_realloc_r+0xf8>
    bdf4:	0011      	movs	r1, r2
    bdf6:	f7fe fd87 	bl	a908 <_malloc_r>
    bdfa:	0005      	movs	r5, r0
    bdfc:	e7cd      	b.n	bd9a <_realloc_r+0xfe>
    bdfe:	4651      	mov	r1, sl
    be00:	4211      	tst	r1, r2
    be02:	d000      	beq.n	be06 <_realloc_r+0x16a>
    be04:	e786      	b.n	bd14 <_realloc_r+0x78>
    be06:	4661      	mov	r1, ip
    be08:	683a      	ldr	r2, [r7, #0]
    be0a:	1aba      	subs	r2, r7, r2
    be0c:	4692      	mov	sl, r2
    be0e:	6852      	ldr	r2, [r2, #4]
    be10:	438a      	bics	r2, r1
    be12:	1880      	adds	r0, r0, r2
    be14:	4683      	mov	fp, r0
    be16:	44a3      	add	fp, r4
    be18:	459b      	cmp	fp, r3
    be1a:	db26      	blt.n	be6a <_realloc_r+0x1ce>
    be1c:	9a02      	ldr	r2, [sp, #8]
    be1e:	68d3      	ldr	r3, [r2, #12]
    be20:	6892      	ldr	r2, [r2, #8]
    be22:	60d3      	str	r3, [r2, #12]
    be24:	609a      	str	r2, [r3, #8]
    be26:	4653      	mov	r3, sl
    be28:	4652      	mov	r2, sl
    be2a:	4655      	mov	r5, sl
    be2c:	6892      	ldr	r2, [r2, #8]
    be2e:	68db      	ldr	r3, [r3, #12]
    be30:	3508      	adds	r5, #8
    be32:	60d3      	str	r3, [r2, #12]
    be34:	609a      	str	r2, [r3, #8]
    be36:	1f22      	subs	r2, r4, #4
    be38:	2a24      	cmp	r2, #36	; 0x24
    be3a:	d900      	bls.n	be3e <_realloc_r+0x1a2>
    be3c:	e096      	b.n	bf6c <_realloc_r+0x2d0>
    be3e:	2a13      	cmp	r2, #19
    be40:	d972      	bls.n	bf28 <_realloc_r+0x28c>
    be42:	4653      	mov	r3, sl
    be44:	6831      	ldr	r1, [r6, #0]
    be46:	6099      	str	r1, [r3, #8]
    be48:	6871      	ldr	r1, [r6, #4]
    be4a:	60d9      	str	r1, [r3, #12]
    be4c:	2a1b      	cmp	r2, #27
    be4e:	d900      	bls.n	be52 <_realloc_r+0x1b6>
    be50:	e0a4      	b.n	bf9c <_realloc_r+0x300>
    be52:	0032      	movs	r2, r6
    be54:	3310      	adds	r3, #16
    be56:	3208      	adds	r2, #8
    be58:	e068      	b.n	bf2c <_realloc_r+0x290>
    be5a:	683a      	ldr	r2, [r7, #0]
    be5c:	1aba      	subs	r2, r7, r2
    be5e:	4692      	mov	sl, r2
    be60:	4651      	mov	r1, sl
    be62:	2203      	movs	r2, #3
    be64:	6849      	ldr	r1, [r1, #4]
    be66:	4391      	bics	r1, r2
    be68:	000a      	movs	r2, r1
    be6a:	4693      	mov	fp, r2
    be6c:	44a3      	add	fp, r4
    be6e:	459b      	cmp	fp, r3
    be70:	da00      	bge.n	be74 <_realloc_r+0x1d8>
    be72:	e74f      	b.n	bd14 <_realloc_r+0x78>
    be74:	e7d7      	b.n	be26 <_realloc_r+0x18a>
    be76:	2003      	movs	r0, #3
    be78:	9902      	ldr	r1, [sp, #8]
    be7a:	4684      	mov	ip, r0
    be7c:	6849      	ldr	r1, [r1, #4]
    be7e:	4381      	bics	r1, r0
    be80:	4640      	mov	r0, r8
    be82:	1909      	adds	r1, r1, r4
    be84:	3010      	adds	r0, #16
    be86:	9002      	str	r0, [sp, #8]
    be88:	4281      	cmp	r1, r0
    be8a:	da58      	bge.n	bf3e <_realloc_r+0x2a2>
    be8c:	07d2      	lsls	r2, r2, #31
    be8e:	d500      	bpl.n	be92 <_realloc_r+0x1f6>
    be90:	e740      	b.n	bd14 <_realloc_r+0x78>
    be92:	4660      	mov	r0, ip
    be94:	683a      	ldr	r2, [r7, #0]
    be96:	1aba      	subs	r2, r7, r2
    be98:	4692      	mov	sl, r2
    be9a:	6852      	ldr	r2, [r2, #4]
    be9c:	4382      	bics	r2, r0
    be9e:	9802      	ldr	r0, [sp, #8]
    bea0:	1851      	adds	r1, r2, r1
    bea2:	9103      	str	r1, [sp, #12]
    bea4:	4288      	cmp	r0, r1
    bea6:	dce0      	bgt.n	be6a <_realloc_r+0x1ce>
    bea8:	4653      	mov	r3, sl
    beaa:	4652      	mov	r2, sl
    beac:	4655      	mov	r5, sl
    beae:	6892      	ldr	r2, [r2, #8]
    beb0:	68db      	ldr	r3, [r3, #12]
    beb2:	3508      	adds	r5, #8
    beb4:	60d3      	str	r3, [r2, #12]
    beb6:	609a      	str	r2, [r3, #8]
    beb8:	1f22      	subs	r2, r4, #4
    beba:	2a24      	cmp	r2, #36	; 0x24
    bebc:	d900      	bls.n	bec0 <_realloc_r+0x224>
    bebe:	e08e      	b.n	bfde <_realloc_r+0x342>
    bec0:	2a13      	cmp	r2, #19
    bec2:	d800      	bhi.n	bec6 <_realloc_r+0x22a>
    bec4:	e088      	b.n	bfd8 <_realloc_r+0x33c>
    bec6:	4653      	mov	r3, sl
    bec8:	6831      	ldr	r1, [r6, #0]
    beca:	6099      	str	r1, [r3, #8]
    becc:	6871      	ldr	r1, [r6, #4]
    bece:	60d9      	str	r1, [r3, #12]
    bed0:	2a1b      	cmp	r2, #27
    bed2:	d900      	bls.n	bed6 <_realloc_r+0x23a>
    bed4:	e088      	b.n	bfe8 <_realloc_r+0x34c>
    bed6:	0032      	movs	r2, r6
    bed8:	3310      	adds	r3, #16
    beda:	3208      	adds	r2, #8
    bedc:	6811      	ldr	r1, [r2, #0]
    bede:	6019      	str	r1, [r3, #0]
    bee0:	6851      	ldr	r1, [r2, #4]
    bee2:	6059      	str	r1, [r3, #4]
    bee4:	6892      	ldr	r2, [r2, #8]
    bee6:	609a      	str	r2, [r3, #8]
    bee8:	4651      	mov	r1, sl
    beea:	465b      	mov	r3, fp
    beec:	4642      	mov	r2, r8
    beee:	4441      	add	r1, r8
    bef0:	6099      	str	r1, [r3, #8]
    bef2:	9b03      	ldr	r3, [sp, #12]
    bef4:	9801      	ldr	r0, [sp, #4]
    bef6:	1a9a      	subs	r2, r3, r2
    bef8:	2301      	movs	r3, #1
    befa:	431a      	orrs	r2, r3
    befc:	604a      	str	r2, [r1, #4]
    befe:	4652      	mov	r2, sl
    bf00:	6852      	ldr	r2, [r2, #4]
    bf02:	4013      	ands	r3, r2
    bf04:	4642      	mov	r2, r8
    bf06:	4313      	orrs	r3, r2
    bf08:	4652      	mov	r2, sl
    bf0a:	6053      	str	r3, [r2, #4]
    bf0c:	f7ff f834 	bl	af78 <__malloc_unlock>
    bf10:	e743      	b.n	bd9a <_realloc_r+0xfe>
    bf12:	6833      	ldr	r3, [r6, #0]
    bf14:	6003      	str	r3, [r0, #0]
    bf16:	6873      	ldr	r3, [r6, #4]
    bf18:	6043      	str	r3, [r0, #4]
    bf1a:	2a1b      	cmp	r2, #27
    bf1c:	d82d      	bhi.n	bf7a <_realloc_r+0x2de>
    bf1e:	0003      	movs	r3, r0
    bf20:	0032      	movs	r2, r6
    bf22:	3308      	adds	r3, #8
    bf24:	3208      	adds	r2, #8
    bf26:	e70d      	b.n	bd44 <_realloc_r+0xa8>
    bf28:	002b      	movs	r3, r5
    bf2a:	0032      	movs	r2, r6
    bf2c:	6811      	ldr	r1, [r2, #0]
    bf2e:	465c      	mov	r4, fp
    bf30:	6019      	str	r1, [r3, #0]
    bf32:	6851      	ldr	r1, [r2, #4]
    bf34:	46d1      	mov	r9, sl
    bf36:	6059      	str	r1, [r3, #4]
    bf38:	6892      	ldr	r2, [r2, #8]
    bf3a:	609a      	str	r2, [r3, #8]
    bf3c:	e71b      	b.n	bd76 <_realloc_r+0xda>
    bf3e:	4643      	mov	r3, r8
    bf40:	18fa      	adds	r2, r7, r3
    bf42:	465b      	mov	r3, fp
    bf44:	609a      	str	r2, [r3, #8]
    bf46:	4643      	mov	r3, r8
    bf48:	1ac9      	subs	r1, r1, r3
    bf4a:	2301      	movs	r3, #1
    bf4c:	4319      	orrs	r1, r3
    bf4e:	6051      	str	r1, [r2, #4]
    bf50:	687a      	ldr	r2, [r7, #4]
    bf52:	9801      	ldr	r0, [sp, #4]
    bf54:	4013      	ands	r3, r2
    bf56:	4642      	mov	r2, r8
    bf58:	4313      	orrs	r3, r2
    bf5a:	607b      	str	r3, [r7, #4]
    bf5c:	f7ff f80c 	bl	af78 <__malloc_unlock>
    bf60:	0035      	movs	r5, r6
    bf62:	e71a      	b.n	bd9a <_realloc_r+0xfe>
    bf64:	0031      	movs	r1, r6
    bf66:	f7ff fe49 	bl	bbfc <memmove>
    bf6a:	e6f1      	b.n	bd50 <_realloc_r+0xb4>
    bf6c:	0031      	movs	r1, r6
    bf6e:	0028      	movs	r0, r5
    bf70:	f7ff fe44 	bl	bbfc <memmove>
    bf74:	465c      	mov	r4, fp
    bf76:	46d1      	mov	r9, sl
    bf78:	e6fd      	b.n	bd76 <_realloc_r+0xda>
    bf7a:	68b3      	ldr	r3, [r6, #8]
    bf7c:	6083      	str	r3, [r0, #8]
    bf7e:	68f3      	ldr	r3, [r6, #12]
    bf80:	60c3      	str	r3, [r0, #12]
    bf82:	2a24      	cmp	r2, #36	; 0x24
    bf84:	d015      	beq.n	bfb2 <_realloc_r+0x316>
    bf86:	0003      	movs	r3, r0
    bf88:	0032      	movs	r2, r6
    bf8a:	3310      	adds	r3, #16
    bf8c:	3210      	adds	r2, #16
    bf8e:	e6d9      	b.n	bd44 <_realloc_r+0xa8>
    bf90:	6853      	ldr	r3, [r2, #4]
    bf92:	2203      	movs	r2, #3
    bf94:	4393      	bics	r3, r2
    bf96:	18e4      	adds	r4, r4, r3
    bf98:	0035      	movs	r5, r6
    bf9a:	e6ec      	b.n	bd76 <_realloc_r+0xda>
    bf9c:	4653      	mov	r3, sl
    bf9e:	68b1      	ldr	r1, [r6, #8]
    bfa0:	6119      	str	r1, [r3, #16]
    bfa2:	68f1      	ldr	r1, [r6, #12]
    bfa4:	6159      	str	r1, [r3, #20]
    bfa6:	2a24      	cmp	r2, #36	; 0x24
    bfa8:	d00c      	beq.n	bfc4 <_realloc_r+0x328>
    bfaa:	0032      	movs	r2, r6
    bfac:	3318      	adds	r3, #24
    bfae:	3210      	adds	r2, #16
    bfb0:	e7bc      	b.n	bf2c <_realloc_r+0x290>
    bfb2:	6933      	ldr	r3, [r6, #16]
    bfb4:	0032      	movs	r2, r6
    bfb6:	6103      	str	r3, [r0, #16]
    bfb8:	0003      	movs	r3, r0
    bfba:	6971      	ldr	r1, [r6, #20]
    bfbc:	3318      	adds	r3, #24
    bfbe:	3218      	adds	r2, #24
    bfc0:	6141      	str	r1, [r0, #20]
    bfc2:	e6bf      	b.n	bd44 <_realloc_r+0xa8>
    bfc4:	4653      	mov	r3, sl
    bfc6:	6932      	ldr	r2, [r6, #16]
    bfc8:	4651      	mov	r1, sl
    bfca:	619a      	str	r2, [r3, #24]
    bfcc:	0032      	movs	r2, r6
    bfce:	6970      	ldr	r0, [r6, #20]
    bfd0:	3320      	adds	r3, #32
    bfd2:	3218      	adds	r2, #24
    bfd4:	61c8      	str	r0, [r1, #28]
    bfd6:	e7a9      	b.n	bf2c <_realloc_r+0x290>
    bfd8:	002b      	movs	r3, r5
    bfda:	0032      	movs	r2, r6
    bfdc:	e77e      	b.n	bedc <_realloc_r+0x240>
    bfde:	0031      	movs	r1, r6
    bfe0:	0028      	movs	r0, r5
    bfe2:	f7ff fe0b 	bl	bbfc <memmove>
    bfe6:	e77f      	b.n	bee8 <_realloc_r+0x24c>
    bfe8:	4653      	mov	r3, sl
    bfea:	68b1      	ldr	r1, [r6, #8]
    bfec:	6119      	str	r1, [r3, #16]
    bfee:	68f1      	ldr	r1, [r6, #12]
    bff0:	6159      	str	r1, [r3, #20]
    bff2:	2a24      	cmp	r2, #36	; 0x24
    bff4:	d003      	beq.n	bffe <_realloc_r+0x362>
    bff6:	0032      	movs	r2, r6
    bff8:	3318      	adds	r3, #24
    bffa:	3210      	adds	r2, #16
    bffc:	e76e      	b.n	bedc <_realloc_r+0x240>
    bffe:	4653      	mov	r3, sl
    c000:	6932      	ldr	r2, [r6, #16]
    c002:	4651      	mov	r1, sl
    c004:	619a      	str	r2, [r3, #24]
    c006:	0032      	movs	r2, r6
    c008:	6970      	ldr	r0, [r6, #20]
    c00a:	3320      	adds	r3, #32
    c00c:	3218      	adds	r2, #24
    c00e:	61c8      	str	r0, [r1, #28]
    c010:	e764      	b.n	bedc <_realloc_r+0x240>
    c012:	46c0      	nop			; (mov r8, r8)
    c014:	200005b0 	.word	0x200005b0

0000c018 <__divsi3>:
    c018:	4603      	mov	r3, r0
    c01a:	430b      	orrs	r3, r1
    c01c:	d47f      	bmi.n	c11e <__divsi3+0x106>
    c01e:	2200      	movs	r2, #0
    c020:	0843      	lsrs	r3, r0, #1
    c022:	428b      	cmp	r3, r1
    c024:	d374      	bcc.n	c110 <__divsi3+0xf8>
    c026:	0903      	lsrs	r3, r0, #4
    c028:	428b      	cmp	r3, r1
    c02a:	d35f      	bcc.n	c0ec <__divsi3+0xd4>
    c02c:	0a03      	lsrs	r3, r0, #8
    c02e:	428b      	cmp	r3, r1
    c030:	d344      	bcc.n	c0bc <__divsi3+0xa4>
    c032:	0b03      	lsrs	r3, r0, #12
    c034:	428b      	cmp	r3, r1
    c036:	d328      	bcc.n	c08a <__divsi3+0x72>
    c038:	0c03      	lsrs	r3, r0, #16
    c03a:	428b      	cmp	r3, r1
    c03c:	d30d      	bcc.n	c05a <__divsi3+0x42>
    c03e:	22ff      	movs	r2, #255	; 0xff
    c040:	0209      	lsls	r1, r1, #8
    c042:	ba12      	rev	r2, r2
    c044:	0c03      	lsrs	r3, r0, #16
    c046:	428b      	cmp	r3, r1
    c048:	d302      	bcc.n	c050 <__divsi3+0x38>
    c04a:	1212      	asrs	r2, r2, #8
    c04c:	0209      	lsls	r1, r1, #8
    c04e:	d065      	beq.n	c11c <__divsi3+0x104>
    c050:	0b03      	lsrs	r3, r0, #12
    c052:	428b      	cmp	r3, r1
    c054:	d319      	bcc.n	c08a <__divsi3+0x72>
    c056:	e000      	b.n	c05a <__divsi3+0x42>
    c058:	0a09      	lsrs	r1, r1, #8
    c05a:	0bc3      	lsrs	r3, r0, #15
    c05c:	428b      	cmp	r3, r1
    c05e:	d301      	bcc.n	c064 <__divsi3+0x4c>
    c060:	03cb      	lsls	r3, r1, #15
    c062:	1ac0      	subs	r0, r0, r3
    c064:	4152      	adcs	r2, r2
    c066:	0b83      	lsrs	r3, r0, #14
    c068:	428b      	cmp	r3, r1
    c06a:	d301      	bcc.n	c070 <__divsi3+0x58>
    c06c:	038b      	lsls	r3, r1, #14
    c06e:	1ac0      	subs	r0, r0, r3
    c070:	4152      	adcs	r2, r2
    c072:	0b43      	lsrs	r3, r0, #13
    c074:	428b      	cmp	r3, r1
    c076:	d301      	bcc.n	c07c <__divsi3+0x64>
    c078:	034b      	lsls	r3, r1, #13
    c07a:	1ac0      	subs	r0, r0, r3
    c07c:	4152      	adcs	r2, r2
    c07e:	0b03      	lsrs	r3, r0, #12
    c080:	428b      	cmp	r3, r1
    c082:	d301      	bcc.n	c088 <__divsi3+0x70>
    c084:	030b      	lsls	r3, r1, #12
    c086:	1ac0      	subs	r0, r0, r3
    c088:	4152      	adcs	r2, r2
    c08a:	0ac3      	lsrs	r3, r0, #11
    c08c:	428b      	cmp	r3, r1
    c08e:	d301      	bcc.n	c094 <__divsi3+0x7c>
    c090:	02cb      	lsls	r3, r1, #11
    c092:	1ac0      	subs	r0, r0, r3
    c094:	4152      	adcs	r2, r2
    c096:	0a83      	lsrs	r3, r0, #10
    c098:	428b      	cmp	r3, r1
    c09a:	d301      	bcc.n	c0a0 <__divsi3+0x88>
    c09c:	028b      	lsls	r3, r1, #10
    c09e:	1ac0      	subs	r0, r0, r3
    c0a0:	4152      	adcs	r2, r2
    c0a2:	0a43      	lsrs	r3, r0, #9
    c0a4:	428b      	cmp	r3, r1
    c0a6:	d301      	bcc.n	c0ac <__divsi3+0x94>
    c0a8:	024b      	lsls	r3, r1, #9
    c0aa:	1ac0      	subs	r0, r0, r3
    c0ac:	4152      	adcs	r2, r2
    c0ae:	0a03      	lsrs	r3, r0, #8
    c0b0:	428b      	cmp	r3, r1
    c0b2:	d301      	bcc.n	c0b8 <__divsi3+0xa0>
    c0b4:	020b      	lsls	r3, r1, #8
    c0b6:	1ac0      	subs	r0, r0, r3
    c0b8:	4152      	adcs	r2, r2
    c0ba:	d2cd      	bcs.n	c058 <__divsi3+0x40>
    c0bc:	09c3      	lsrs	r3, r0, #7
    c0be:	428b      	cmp	r3, r1
    c0c0:	d301      	bcc.n	c0c6 <__divsi3+0xae>
    c0c2:	01cb      	lsls	r3, r1, #7
    c0c4:	1ac0      	subs	r0, r0, r3
    c0c6:	4152      	adcs	r2, r2
    c0c8:	0983      	lsrs	r3, r0, #6
    c0ca:	428b      	cmp	r3, r1
    c0cc:	d301      	bcc.n	c0d2 <__divsi3+0xba>
    c0ce:	018b      	lsls	r3, r1, #6
    c0d0:	1ac0      	subs	r0, r0, r3
    c0d2:	4152      	adcs	r2, r2
    c0d4:	0943      	lsrs	r3, r0, #5
    c0d6:	428b      	cmp	r3, r1
    c0d8:	d301      	bcc.n	c0de <__divsi3+0xc6>
    c0da:	014b      	lsls	r3, r1, #5
    c0dc:	1ac0      	subs	r0, r0, r3
    c0de:	4152      	adcs	r2, r2
    c0e0:	0903      	lsrs	r3, r0, #4
    c0e2:	428b      	cmp	r3, r1
    c0e4:	d301      	bcc.n	c0ea <__divsi3+0xd2>
    c0e6:	010b      	lsls	r3, r1, #4
    c0e8:	1ac0      	subs	r0, r0, r3
    c0ea:	4152      	adcs	r2, r2
    c0ec:	08c3      	lsrs	r3, r0, #3
    c0ee:	428b      	cmp	r3, r1
    c0f0:	d301      	bcc.n	c0f6 <__divsi3+0xde>
    c0f2:	00cb      	lsls	r3, r1, #3
    c0f4:	1ac0      	subs	r0, r0, r3
    c0f6:	4152      	adcs	r2, r2
    c0f8:	0883      	lsrs	r3, r0, #2
    c0fa:	428b      	cmp	r3, r1
    c0fc:	d301      	bcc.n	c102 <__divsi3+0xea>
    c0fe:	008b      	lsls	r3, r1, #2
    c100:	1ac0      	subs	r0, r0, r3
    c102:	4152      	adcs	r2, r2
    c104:	0843      	lsrs	r3, r0, #1
    c106:	428b      	cmp	r3, r1
    c108:	d301      	bcc.n	c10e <__divsi3+0xf6>
    c10a:	004b      	lsls	r3, r1, #1
    c10c:	1ac0      	subs	r0, r0, r3
    c10e:	4152      	adcs	r2, r2
    c110:	1a41      	subs	r1, r0, r1
    c112:	d200      	bcs.n	c116 <__divsi3+0xfe>
    c114:	4601      	mov	r1, r0
    c116:	4152      	adcs	r2, r2
    c118:	4610      	mov	r0, r2
    c11a:	4770      	bx	lr
    c11c:	e05d      	b.n	c1da <__divsi3+0x1c2>
    c11e:	0fca      	lsrs	r2, r1, #31
    c120:	d000      	beq.n	c124 <__divsi3+0x10c>
    c122:	4249      	negs	r1, r1
    c124:	1003      	asrs	r3, r0, #32
    c126:	d300      	bcc.n	c12a <__divsi3+0x112>
    c128:	4240      	negs	r0, r0
    c12a:	4053      	eors	r3, r2
    c12c:	2200      	movs	r2, #0
    c12e:	469c      	mov	ip, r3
    c130:	0903      	lsrs	r3, r0, #4
    c132:	428b      	cmp	r3, r1
    c134:	d32d      	bcc.n	c192 <__divsi3+0x17a>
    c136:	0a03      	lsrs	r3, r0, #8
    c138:	428b      	cmp	r3, r1
    c13a:	d312      	bcc.n	c162 <__divsi3+0x14a>
    c13c:	22fc      	movs	r2, #252	; 0xfc
    c13e:	0189      	lsls	r1, r1, #6
    c140:	ba12      	rev	r2, r2
    c142:	0a03      	lsrs	r3, r0, #8
    c144:	428b      	cmp	r3, r1
    c146:	d30c      	bcc.n	c162 <__divsi3+0x14a>
    c148:	0189      	lsls	r1, r1, #6
    c14a:	1192      	asrs	r2, r2, #6
    c14c:	428b      	cmp	r3, r1
    c14e:	d308      	bcc.n	c162 <__divsi3+0x14a>
    c150:	0189      	lsls	r1, r1, #6
    c152:	1192      	asrs	r2, r2, #6
    c154:	428b      	cmp	r3, r1
    c156:	d304      	bcc.n	c162 <__divsi3+0x14a>
    c158:	0189      	lsls	r1, r1, #6
    c15a:	d03a      	beq.n	c1d2 <__divsi3+0x1ba>
    c15c:	1192      	asrs	r2, r2, #6
    c15e:	e000      	b.n	c162 <__divsi3+0x14a>
    c160:	0989      	lsrs	r1, r1, #6
    c162:	09c3      	lsrs	r3, r0, #7
    c164:	428b      	cmp	r3, r1
    c166:	d301      	bcc.n	c16c <__divsi3+0x154>
    c168:	01cb      	lsls	r3, r1, #7
    c16a:	1ac0      	subs	r0, r0, r3
    c16c:	4152      	adcs	r2, r2
    c16e:	0983      	lsrs	r3, r0, #6
    c170:	428b      	cmp	r3, r1
    c172:	d301      	bcc.n	c178 <__divsi3+0x160>
    c174:	018b      	lsls	r3, r1, #6
    c176:	1ac0      	subs	r0, r0, r3
    c178:	4152      	adcs	r2, r2
    c17a:	0943      	lsrs	r3, r0, #5
    c17c:	428b      	cmp	r3, r1
    c17e:	d301      	bcc.n	c184 <__divsi3+0x16c>
    c180:	014b      	lsls	r3, r1, #5
    c182:	1ac0      	subs	r0, r0, r3
    c184:	4152      	adcs	r2, r2
    c186:	0903      	lsrs	r3, r0, #4
    c188:	428b      	cmp	r3, r1
    c18a:	d301      	bcc.n	c190 <__divsi3+0x178>
    c18c:	010b      	lsls	r3, r1, #4
    c18e:	1ac0      	subs	r0, r0, r3
    c190:	4152      	adcs	r2, r2
    c192:	08c3      	lsrs	r3, r0, #3
    c194:	428b      	cmp	r3, r1
    c196:	d301      	bcc.n	c19c <__divsi3+0x184>
    c198:	00cb      	lsls	r3, r1, #3
    c19a:	1ac0      	subs	r0, r0, r3
    c19c:	4152      	adcs	r2, r2
    c19e:	0883      	lsrs	r3, r0, #2
    c1a0:	428b      	cmp	r3, r1
    c1a2:	d301      	bcc.n	c1a8 <__divsi3+0x190>
    c1a4:	008b      	lsls	r3, r1, #2
    c1a6:	1ac0      	subs	r0, r0, r3
    c1a8:	4152      	adcs	r2, r2
    c1aa:	d2d9      	bcs.n	c160 <__divsi3+0x148>
    c1ac:	0843      	lsrs	r3, r0, #1
    c1ae:	428b      	cmp	r3, r1
    c1b0:	d301      	bcc.n	c1b6 <__divsi3+0x19e>
    c1b2:	004b      	lsls	r3, r1, #1
    c1b4:	1ac0      	subs	r0, r0, r3
    c1b6:	4152      	adcs	r2, r2
    c1b8:	1a41      	subs	r1, r0, r1
    c1ba:	d200      	bcs.n	c1be <__divsi3+0x1a6>
    c1bc:	4601      	mov	r1, r0
    c1be:	4663      	mov	r3, ip
    c1c0:	4152      	adcs	r2, r2
    c1c2:	105b      	asrs	r3, r3, #1
    c1c4:	4610      	mov	r0, r2
    c1c6:	d301      	bcc.n	c1cc <__divsi3+0x1b4>
    c1c8:	4240      	negs	r0, r0
    c1ca:	2b00      	cmp	r3, #0
    c1cc:	d500      	bpl.n	c1d0 <__divsi3+0x1b8>
    c1ce:	4249      	negs	r1, r1
    c1d0:	4770      	bx	lr
    c1d2:	4663      	mov	r3, ip
    c1d4:	105b      	asrs	r3, r3, #1
    c1d6:	d300      	bcc.n	c1da <__divsi3+0x1c2>
    c1d8:	4240      	negs	r0, r0
    c1da:	b501      	push	{r0, lr}
    c1dc:	2000      	movs	r0, #0
    c1de:	f7f9 fc15 	bl	5a0c <__aeabi_idiv0>
    c1e2:	bd02      	pop	{r1, pc}

0000c1e4 <__aeabi_idivmod>:
    c1e4:	2900      	cmp	r1, #0
    c1e6:	d0f8      	beq.n	c1da <__divsi3+0x1c2>
    c1e8:	e716      	b.n	c018 <__divsi3>
    c1ea:	4770      	bx	lr

0000c1ec <__aeabi_uldivmod>:
    c1ec:	2b00      	cmp	r3, #0
    c1ee:	d111      	bne.n	c214 <__aeabi_uldivmod+0x28>
    c1f0:	2a00      	cmp	r2, #0
    c1f2:	d10f      	bne.n	c214 <__aeabi_uldivmod+0x28>
    c1f4:	2900      	cmp	r1, #0
    c1f6:	d100      	bne.n	c1fa <__aeabi_uldivmod+0xe>
    c1f8:	2800      	cmp	r0, #0
    c1fa:	d002      	beq.n	c202 <__aeabi_uldivmod+0x16>
    c1fc:	2100      	movs	r1, #0
    c1fe:	43c9      	mvns	r1, r1
    c200:	1c08      	adds	r0, r1, #0
    c202:	b407      	push	{r0, r1, r2}
    c204:	4802      	ldr	r0, [pc, #8]	; (c210 <__aeabi_uldivmod+0x24>)
    c206:	a102      	add	r1, pc, #8	; (adr r1, c210 <__aeabi_uldivmod+0x24>)
    c208:	1840      	adds	r0, r0, r1
    c20a:	9002      	str	r0, [sp, #8]
    c20c:	bd03      	pop	{r0, r1, pc}
    c20e:	46c0      	nop			; (mov r8, r8)
    c210:	ffff97fd 	.word	0xffff97fd
    c214:	b403      	push	{r0, r1}
    c216:	4668      	mov	r0, sp
    c218:	b501      	push	{r0, lr}
    c21a:	9802      	ldr	r0, [sp, #8]
    c21c:	f000 f806 	bl	c22c <__udivmoddi4>
    c220:	9b01      	ldr	r3, [sp, #4]
    c222:	469e      	mov	lr, r3
    c224:	b002      	add	sp, #8
    c226:	bc0c      	pop	{r2, r3}
    c228:	4770      	bx	lr
    c22a:	46c0      	nop			; (mov r8, r8)

0000c22c <__udivmoddi4>:
    c22c:	b5f0      	push	{r4, r5, r6, r7, lr}
    c22e:	4657      	mov	r7, sl
    c230:	464e      	mov	r6, r9
    c232:	4645      	mov	r5, r8
    c234:	46de      	mov	lr, fp
    c236:	b5e0      	push	{r5, r6, r7, lr}
    c238:	0004      	movs	r4, r0
    c23a:	b083      	sub	sp, #12
    c23c:	000d      	movs	r5, r1
    c23e:	4692      	mov	sl, r2
    c240:	4699      	mov	r9, r3
    c242:	428b      	cmp	r3, r1
    c244:	d82f      	bhi.n	c2a6 <__udivmoddi4+0x7a>
    c246:	d02c      	beq.n	c2a2 <__udivmoddi4+0x76>
    c248:	4649      	mov	r1, r9
    c24a:	4650      	mov	r0, sl
    c24c:	f000 f8ae 	bl	c3ac <__clzdi2>
    c250:	0029      	movs	r1, r5
    c252:	0006      	movs	r6, r0
    c254:	0020      	movs	r0, r4
    c256:	f000 f8a9 	bl	c3ac <__clzdi2>
    c25a:	1a33      	subs	r3, r6, r0
    c25c:	4698      	mov	r8, r3
    c25e:	3b20      	subs	r3, #32
    c260:	469b      	mov	fp, r3
    c262:	d500      	bpl.n	c266 <__udivmoddi4+0x3a>
    c264:	e074      	b.n	c350 <__udivmoddi4+0x124>
    c266:	4653      	mov	r3, sl
    c268:	465a      	mov	r2, fp
    c26a:	4093      	lsls	r3, r2
    c26c:	001f      	movs	r7, r3
    c26e:	4653      	mov	r3, sl
    c270:	4642      	mov	r2, r8
    c272:	4093      	lsls	r3, r2
    c274:	001e      	movs	r6, r3
    c276:	42af      	cmp	r7, r5
    c278:	d829      	bhi.n	c2ce <__udivmoddi4+0xa2>
    c27a:	d026      	beq.n	c2ca <__udivmoddi4+0x9e>
    c27c:	465b      	mov	r3, fp
    c27e:	1ba4      	subs	r4, r4, r6
    c280:	41bd      	sbcs	r5, r7
    c282:	2b00      	cmp	r3, #0
    c284:	da00      	bge.n	c288 <__udivmoddi4+0x5c>
    c286:	e079      	b.n	c37c <__udivmoddi4+0x150>
    c288:	2200      	movs	r2, #0
    c28a:	2300      	movs	r3, #0
    c28c:	9200      	str	r2, [sp, #0]
    c28e:	9301      	str	r3, [sp, #4]
    c290:	2301      	movs	r3, #1
    c292:	465a      	mov	r2, fp
    c294:	4093      	lsls	r3, r2
    c296:	9301      	str	r3, [sp, #4]
    c298:	2301      	movs	r3, #1
    c29a:	4642      	mov	r2, r8
    c29c:	4093      	lsls	r3, r2
    c29e:	9300      	str	r3, [sp, #0]
    c2a0:	e019      	b.n	c2d6 <__udivmoddi4+0xaa>
    c2a2:	4282      	cmp	r2, r0
    c2a4:	d9d0      	bls.n	c248 <__udivmoddi4+0x1c>
    c2a6:	2200      	movs	r2, #0
    c2a8:	2300      	movs	r3, #0
    c2aa:	9200      	str	r2, [sp, #0]
    c2ac:	9301      	str	r3, [sp, #4]
    c2ae:	9b0c      	ldr	r3, [sp, #48]	; 0x30
    c2b0:	2b00      	cmp	r3, #0
    c2b2:	d001      	beq.n	c2b8 <__udivmoddi4+0x8c>
    c2b4:	601c      	str	r4, [r3, #0]
    c2b6:	605d      	str	r5, [r3, #4]
    c2b8:	9800      	ldr	r0, [sp, #0]
    c2ba:	9901      	ldr	r1, [sp, #4]
    c2bc:	b003      	add	sp, #12
    c2be:	bc3c      	pop	{r2, r3, r4, r5}
    c2c0:	4690      	mov	r8, r2
    c2c2:	4699      	mov	r9, r3
    c2c4:	46a2      	mov	sl, r4
    c2c6:	46ab      	mov	fp, r5
    c2c8:	bdf0      	pop	{r4, r5, r6, r7, pc}
    c2ca:	42a3      	cmp	r3, r4
    c2cc:	d9d6      	bls.n	c27c <__udivmoddi4+0x50>
    c2ce:	2200      	movs	r2, #0
    c2d0:	2300      	movs	r3, #0
    c2d2:	9200      	str	r2, [sp, #0]
    c2d4:	9301      	str	r3, [sp, #4]
    c2d6:	4643      	mov	r3, r8
    c2d8:	2b00      	cmp	r3, #0
    c2da:	d0e8      	beq.n	c2ae <__udivmoddi4+0x82>
    c2dc:	07fb      	lsls	r3, r7, #31
    c2de:	0872      	lsrs	r2, r6, #1
    c2e0:	431a      	orrs	r2, r3
    c2e2:	4646      	mov	r6, r8
    c2e4:	087b      	lsrs	r3, r7, #1
    c2e6:	e00e      	b.n	c306 <__udivmoddi4+0xda>
    c2e8:	42ab      	cmp	r3, r5
    c2ea:	d101      	bne.n	c2f0 <__udivmoddi4+0xc4>
    c2ec:	42a2      	cmp	r2, r4
    c2ee:	d80c      	bhi.n	c30a <__udivmoddi4+0xde>
    c2f0:	1aa4      	subs	r4, r4, r2
    c2f2:	419d      	sbcs	r5, r3
    c2f4:	2001      	movs	r0, #1
    c2f6:	1924      	adds	r4, r4, r4
    c2f8:	416d      	adcs	r5, r5
    c2fa:	2100      	movs	r1, #0
    c2fc:	3e01      	subs	r6, #1
    c2fe:	1824      	adds	r4, r4, r0
    c300:	414d      	adcs	r5, r1
    c302:	2e00      	cmp	r6, #0
    c304:	d006      	beq.n	c314 <__udivmoddi4+0xe8>
    c306:	42ab      	cmp	r3, r5
    c308:	d9ee      	bls.n	c2e8 <__udivmoddi4+0xbc>
    c30a:	3e01      	subs	r6, #1
    c30c:	1924      	adds	r4, r4, r4
    c30e:	416d      	adcs	r5, r5
    c310:	2e00      	cmp	r6, #0
    c312:	d1f8      	bne.n	c306 <__udivmoddi4+0xda>
    c314:	465b      	mov	r3, fp
    c316:	9800      	ldr	r0, [sp, #0]
    c318:	9901      	ldr	r1, [sp, #4]
    c31a:	1900      	adds	r0, r0, r4
    c31c:	4169      	adcs	r1, r5
    c31e:	2b00      	cmp	r3, #0
    c320:	db22      	blt.n	c368 <__udivmoddi4+0x13c>
    c322:	002b      	movs	r3, r5
    c324:	465a      	mov	r2, fp
    c326:	40d3      	lsrs	r3, r2
    c328:	002a      	movs	r2, r5
    c32a:	4644      	mov	r4, r8
    c32c:	40e2      	lsrs	r2, r4
    c32e:	001c      	movs	r4, r3
    c330:	465b      	mov	r3, fp
    c332:	0015      	movs	r5, r2
    c334:	2b00      	cmp	r3, #0
    c336:	db2c      	blt.n	c392 <__udivmoddi4+0x166>
    c338:	0026      	movs	r6, r4
    c33a:	409e      	lsls	r6, r3
    c33c:	0033      	movs	r3, r6
    c33e:	0026      	movs	r6, r4
    c340:	4647      	mov	r7, r8
    c342:	40be      	lsls	r6, r7
    c344:	0032      	movs	r2, r6
    c346:	1a80      	subs	r0, r0, r2
    c348:	4199      	sbcs	r1, r3
    c34a:	9000      	str	r0, [sp, #0]
    c34c:	9101      	str	r1, [sp, #4]
    c34e:	e7ae      	b.n	c2ae <__udivmoddi4+0x82>
    c350:	4642      	mov	r2, r8
    c352:	2320      	movs	r3, #32
    c354:	1a9b      	subs	r3, r3, r2
    c356:	4652      	mov	r2, sl
    c358:	40da      	lsrs	r2, r3
    c35a:	4641      	mov	r1, r8
    c35c:	0013      	movs	r3, r2
    c35e:	464a      	mov	r2, r9
    c360:	408a      	lsls	r2, r1
    c362:	0017      	movs	r7, r2
    c364:	431f      	orrs	r7, r3
    c366:	e782      	b.n	c26e <__udivmoddi4+0x42>
    c368:	4642      	mov	r2, r8
    c36a:	2320      	movs	r3, #32
    c36c:	1a9b      	subs	r3, r3, r2
    c36e:	002a      	movs	r2, r5
    c370:	4646      	mov	r6, r8
    c372:	409a      	lsls	r2, r3
    c374:	0023      	movs	r3, r4
    c376:	40f3      	lsrs	r3, r6
    c378:	4313      	orrs	r3, r2
    c37a:	e7d5      	b.n	c328 <__udivmoddi4+0xfc>
    c37c:	4642      	mov	r2, r8
    c37e:	2320      	movs	r3, #32
    c380:	2100      	movs	r1, #0
    c382:	1a9b      	subs	r3, r3, r2
    c384:	2200      	movs	r2, #0
    c386:	9100      	str	r1, [sp, #0]
    c388:	9201      	str	r2, [sp, #4]
    c38a:	2201      	movs	r2, #1
    c38c:	40da      	lsrs	r2, r3
    c38e:	9201      	str	r2, [sp, #4]
    c390:	e782      	b.n	c298 <__udivmoddi4+0x6c>
    c392:	4642      	mov	r2, r8
    c394:	2320      	movs	r3, #32
    c396:	0026      	movs	r6, r4
    c398:	1a9b      	subs	r3, r3, r2
    c39a:	40de      	lsrs	r6, r3
    c39c:	002f      	movs	r7, r5
    c39e:	46b4      	mov	ip, r6
    c3a0:	4097      	lsls	r7, r2
    c3a2:	4666      	mov	r6, ip
    c3a4:	003b      	movs	r3, r7
    c3a6:	4333      	orrs	r3, r6
    c3a8:	e7c9      	b.n	c33e <__udivmoddi4+0x112>
    c3aa:	46c0      	nop			; (mov r8, r8)

0000c3ac <__clzdi2>:
    c3ac:	b510      	push	{r4, lr}
    c3ae:	2900      	cmp	r1, #0
    c3b0:	d103      	bne.n	c3ba <__clzdi2+0xe>
    c3b2:	f7fb fa6b 	bl	788c <__clzsi2>
    c3b6:	3020      	adds	r0, #32
    c3b8:	e002      	b.n	c3c0 <__clzdi2+0x14>
    c3ba:	1c08      	adds	r0, r1, #0
    c3bc:	f7fb fa66 	bl	788c <__clzsi2>
    c3c0:	bd10      	pop	{r4, pc}
    c3c2:	46c0      	nop			; (mov r8, r8)
    c3c4:	74696e69 	.word	0x74696e69
    c3c8:	65746e49 	.word	0x65746e49
    c3cc:	6c616e72 	.word	0x6c616e72
    c3d0:	203a5748 	.word	0x203a5748
    c3d4:	5f6d6377 	.word	0x5f6d6377
    c3d8:	3635736d 	.word	0x3635736d
    c3dc:	695f3733 	.word	0x695f3733
    c3e0:	2074696e 	.word	0x2074696e
    c3e4:	656e6f64 	.word	0x656e6f64
    c3e8:	69000a0d 	.word	0x69000a0d
    c3ec:	4974696e 	.word	0x4974696e
    c3f0:	7265746e 	.word	0x7265746e
    c3f4:	486c616e 	.word	0x486c616e
    c3f8:	43203a57 	.word	0x43203a57
    c3fc:	646c756f 	.word	0x646c756f
    c400:	746f6e20 	.word	0x746f6e20
    c404:	696e6920 	.word	0x696e6920
    c408:	6c616974 	.word	0x6c616974
    c40c:	20657a69 	.word	0x20657a69
    c410:	3635534d 	.word	0x3635534d
    c414:	0d213733 	.word	0x0d213733
    c418:	6e69000a 	.word	0x6e69000a
    c41c:	6e497469 	.word	0x6e497469
    c420:	6e726574 	.word	0x6e726574
    c424:	57486c61 	.word	0x57486c61
    c428:	6377203a 	.word	0x6377203a
    c42c:	636d5f6d 	.word	0x636d5f6d
    c430:	36313433 	.word	0x36313433
    c434:	696e695f 	.word	0x696e695f
    c438:	6f642074 	.word	0x6f642074
    c43c:	0a0d656e 	.word	0x0a0d656e
    c440:	696e6900 	.word	0x696e6900
    c444:	746e4974 	.word	0x746e4974
    c448:	616e7265 	.word	0x616e7265
    c44c:	3a57486c 	.word	0x3a57486c
    c450:	756f4320 	.word	0x756f4320
    c454:	6e20646c 	.word	0x6e20646c
    c458:	6920746f 	.word	0x6920746f
    c45c:	6974696e 	.word	0x6974696e
    c460:	7a696c61 	.word	0x7a696c61
    c464:	434d2065 	.word	0x434d2065
    c468:	36313433 	.word	0x36313433
    c46c:	000a0d21 	.word	0x000a0d21
    c470:	544c4954 	.word	0x544c4954
    c474:	474e4120 	.word	0x474e4120
    c478:	2520454c 	.word	0x2520454c
    c47c:	0d66322e 	.word	0x0d66322e
    c480:	000a      	.short	0x000a

0000c482 <tc_interrupt_vectors.13876>:
    c482:	1211 7715 6d63 725f 6e75 203a 7473 7261     ...wcm_run: star
    c492:	6574 0d64 000a 6377 5f6d 7572 3a6e 5320     ted...wcm_run: S
    c4a2:	4950 6920 696e 6974 6c61 7a69 6465 0a0d     PI initialized..
    c4b2:	7700 6d63 725f 6e75 203a 6377 5f6d 7073     .wcm_run: wcm_sp
    c4c2:	5f69 7473 7261 5f74 6572 6461 6620 6961     i_start_read fai
    c4d2:	656c 2064 3128 2129 0a0d 4c00 4145 004b     led (1)!...LEAK.
    c4e2:	2a25 322e 0066 6168 646e 656c 735f 6970     %*.2f.handle_spi
    c4f2:	635f 6d6f 616d 646e 203a 6f43 6c75 2064     _command: Could 
    c502:	6f6e 2074 6572 6461 6c20 6165 206b 6564     not read leak de
    c512:	6574 7463 726f 0d21 000a 6572 6461 675f     tector!...read_g
    c522:	7370 7700 6d63 705f 6e69 0067 6168 646e     ps.wcm_ping.hand
    c532:	656c 635f 6d6f 616d 646e 203a 6950 676e     le_command: Ping
    c542:	0d21 000a 534d 3635 3733 6800 6e61 6c64     !...MS5637.handl
    c552:	5f65 7073 5f69 6f63 6d6d 6e61 3a64 4320     e_spi_command: C
    c562:	756f 646c 6e20 746f 7220 6165 2064 534d     ould not read MS
    c572:	3635 3733 0d21 000a 6572 6461 6d5f 3363     5637!...read_mc3
    c582:	3134 0036 6168 646e 656c 635f 6d6f 616d     416.handle_comma
    c592:	646e 203a 6f43 6c75 2064 6f6e 2074 6572     nd: Could not re
    c5a2:	6461 4d20 3343 3134 2136 0a0d 6300 6c61     ad MC3416!...cal
    c5b2:	6269 6172 6574 6d5f 3363 3134 0036 6168     ibrate_mc3416.ha
    c5c2:	646e 656c 635f 6d6f 616d 646e 203a 6f43     ndle_command: Co
    c5d2:	6c75 2064 6f6e 2074 6163 696c 7262 7461     uld not calibrat
    c5e2:	2065 434d 3433 3631 0d21 000a 657a 6f72     e MC3416!...zero
    c5f2:	6d5f 3363 3134 0036 6168 646e 656c 635f     _mc3416.handle_c
    c602:	6d6f 616d 646e 203a 6f43 6c75 2064 6f6e     ommand: Could no
    c612:	2074 657a 6f72 4d20 3343 3134 2136 0a0d     t zero MC3416!..
    c622:	5000 574f 5245 2500 642a 5200 5345 0050     .POWER.%*d.RESP.
    c632:	2d2d 2d2d 2d2d 2d2d 2b00 5633 5633 5f41     --------.+3V3VA_
    c642:	4e45 2000 2b00 5633 5633 5f41 4e45 2520     EN. .+3V3VA_EN %
    c652:	0064 5047 5f53 5750 5f52 4e45 4700 5350     d.GPS_PWR_EN.GPS
    c662:	505f 5257 455f 204e 6425 4300 4d4f 535f     _PWR_EN %d.COM_S
    c672:	5f57 0041 4f43 5f4d 5753 415f 2520 0064     W_A.COM_SW_A %d.
    c682:	4153 5f54 5750 5f52 4e45 5300 5441 505f     SAT_PWR_EN.SAT_P
    c692:	5257 455f 204e 6425 4300 4c45 5f4c 5750     WR_EN %d.CELL_PW
    c6a2:	5f52 4e45 4300 4c45 5f4c 5750 5f52 4e45     R_EN.CELL_PWR_EN
    c6b2:	2520 0064 4657 505f 5257 455f 004e 4657      %d.WF_PWR_EN.WF
    c6c2:	505f 5257 455f 204e 6425 4c00 5447 4f5f     _PWR_EN %d.LGT_O
    c6d2:	004e 474c 5f54 4e4f 2520 0064 6168 646e     N.LGT_ON %d.hand
    c6e2:	656c 735f 6970 635f 6d6f 616d 646e 203a     le_spi_command: 
    c6f2:	6e55 6e6b 776f 206e 6f63 6d6d 6e61 2164     Unknown command!
    c702:	0a0d 7700 6d63 725f 6e75 203a 6377 5f6d     ...wcm_run: wcm_
    c712:	7073 5f69 7473 7261 5f74 6572 6461 6620     spi_start_read f
    c722:	6961 656c 2064 3228 2129 0a0d 7200 6165     ailed (2)!...rea
    c732:	5f64 656c 6b61 4c00 4145 204b 2e25 6c32     d_leak.LEAK %.2l
    c742:	0d66 000a 6168 646e 656c 635f 6d6f 616d     f...handle_comma
    c752:	646e 203a 6f43 6c75 2064 6f6e 2074 6572     nd: Could not re
    c762:	6461 6c20 6165 206b 6564 6574 7463 726f     ad leak detector
    c772:	0d21 000a 6572 6461 625f 7461 0074 4142     !...read_batt.BA
    c782:	5454 5245 2059 4544 4554 5443 2520 322e     TTERY DETECT %.2
    c792:	666c 0a0d 6800 6e61 6c64 5f65 6f63 6d6d     lf...handle_comm
    c7a2:	6e61 3a64 4320 756f 646c 6e20 746f 7220     and: Could not r
    c7b2:	6165 2064 6162 7474 7265 2079 6564 6574     ead battery dete
    c7c2:	7463 726f 0d21 000a 6572 6461 635f 6d6f     ctor!...read_com
    c7d2:	0073 4e49 4156 494c 0d44 000a 6168 646e     s.INVALID...hand
    c7e2:	656c 635f 6d6f 616d 646e 203a 6950 676e     le_command: Ping
    c7f2:	5220 6365 6965 6576 2164 0a0d 7200 6165      Received!...rea
    c802:	5f64 736d 3635 3733 4400 2031 6c25 0d75     d_ms5637.D1 %lu.
    c812:	000a 3244 2520 756c 0a0d 4d00 3553 3336     ..D2 %lu...MS563
    c822:	2037 5250 5345 5553 4552 2520 322e 0d66     7 PRESSURE %.2f.
    c832:	000a 534d 3635 3733 5420 4d45 4550 4152     ..MS5637 TEMPERA
    c842:	5554 4552 2520 322e 0d66 000a 6168 646e     TURE %.2f...hand
    c852:	656c 635f 6d6f 616d 646e 203a 6f43 6c75     le_command: Coul
    c862:	2064 6f6e 2074 6572 6461 4d20 3553 3336     d not read MS563
    c872:	2137 0a0d 7200 6165 5f64 6f70 6577 5f72     7!...read_power_
    c882:	6962 7374 2b00 5633 5633 5f41 4e45 2520     bits.+3V3VA_EN %
    c892:	0d64 000a 5047 5f53 5750 5f52 4e45 2520     d...GPS_PWR_EN %
    c8a2:	0d64 000a 4f43 5f4d 5753 415f 2520 0d64     d...COM_SW_A %d.
    c8b2:	000a 4153 5f54 5750 5f52 4e45 2520 0d64     ..SAT_PWR_EN %d.
    c8c2:	000a 4543 4c4c 5020 5257 455f 204e 6425     ..CELL PWR_EN %d
    c8d2:	0a0d 5700 5f46 5750 5f52 4e45 2520 0d64     ...WF_PWR_EN %d.
    c8e2:	000a 474c 5f54 4e4f 2520 0d64 000a 6572     ..LGT_ON %d...re
    c8f2:	6e69 7469 6169 696c 657a 6500 7065 6f72     initialize.eepro
    c902:	5f6d 6f63 666e 6769 7275 3a65 5320 4154     m_configure: STA
    c912:	5554 5f53 4b4f 0a0d 6500 7065 6f72 5f6d     TUS_OK...eeprom_
    c922:	6f63 666e 6769 7275 3a65 4820 7661 2065     configure: Have 
    c932:	6f74 7220 6165 2064 6573 7474 6e69 7367     to read settings
    c942:	0a0d 6500 7065 6f72 5f6d 6f63 666e 6769     ...eeprom_config
    c952:	7275 3a65 5320 4154 5554 5f53 5245 5f52     ure: STATUS_ERR_
    c962:	4f4e 4d5f 4d45 524f 0d59 000a 6565 7270     NO_MEMORY...eepr
    c972:	6d6f 635f 6e6f 6966 7567 6572 203a 5453     om_configure: ST
    c982:	5441 5355 455f 5252 425f 4441 465f 524f     ATUS_ERR_BAD_FOR
    c992:	414d 0d54 000a 6565 7270 6d6f 635f 6e6f     MAT...eeprom_con
    c9a2:	6966 7567 6572 203a 726f 0a0d 6500 7065     figure: or...eep
    c9b2:	6f72 5f6d 6f63 666e 6769 7275 3a65 5320     rom_configure: S
    c9c2:	4154 5554 5f53 5245 5f52 4f49 0a0d 6500     TATUS_ERR_IO...e
    c9d2:	7065 6f72 5f6d 6f63 666e 6769 7275 3a65     eprom_configure:
    c9e2:	4820 7661 2065 6f74 6520 6172 6573 6120      Have to erase a
    c9f2:	646e 6920 696e 6974 6c61 7a69 0d65 000a     nd initialize...
    ca02:	6565 7270 6d6f 635f 6e6f 6966 7567 6572     eeprom_configure
    ca12:	203a 5453 5441 5355 4f5f 204b 0d32 000a     : STATUS_OK 2...
    ca22:	6565 7270 6d6f 635f 6e6f 6966 7567 6572     eeprom_configure
    ca32:	203a 6148 6576 7420 206f 7277 7469 2065     : Have to write 
    ca42:	6573 7474 6e69 7367 0a0d 6500 7065 6f72     settings...eepro
    ca52:	5f6d 6f63 666e 6769 7275 3a65 5320 4154     m_configure: STA
    ca62:	5554 5f53 5245 5f52 4552 4441 455f 5045     TUS_ERR_READ_EEP
    ca72:	4f52 0d4d 000a 6565 7270 6d6f 635f 6e6f     ROM...eeprom_con
    ca82:	6966 7567 6572 203a 5453 5441 5355 455f     figure: STATUS_E
    ca92:	5252 575f 4952 4554 455f 5045 4f52 5f4d     RR_WRITE_EEPROM_
    caa2:	5542 4646 5245 0a0d 6500 7065 6f72 5f6d     BUFFER...eeprom_
    cab2:	6f63 666e 6769 7275 3a65 5320 4154 5554     configure: STATU
    cac2:	5f53 5245 5f52 5257 5449 5f45 4545 5250     S_ERR_WRITE_EEPR
    cad2:	4d4f 435f 4d4f 494d 0d54 000a 6377 5f6d     OM_COMMIT...wcm_
    cae2:	3269 5f63 6f63 6d6d 6e61 5f64 6572 6461     i2c_command_read
    caf2:	725f 6765 725f 7365 6f70 736e 3a65 2820     _reg_response: (
    cb02:	2931 7320 6174 7574 2073 203d 7830 7825     1) status = 0x%x
    cb12:	0d21 000a 6377 5f6d 3269 5f63 6f63 6d6d     !...wcm_i2c_comm
    cb22:	6e61 5f64 6572 6461 725f 7365 6f70 736e     and_read_respons
    cb32:	3a65 2820 2932 7320 6174 7574 2073 203d     e: (2) status = 
    cb42:	7830 7825 0d21 000a 6377 5f6d 3269 5f63     0x%x!...wcm_i2c_
    cb52:	7277 7469 5f65 6f63 6d6d 6e61 5f64 6572     write_command_re
    cb62:	3a67 7320 6174 7574 2073 203d 7830 7825     g: status = 0x%x
    cb72:	0d21 000a 6377 5f6d 3269 5f63 6572 6461     !...wcm_i2c_read
    cb82:	725f 7365 6f70 736e 5f65 6170 6b63 7465     _response_packet
    cb92:	203a 7473 7461 7375 3d20 3020 2578 2178     : status = 0x%x!
    cba2:	0a0d 7700 6d63 695f 6332 775f 6972 6574     ...wcm_i2c_write
    cbb2:	635f 6d6f 616d 646e 705f 6361 656b 3a74     _command_packet:
    cbc2:	7320 6174 7574 2073 203d 7830 7825 0d21      status = 0x%x!.
    cbd2:	000a 6377 5f6d 3269 5f63 7277 7469 5f65     ..wcm_i2c_write_
    cbe2:	6f63 6d6d 6e61 5f64 6572 6461 725f 7365     command_read_res
    cbf2:	6f70 736e 3a65 2820 2931 7320 6174 7574     ponse: (1) statu
    cc02:	2073 203d 7830 7825 0d21 000a 6377 5f6d     s = 0x%x!...wcm_
    cc12:	3269 5f63 7277 7469 5f65 6f63 6d6d 6e61     i2c_write_comman
    cc22:	5f64 6572 6461 725f 7365 6f70 736e 3a65     d_read_response:
    cc32:	2820 2932 7320 6174 7574 2073 203d 7830      (2) status = 0x
    cc42:	7825 0d21 000a 636d 3433 3631 635f 6568     %x!...mc3416_che
    cc52:	6b63 6d5f 646f 3a65 7220 6165 5f64 6166     ck_mode: read_fa
    cc62:	6c69 6465 0d21 000a 636d 3433 3631 635f     iled!...mc3416_c
    cc72:	6568 6b63 6d5f 646f 3a65 5320 4154 444e     heck_mode: STAND
    cc82:	5942 4d5f 444f 2145 0a0d 6d00 3363 3134     BY_MODE!...mc341
    cc92:	5f36 6173 706d 656c 615f 6978 3a73 6120     6_sample_axis: a
    cca2:	6978 5f73 6572 6461 665f 6961 656c 2164     xis_read_failed!
    ccb2:	0a0d 7700 6b61 7565 2070 6564 616c 2079     ...wakeup delay 
    ccc2:	6966 696e 6873 6465 0d21 000a 636d 3433     finished!...mc34
    ccd2:	3631 735f 7465 6d5f 646f 3a65 7720 6972     16_set_mode: wri
    cce2:	6574 665f 6961 656c 2164 0a0d 6d00 3363     te_failed!...mc3
    ccf2:	3134 5f36 6573 5f74 6172 676e 5f65 6572     416_set_range_re
    cd02:	6f73 756c 6974 6e6f 203a 6572 6461 665f     solution: read_f
    cd12:	6961 656c 2164 0a0d 6d00 3363 3134 5f36     ailed!...mc3416_
    cd22:	6573 5f74 6172 676e 5f65 6572 6f73 756c     set_range_resolu
    cd32:	6974 6e6f 203a 7277 7469 5f65 6166 6c69     tion: write_fail
    cd42:	6465 0d21 000a 636d 3433 3631 735f 7465     ed!...mc3416_set
    cd52:	735f 6d61 6c70 6e69 5f67 6172 6574 203a     _sampling_rate: 
    cd62:	6572 6461 665f 6961 656c 2164 0a0d 6d00     read_failed!...m
    cd72:	3363 3134 5f36 6573 5f74 6173 706d 696c     c3416_set_sampli
    cd82:	676e 725f 7461 3a65 7720 6972 6574 665f     ng_rate: write_f
    cd92:	6961 656c 2164 0a0d 6d00 3363 3134 5f36     ailed!...mc3416_
    cda2:	6176 696c 6164 6574 635f 6968 3a70 6320     validate_chip: c
    cdb2:	6968 4970 5f44 6572 6461 665f 6961 656c     hipID_read_faile
    cdc2:	2164 0a0d 6d00 3363 3134 5f36 6176 696c     d!...mc3416_vali
    cdd2:	6164 6574 635f 6968 3a70 5020 6f63 6564     date_chip: Pcode
    cde2:	725f 6165 5f64 6166 6c69 6465 0d21 000a     _read_failed!...
    cdf2:	636d 3433 3631 765f 6c61 6469 7461 5f65     mc3416_validate_
    ce02:	6863 7069 203a 6843 7069 495f 5f44 6e69     chip: Chip_ID_in
    ce12:	6f63 7272 6365 2174 0a0d 6d00 3363 3134     correct!...mc341
    ce22:	5f36 6176 696c 6164 6574 635f 6968 3a70     6_validate_chip:
    ce32:	5020 6f72 7564 7463 435f 646f 5f65 6e69      Product_Code_in
    ce42:	6f63 7272 6365 2174 0a0d 7700 6d63 6d5f     correct!...wcm_m
    ce52:	3363 3134 5f36 6163 696c 7262 7461 3a65     c3416_calibrate:
    ce62:	6d20 646f 5f65 6863 6365 5f6b 6166 6c69      mode_check_fail
    ce72:	6465 0d21 000a 6377 5f6d 636d 3433 3631     ed!...wcm_mc3416
    ce82:	635f 6c61 6269 6172 6574 203a 6157 656b     _calibrate: Wake
    ce92:	7075 665f 6961 656c 2164 0a0d 7700 6d63     up_failed!...wcm
    cea2:	6d5f 3363 3134 5f36 6163 696c 7262 7461     _mc3416_calibrat
    ceb2:	3a65 5220 6165 5f64 7861 7369 665f 6961     e: Read_axis_fai
    cec2:	656c 2164 0a0d 7700 6d63 6d5f 3363 3134     led!...wcm_mc341
    ced2:	5f36 6e69 7469 203a 6f6e 635f 6968 5f70     6_init: no_chip_
    cee2:	6564 6574 7463 6465 0d21 000a 6377 5f6d     detected!...wcm_
    cef2:	636d 3433 3631 695f 696e 3a74 7320 6174     mc3416_init: sta
    cf02:	646e 7962 6d5f 646f 5f65 6f6e 5f74 6e65     ndby_mode_not_en
    cf12:	6574 6572 2164 0a0d 7700 6d63 6d5f 3363     tered!...wcm_mc3
    cf22:	3134 5f36 6e69 7469 203a 6153 706d 696c     416_init: Sampli
    cf32:	676e 725f 7461 5f65 6f6e 5f74 6f63 666e     ng_rate_not_conf
    cf42:	6769 7275 6465 0d21 000a 6377 5f6d 636d     igured!...wcm_mc
    cf52:	3433 3631 695f 696e 3a74 5220 6e61 6567     3416_init: Range
    cf62:	725f 7365 6e5f 746f 635f 6e6f 6966 7567     _res_not_configu
    cf72:	6572 2164 0a0d 7700 6d63 6d5f 3363 3134     red!...wcm_mc341
    cf82:	5f36 6e69 7469 203a 664f 7366 7465 725f     6_init: Offset_r
    cf92:	6165 7364 665f 6961 656c 2164 0a0d 7700     eads_failed!...w
    cfa2:	6d63 6d5f 3363 3134 5f36 6e69 7469 203a     cm_mc3416_init: 
    cfb2:	6177 656b 6d5f 646f 5f65 6f6e 5f74 6e65     wake_mode_not_en
    cfc2:	6574 6572 2164 0a0d 7700 6d63 6d5f 3363     tered!...wcm_mc3
    cfd2:	3134 5f36 6572 6461 745f 6c69 3a74 6d20     416_read_tilt: m
    cfe2:	646f 5f65 6863 6365 5f6b 6166 6c69 6465     ode_check_failed
    cff2:	0d21 000a 6377 5f6d 636d 3433 3631 725f     !...wcm_mc3416_r
    d002:	6165 5f64 6974 746c 203a 6157 656b 7075     ead_tilt: Wakeup
    d012:	665f 6961 656c 2164 0a0d 7700 6d63 6d5f     _failed!...wcm_m
    d022:	3363 3134 5f36 6572 6461 745f 6c69 3a74     c3416_read_tilt:
    d032:	5320 6d61 6c70 5f65 7861 7369 665f 6961      Sample_axis_fai
    d042:	656c 2164 0a0d 7700 6d63 6d5f 3573 3336     led!...wcm_ms563
    d052:	5f37 6e69 7469 203a 6f43 6c75 2064 6f6e     7_init: Could no
    d062:	2074 6572 6573 2174 0a0d 7700 6d63 6d5f     t reset!...wcm_m
    d072:	3573 3336 5f37 7270 6d6f 725f 6165 3a64     s5637_prom_read:
    d082:	4320 756f 646c 6e20 746f 7220 6165 2064      Could not read 
    d092:	5243 2143 0a0d 7700 6d63 6d5f 3573 3336     CRC!...wcm_ms563
    d0a2:	5f37 7270 6d6f 725f 6165 3a64 4320 756f     7_prom_read: Cou
    d0b2:	646c 6e20 746f 7220 6165 2064 6163 696c     ld not read cali
    d0c2:	7262 7461 6f69 206e 6f63 6665 6966 6963     bration coeffici
    d0d2:	6e65 2174 0a0d 6d00 3573 3336 5f37 6572     ent!...ms5637_re
    d0e2:	6461 645f 5f31 3264 203a 6f43 6c75 2064     ad_d1_d2: Could 
    d0f2:	6f6e 2074 6f63 766e 7265 2074 3144 0d21     not convert D1!.
    d102:	000a 736d 3635 3733 725f 6165 5f64 3164     ..ms5637_read_d1
    d112:	645f 3a32 4320 756f 646c 6e20 746f 7220     _d2: Could not r
    d122:	6165 2064 4441 2043 3128 2129 0a0d 6d00     ead ADC (1)!...m
    d132:	3573 3336 5f37 6572 6461 645f 5f31 3264     s5637_read_d1_d2
    d142:	203a 6f43 6c75 2064 6f6e 2074 6f63 766e     : Could not conv
    d152:	7265 2074 3244 0d21 000a 736d 3635 3733     ert D2!...ms5637
    d162:	725f 6165 5f64 3164 645f 3a32 4320 756f     _read_d1_d2: Cou
    d172:	646c 6e20 746f 7220 6165 2064 4441 2043     ld not read ADC 
    d182:	3228 2129 0a0d 7300 6970 6420 7369 6261     (2)!...spi disab
    d192:	656c 2164 0a0d 6300 6d6f 7520 6173 7472     led!...com usart
    d1a2:	6420 7369 6261 656c 2164 0a0d 6700 7370      disabled!...gps
    d1b2:	7520 6173 7472 6420 7369 6261 656c 2164      usart disabled!
    d1c2:	0a0d 7000 2063 7375 7261 2074 6964 6173     ...pc usart disa
    d1d2:	6c62 6465 0d21 000a 7375 7261 5f74 6572     bled!...usart_re
    d1e2:	6461 775f 6961 2074 5453 5441 5355 455f     ad_wait STATUS_E
    d1f2:	5252 425f 4441 465f 524f 414d 2154 0a0d     RR_BAD_FORMAT!..
    d202:	7500 6173 7472 725f 6165 5f64 6177 7469     .usart_read_wait
    d212:	5320 4154 5554 5f53 5245 5f52 564f 5245      STATUS_ERR_OVER
    d222:	4c46 574f 0d21 000a 7375 7261 5f74 6572     FLOW!...usart_re
    d232:	6461 775f 6961 2074 5453 5441 5355 455f     ad_wait STATUS_E
    d242:	5252 425f 4441 445f 5441 2141 0a0d 7500     RR_BAD_DATA!...u
    d252:	6173 7472 725f 6165 5f64 6177 7469 5320     sart_read_wait S
    d262:	4154 5554 5f53 5245 5f52 4544 494e 4445     TATUS_ERR_DENIED
    d272:	0d21 000a 7375 7261 5f74 6572 6461 775f     !...usart_read_w
    d282:	6961 2074 5453 5441 5355 455f 5252 505f     ait STATUS_ERR_P
    d292:	4f52 4f54 4f43 214c 0a0d 7500 6173 7472     ROTOCOL!...usart
    d2a2:	725f 6165 5f64 6177 7469 5320 4154 5554     _read_wait STATU
    d2b2:	5f53 5245 5f52 4150 4b43 5445 435f 4c4f     S_ERR_PACKET_COL
    d2c2:	494c 4953 4e4f 0d21 000a 7375 7261 5f74     LISION!...usart_
    d2d2:	6572 6461 775f 6961 2074 4e55 4e4b 574f     read_wait UNKNOW
    d2e2:	214e 0a0d 0000 0002 0000 0003 0000 ffff     N!..............
    d2f2:	0000 ffff 0000 0004 0000 0005 0000 0006     ................
    d302:	0000 0007 0000 ffff 0000 ffff 0000 ffff     ................
    d312:	0000 ffff 0000 ffff 0000 ffff 0000 ffff     ................
    d322:	0000 ffff 0000 0008 0000 0009 0000 000a     ................
    d332:	0000 000b 0000 ffff 0000 ffff 0000 ffff     ................
    d342:	0000 ffff 0000 2000 4200 2400 4200 0800     ....... .B.$.B..
    d352:	4300 0002 0000 0100 0000 0002 0000 0200     .C..............
    d362:	0000 0003 0000 0004 0000 0000 4200 0400     .............B..
    d372:	4200 0800 4200 0c00 4200 1000 4200 0400     .B...B...B...B..
    d382:	4300 4545 4174 4f4d 5052 752e 456d 6361     .CEEtAMORP.umEac
    d392:	736f 0000 0000 7173 7472 0000 0000 639c     os....sqrt.....c
    d3a2:	0000 637e 0000 6338 0000 6256 0000 6338     ..~c..8c..Vb..8c
    d3b2:	0000 6370 0000 6338 0000 6256 0000 637e     ..pc..8c..Vb..~c
    d3c2:	0000 637e 0000 6370 0000 6256 0000 624e     ..~c..pc..Vb..Nb
    d3d2:	0000 624e 0000 624e 0000 65b4 0000 6bfc     ..Nb..Nb...e...k
    d3e2:	0000 6abc 0000 6abc 0000 6ab8 0000 6bd4     ...j...j...j...k
    d3f2:	0000 6bd4 0000 6bc6 0000 6ab8 0000 6bd4     ...k...k...j...k
    d402:	0000 6bc6 0000 6bd4 0000 6ab8 0000 6bdc     ...k...k...j...k
    d412:	0000 6bdc 0000 6bdc 0000 6de0 0000          ...k...k...m..

0000d420 <_global_impure_ptr>:
    d420:	0018 2000 87f8 0000 886c 0000 886c 0000     ... ....l...l...
    d430:	87dc 0000 886c 0000 886c 0000 886c 0000     ....l...l...l...
    d440:	886c 0000 886c 0000 886c 0000 87e4 0000     l...l...l.......
    d450:	82c6 0000 886c 0000 8280 0000 82d0 0000     ....l...........
    d460:	886c 0000 831c 0000 8506 0000 8506 0000     l...............
    d470:	8506 0000 8506 0000 8506 0000 8506 0000     ................
    d480:	8506 0000 8506 0000 8506 0000 886c 0000     ............l...
    d490:	886c 0000 886c 0000 886c 0000 886c 0000     l...l...l...l...
    d4a0:	886c 0000 886c 0000 886c 0000 886c 0000     l...l...l...l...
    d4b0:	886c 0000 8324 0000 846c 0000 886c 0000     l...$...l...l...
    d4c0:	846c 0000 886c 0000 886c 0000 886c 0000     l...l...l...l...
    d4d0:	886c 0000 8536 0000 886c 0000 886c 0000     l...6...l...l...
    d4e0:	853e 0000 886c 0000 886c 0000 886c 0000     >...l...l...l...
    d4f0:	886c 0000 886c 0000 85e0 0000 886c 0000     l...l.......l...
    d500:	886c 0000 8612 0000 886c 0000 886c 0000     l.......l...l...
    d510:	886c 0000 886c 0000 886c 0000 886c 0000     l...l...l...l...
    d520:	886c 0000 886c 0000 886c 0000 886c 0000     l...l...l...l...
    d530:	870c 0000 8740 0000 846c 0000 846c 0000     ....@...l...l...
    d540:	846c 0000 8752 0000 8740 0000 886c 0000     l...R...@...l...
    d550:	886c 0000 875a 0000 886c 0000 8674 0000     l...Z...l...t...
    d560:	883a 0000 87b0 0000 86aa 0000 886c 0000     :...........l...
    d570:	86b2 0000 886c 0000 8808 0000 886c 0000     ....l.......l...
    d580:	886c 0000 876a 0000 4e49 0046 6e69 0066     l...j...INF.inf.
    d590:	414e 004e 616e 006e 3130 3332 3534 3736     NAN.nan.01234567
    d5a0:	3938 4241 4443 4645 0000 0000 3130 3332     89ABCDEF....0123
    d5b0:	3534 3736 3938 6261 6463 6665 0000 0000     456789abcdef....
    d5c0:	6e28 6c75 296c 0000 0030 0000               (null)..0...

0000d5cc <blanks.7223>:
    d5cc:	2020 2020 2020 2020 2020 2020 2020 2020                     

0000d5dc <zeroes.7224>:
    d5dc:	3030 3030 3030 3030 3030 3030 3030 3030     0000000000000000
    d5ec:	6e49 6966 696e 7974 0000 0000 614e 004e     Infinity....NaN.
    d5fc:	0043 0000 4f50 4953 0058 0000 002e 0000     C...POSIX.......
    d60c:	0000 0000                                   ....

0000d610 <__mprec_bigtens>:
    d610:	8000 37e0 c379 4341 6e17 b505 b8b5 4693     ...7y.AC.n.....F
    d620:	f9f5 e93f 4f03 4d38 1d32 f930 7748 5a82     ..?..O8M2.0.Hw.Z
    d630:	bf3c 7f73 4fdd 7515                         <.s..O.u

0000d638 <__mprec_tens>:
    d638:	0000 0000 0000 3ff0 0000 0000 0000 4024     .......?......$@
    d648:	0000 0000 0000 4059 0000 0000 4000 408f     ......Y@.....@.@
    d658:	0000 0000 8800 40c3 0000 0000 6a00 40f8     .......@.....j.@
    d668:	0000 0000 8480 412e 0000 0000 12d0 4163     .......A......cA
    d678:	0000 0000 d784 4197 0000 0000 cd65 41cd     .......A....e..A
    d688:	0000 2000 a05f 4202 0000 e800 4876 4237     ... _..B....vH7B
    d698:	0000 a200 1a94 426d 0000 e540 309c 42a2     ......mB..@..0.B
    d6a8:	0000 1e90 bcc4 42d6 0000 2634 6bf5 430c     .......B..4&.k.C
    d6b8:	8000 37e0 c379 4341 a000 85d8 3457 4376     ...7y.AC....W4vC
    d6c8:	c800 674e c16d 43ab 3d00 6091 58e4 43e1     ..Ngm..C.=.`.X.C
    d6d8:	8c40 78b5 af1d 4415 ef50 d6e2 1ae4 444b     @..x...DP.....KD
    d6e8:	d592 064d f0cf 4480 4af6 c7e1 2d02 44b5     ..M....D.J...-.D
    d6f8:	9db4 79d9 7843 44ea                         ...yCx.D

0000d700 <p05.6055>:
    d700:	0005 0000 0019 0000 007d 0000               ........}...

0000d70c <_ctype_>:
    d70c:	2000 2020 2020 2020 2020 2828 2828 2028     .         ((((( 
    d71c:	2020 2020 2020 2020 2020 2020 2020 2020                     
    d72c:	8820 1010 1010 1010 1010 1010 1010 1010      ...............
    d73c:	0410 0404 0404 0404 0404 1004 1010 1010     ................
    d74c:	1010 4141 4141 4141 0101 0101 0101 0101     ..AAAAAA........
    d75c:	0101 0101 0101 0101 0101 0101 1010 1010     ................
    d76c:	1010 4242 4242 4242 0202 0202 0202 0202     ..BBBBBB........
    d77c:	0202 0202 0202 0202 0202 0202 1010 1010     ................
    d78c:	0020 0000 0000 0000 0000 0000 0000 0000      ...............
	...

0000d810 <_init>:
    d810:	b5f8      	push	{r3, r4, r5, r6, r7, lr}
    d812:	46c0      	nop			; (mov r8, r8)
    d814:	bcf8      	pop	{r3, r4, r5, r6, r7}
    d816:	bc08      	pop	{r3}
    d818:	469e      	mov	lr, r3
    d81a:	4770      	bx	lr

0000d81c <__init_array_start>:
    d81c:	000097a5 	.word	0x000097a5

0000d820 <__frame_dummy_init_array_entry>:
    d820:	000000dd                                ....

0000d824 <_fini>:
    d824:	b5f8      	push	{r3, r4, r5, r6, r7, lr}
    d826:	46c0      	nop			; (mov r8, r8)
    d828:	bcf8      	pop	{r3, r4, r5, r6, r7}
    d82a:	bc08      	pop	{r3}
    d82c:	469e      	mov	lr, r3
    d82e:	4770      	bx	lr

0000d830 <__fini_array_start>:
    d830:	000000b5 	.word	0x000000b5
